******************************************************************************
               TMS320C6x Linker PC v7.3.4                      
******************************************************************************
>> Linked Tue Apr 09 18:51:46 2013

OUTPUT FILE NAME:   <Test_appc1_withsysbios.out>
ENTRY POINT SYMBOL: "_c_int00"  address: 8603f7c0


MEMORY CONFIGURATION

         name            origin    length      used     unused   attr    fill
----------------------  --------  ---------  --------  --------  ----  --------
  L2RAM                 00082000   000e0000  0002f174  000b0e8c  RW X
  L2HEAP                00800000   00020000  00000000  00020000  RW X
  L1P_RAM               00e00000   00004000  00000000  00004000  RW X
  L1D_RAM               00f00000   00008000  00000000  00008000  RW X
  MSMCSRAM              0c000000   00400000  00000000  00400000  RW X
  C0_HEAP_RAM           80000000   01000000  00000000  01000000  RW X
  C1_HEAP_RAM           81000000   01000000  00a55090  005aaf70  RW X
  C2_HEAP_RAM           82000000   01000000  00000000  01000000  RW X
  CX_CRITICAL_SECTION   83000000   01000000  00000000  01000000  RW X
  CX_CRITICAL_SECTION_R 84000000   00800000  00000000  00800000  RW X
  C0_BURST_DATA         84800000   01000000  00000000  01000000  RW X
  C0_PROG_RAM           85800000   00800000  00000000  00800000  RW X
  C1_PROG_RAM           86000000   00800000  0004b2c0  007b4d40  RW X
  C2_PROG_RAM           86800000   00800000  00000000  00800000  RW X
  C0_DATA_RAM           87000000   02000000  00000000  02000000  RW X
  C1_DATA_RAM           89000000   02000000  0019db33  01e624cd  RW X
  C2_DATA_RAM           8b000000   02000000  00000000  02000000  RW X
  C2_HEALTH             8fffff00   00000100  00000000  00000100  RW X


SEGMENT ALLOCATION MAP

run origin  load origin   length   init length attrs members
----------  ----------- ---------- ----------- ----- -------
00082000    00082000    0002f0e8   00000000    rw-
  00082000    00082000    0002f0e8   00000000    rw- .dataL2.1
000b10f0    000b10f0    0000008c   00000000    rw-
  000b10f0    000b10f0    0000008c   00000000    rw- .dataL2.2
81000000    81000000    00a55090   00a53090    rw-
  81000000    81000000    00a53090   00a53090    rw- .heap_ram
  81a53090    81a53090    00002000   00000000    rw- .stack
86000000    86000000    0004b0c0   0004b0c0    r-x
  86000000    86000000    00044580   00044580    r-x .text
  86044580    86044580    00006b40   00006b40    r-x .textDDR
8604b400    8604b400    00000200   00000200    r-x
  8604b400    8604b400    00000200   00000200    r-x .vecs
89000000    89000000    001026d4   00000000    rw-
  89000000    89000000    001026d4   00000000    rw- .far.1
891026e0    891026e0    00000020   00000020    r--
  891026e0    891026e0    00000020   00000020    r-- .const.1
89102700    89102700    00006ee8   00000000    rw-
  89102700    89102700    00006ee8   00000000    rw- .far.2
891095f0    891095f0    00000803   00000000    rw-
  891095f0    891095f0    00000803   00000000    rw- .far.3
89109e00    89109e00    000000d8   00000000    rw-
  89109e00    89109e00    000000d8   00000000    rw- .far.4
89109ee0    89109ee0    00087000   00000000    rw-
  89109ee0    89109ee0    00087000   00000000    rw- .ddrdata
89190ee0    89190ee0    00009c2e   00009c2e    r--
  89190ee0    89190ee0    00009c2e   00009c2e    r-- .const.2
8919ab10    8919ab10    000012b8   000012b8    rw-
  8919ab10    8919ab10    000012b8   000012b8    rw- .fardata.1
8919bdd0    8919bdd0    00000018   00000018    rw-
  8919bdd0    8919bdd0    00000018   00000018    rw- .fardata.2
8919bdf0    8919bdf0    00000017   00000017    rw-
  8919bdf0    8919bdf0    00000017   00000017    rw- .fardata.3
8919be10    8919be10    00000017   00000017    rw-
  8919be10    8919be10    00000017   00000017    rw- .fardata.4
8919be30    8919be30    00000014   00000014    rw-
  8919be30    8919be30    00000014   00000014    rw- .fardata.5
8919be50    8919be50    00000018   00000018    rw-
  8919be50    8919be50    00000018   00000018    rw- .fardata.6
8919be70    8919be70    00000008   00000008    rw-
  8919be70    8919be70    00000008   00000008    rw- .fardata.7
8919be80    8919be80    00000008   00000008    rw-
  8919be80    8919be80    00000008   00000008    rw- .fardata.8
8919be90    8919be90    00000005   00000005    rw-
  8919be90    8919be90    00000005   00000005    rw- .fardata.9
8919bea0    8919bea0    00000005   00000005    rw-
  8919bea0    8919bea0    00000005   00000005    rw- .fardata.10
8919beb0    8919beb0    00000004   00000004    rw-
  8919beb0    8919beb0    00000004   00000004    rw- .fardata.11
8919bec0    8919bec0    00000004   00000004    rw-
  8919bec0    8919bec0    00000004   00000004    rw- .fardata.12
8919bed0    8919bed0    00000004   00000004    rw-
  8919bed0    8919bed0    00000004   00000004    rw- .fardata.13
8919bee0    8919bee0    00000004   00000004    rw-
  8919bee0    8919bee0    00000004   00000004    rw- .fardata.14
8919bef0    8919bef0    00000004   00000004    rw-
  8919bef0    8919bef0    00000004   00000004    rw- .fardata.15
8919bf00    8919bf00    00000004   00000004    rw-
  8919bf00    8919bf00    00000004   00000004    rw- .fardata.16
8919bf10    8919bf10    00000004   00000004    rw-
  8919bf10    8919bf10    00000004   00000004    rw- .fardata.17
8919bf20    8919bf20    00000004   00000004    rw-
  8919bf20    8919bf20    00000004   00000004    rw- .fardata.18
8919bf30    8919bf30    00000004   00000004    rw-
  8919bf30    8919bf30    00000004   00000004    rw- .fardata.19
8919bf40    8919bf40    00000004   00000004    rw-
  8919bf40    8919bf40    00000004   00000004    rw- .fardata.20
8919bf50    8919bf50    00000004   00000004    rw-
  8919bf50    8919bf50    00000004   00000004    rw- .fardata.21
8919bf60    8919bf60    00000004   00000004    rw-
  8919bf60    8919bf60    00000004   00000004    rw- .fardata.22
8919bf70    8919bf70    00000004   00000004    rw-
  8919bf70    8919bf70    00000004   00000004    rw- .fardata.23
8919bf80    8919bf80    00000004   00000004    rw-
  8919bf80    8919bf80    00000004   00000004    rw- .fardata.24
8919bf90    8919bf90    00000004   00000004    rw-
  8919bf90    8919bf90    00000004   00000004    rw- .fardata.25
8919bfa0    8919bfa0    00000004   00000004    rw-
  8919bfa0    8919bfa0    00000004   00000004    rw- .fardata.26
8919bfb0    8919bfb0    00000004   00000004    rw-
  8919bfb0    8919bfb0    00000004   00000004    rw- .fardata.27
8919bfc0    8919bfc0    00000004   00000004    rw-
  8919bfc0    8919bfc0    00000004   00000004    rw- .fardata.28
8919bfd0    8919bfd0    00000004   00000004    rw-
  8919bfd0    8919bfd0    00000004   00000004    rw- .fardata.29
8919bfe0    8919bfe0    00000004   00000004    rw-
  8919bfe0    8919bfe0    00000004   00000004    rw- .fardata.30
8919bff0    8919bff0    00000004   00000004    rw-
  8919bff0    8919bff0    00000004   00000004    rw- .fardata.31
8919c000    8919c000    00000004   00000004    rw-
  8919c000    8919c000    00000004   00000004    rw- .fardata.32
8919c010    8919c010    00000004   00000004    rw-
  8919c010    8919c010    00000004   00000004    rw- .fardata.33
8919c020    8919c020    00000004   00000004    rw-
  8919c020    8919c020    00000004   00000004    rw- .fardata.34
8919c030    8919c030    00000004   00000004    rw-
  8919c030    8919c030    00000004   00000004    rw- .fardata.35
8919c040    8919c040    00000004   00000004    rw-
  8919c040    8919c040    00000004   00000004    rw- .fardata.36
8919c050    8919c050    00000004   00000004    rw-
  8919c050    8919c050    00000004   00000004    rw- .fardata.37
8919c060    8919c060    00000004   00000004    rw-
  8919c060    8919c060    00000004   00000004    rw- .fardata.38
8919c070    8919c070    00000004   00000004    rw-
  8919c070    8919c070    00000004   00000004    rw- .fardata.39
8919c080    8919c080    00000004   00000004    rw-
  8919c080    8919c080    00000004   00000004    rw- .fardata.40
8919c090    8919c090    00000004   00000004    rw-
  8919c090    8919c090    00000004   00000004    rw- .fardata.41
8919c0a0    8919c0a0    00000004   00000004    rw-
  8919c0a0    8919c0a0    00000004   00000004    rw- .fardata.42
8919c0b0    8919c0b0    00000004   00000004    rw-
  8919c0b0    8919c0b0    00000004   00000004    rw- .fardata.43
8919c0c0    8919c0c0    00000004   00000004    rw-
  8919c0c0    8919c0c0    00000004   00000004    rw- .fardata.44
8919c0d0    8919c0d0    00000004   00000004    rw-
  8919c0d0    8919c0d0    00000004   00000004    rw- .fardata.45
8919c0e0    8919c0e0    00000004   00000004    rw-
  8919c0e0    8919c0e0    00000004   00000004    rw- .fardata.46
8919c0f0    8919c0f0    00000004   00000004    rw-
  8919c0f0    8919c0f0    00000004   00000004    rw- .fardata.47
8919c100    8919c100    00000004   00000004    rw-
  8919c100    8919c100    00000004   00000004    rw- .fardata.48
8919c110    8919c110    00000004   00000004    rw-
  8919c110    8919c110    00000004   00000004    rw- .fardata.49
8919c120    8919c120    00000004   00000004    rw-
  8919c120    8919c120    00000004   00000004    rw- .fardata.50
8919c130    8919c130    00000004   00000004    rw-
  8919c130    8919c130    00000004   00000004    rw- .fardata.51
8919c140    8919c140    00000004   00000004    rw-
  8919c140    8919c140    00000004   00000004    rw- .fardata.52
8919c150    8919c150    00000004   00000004    rw-
  8919c150    8919c150    00000004   00000004    rw- .fardata.53
8919c160    8919c160    00000004   00000004    rw-
  8919c160    8919c160    00000004   00000004    rw- .fardata.54
8919c170    8919c170    00000004   00000004    rw-
  8919c170    8919c170    00000004   00000004    rw- .fardata.55
8919c180    8919c180    00000004   00000004    rw-
  8919c180    8919c180    00000004   00000004    rw- .fardata.56
8919c190    8919c190    00000004   00000004    rw-
  8919c190    8919c190    00000004   00000004    rw- .fardata.57
8919c1a0    8919c1a0    00000004   00000004    rw-
  8919c1a0    8919c1a0    00000004   00000004    rw- .fardata.58
8919c1b0    8919c1b0    00000004   00000004    rw-
  8919c1b0    8919c1b0    00000004   00000004    rw- .fardata.59
8919c1c0    8919c1c0    00000004   00000004    rw-
  8919c1c0    8919c1c0    00000004   00000004    rw- .fardata.60
8919c1d0    8919c1d0    00000004   00000004    rw-
  8919c1d0    8919c1d0    00000004   00000004    rw- .fardata.61
8919c1e0    8919c1e0    00000004   00000004    rw-
  8919c1e0    8919c1e0    00000004   00000004    rw- .fardata.62
8919c1f0    8919c1f0    00000004   00000004    rw-
  8919c1f0    8919c1f0    00000004   00000004    rw- .fardata.63
8919c200    8919c200    00000004   00000004    rw-
  8919c200    8919c200    00000004   00000004    rw- .fardata.64
8919c210    8919c210    00000004   00000004    rw-
  8919c210    8919c210    00000004   00000004    rw- .fardata.65
8919c220    8919c220    00000004   00000004    rw-
  8919c220    8919c220    00000004   00000004    rw- .fardata.66
8919c230    8919c230    00000004   00000004    rw-
  8919c230    8919c230    00000004   00000004    rw- .fardata.67
8919c240    8919c240    00000004   00000004    rw-
  8919c240    8919c240    00000004   00000004    rw- .fardata.68
8919c250    8919c250    00000004   00000004    rw-
  8919c250    8919c250    00000004   00000004    rw- .fardata.69
8919c260    8919c260    00000004   00000004    rw-
  8919c260    8919c260    00000004   00000004    rw- .fardata.70
8919c270    8919c270    00000004   00000004    rw-
  8919c270    8919c270    00000004   00000004    rw- .fardata.71
8919c280    8919c280    00000004   00000004    rw-
  8919c280    8919c280    00000004   00000004    rw- .fardata.72
8919c290    8919c290    00000004   00000004    rw-
  8919c290    8919c290    00000004   00000004    rw- .fardata.73
8919c2a0    8919c2a0    00000004   00000004    rw-
  8919c2a0    8919c2a0    00000004   00000004    rw- .fardata.74
8919c2b0    8919c2b0    00000004   00000004    rw-
  8919c2b0    8919c2b0    00000004   00000004    rw- .fardata.75
8919c2c0    8919c2c0    00000004   00000004    rw-
  8919c2c0    8919c2c0    00000004   00000004    rw- .fardata.76
8919c2d0    8919c2d0    00000004   00000004    rw-
  8919c2d0    8919c2d0    00000004   00000004    rw- .fardata.77
8919c2e0    8919c2e0    00000001   00000001    rw-
  8919c2e0    8919c2e0    00000001   00000001    rw- .fardata.78
8919c2f0    8919c2f0    00000001   00000001    rw-
  8919c2f0    8919c2f0    00000001   00000001    rw- .fardata.79
8919c2f4    8919c2f4    000007ac   000007ac    r--
  8919c2f4    8919c2f4    000007ac   000007ac    r-- .switch
8919caa0    8919caa0    0000013f   00000000    rw-
  8919caa0    8919caa0    00000120   00000000    rw- .cio
  8919cbc0    8919cbc0    0000001f   00000000    rw- .bss
8919cbe0    8919cbe0    00000070   00000070    rw-
  8919cbe0    8919cbe0    00000070   00000070    rw- .neardata
8919cc50    8919cc50    00000010   00000010    r--
  8919cc50    8919cc50    00000010   00000010    r-- .rodata
8919cc60    8919cc60    00001290   00001290    r--
  8919cc60    8919cc60    00001290   00001290    r-- .cinit


SECTION ALLOCATION MAP

 output                                  attributes/
section   page    origin      length       input sections
--------  ----  ----------  ----------   ----------------
.init_array 
*          0    89000000    00000000     UNINITIALIZED

.dataL2.1 
*          0    00082000    0002f0e8     UNINITIALIZED
                  00082000    0002f0e8     ModMgr.obj (.dataL2)

.dataL2.2 
*          0    000b10f0    0000008c     UNINITIALIZED
                  000b10f0    0000008c     GenUtil.lib : FIFO.obj (.dataL2)

.heap_ram 
*          0    81000000    00a53090     
                  81000000    00a00020     HeapMem.obj (.heap_ram:uninit) [fill = 0]
                  81a00020    00053070     HeapMem.obj (.heap_ram:init)

.stack     0    81a53090    00002000     UNINITIALIZED
                  81a53090    00000008     boot.ae66 : boot.oe66 (.stack)
                  81a53098    00001ff8     --HOLE--

.text      0    86000000    00044580     
                  86000000    000177c0     L1Manager.lib : GSMConfig.obj (.text)
                  860177c0    00004f00     CmdIfLib.lib : CmdPkt.obj (.text)
                  8601c6c0    000025e0     delcom_gsm_L1_modules_6400+_eabi.lib : ctrl_fcch_rcv.obj (.text)
                  8601eca0    000021e0     GenUtil.lib : FIFO.obj (.text)
                  86020e80    00001480     delcom_gsm_L1_modules_6400+_eabi.lib : tch_afs_decode_bits.obj (.text)
                  86022300    00000ec0     GsmUtil.lib : TDFrmTbl.obj (.text)
                  860231c0    00000d40     delcom_gsm_L1_modules_6400+_eabi.lib : generic_conv_decoder.obj (.text)
                  86023f00    00000d20                                          : gmsk_eq16_mlse_demod_sub2.obj (.text)
                  86024c20    00000d20                                          : tch_afs_detect_frametype.obj (.text)
                  86025940    00000c20                                          : tch_fs_decode_bits.obj (.text)
                  86026560    00000ae0                                          : tch_afs_decode_inband_data.obj (.text)
                  86027040    00000a40                                          : gmsk_equalize16.obj (.text)
                  86027a80    00000a20                                          : conv_decoder_rsc_G46G56G66G66.obj (.text)
                  860284a0    000009a0     ti.targets.rts6000.ae66 : System.oe66 (.text:xdc_runtime_System_doPrint__I)
                  86028e40    00000980     delcom_gsm_L1_modules_6400+_eabi.lib : conv_decoder_rsc_G46G46G56G66G66.obj (.text)
                  860297c0    00000920                                          : conv_decoder_rsc_G44G54G64.obj (.text)
                  8602a0e0    00000820     GsmUtil.lib : L1FEC.obj (.text)
                  8602a900    000007c0                 : TDFrm.obj (.text)
                  8602b0c0    000007a0                 : GSMTime.obj (.text)
                  8602b860    00000780     delcom_gsm_L1_modules_6400+_eabi.lib : fire_dec.obj (.text)
                  8602bfe0    00000780     sysbios.lib : BIOS.obj (.text:ti_sysbios_family_c64p_Exception_handler__I)
                  8602c760    00000720     delcom_gsm_L1_modules_6400+_eabi.lib : tch_fs_encode_bits.obj (.text)
                  8602ce80    00000660     sysbios.lib : BIOS.obj (.text:ti_sysbios_heaps_HeapMem_free__E)
                  8602d4e0    00000620                 : BIOS.obj (.text:ti_sysbios_heaps_HeapMem_alloc__E)
                  8602db00    000005c0     rts6600_elf.lib : divd.obj (.text:__c6xabi_divd)
                  8602e0c0    000005c0                     : _printfi.obj (.text:_getarg_diouxp)
                  8602e680    000005a0     sysbios.lib : BIOS.obj (.text:ti_sysbios_timers_timer64_Timer_Module_startup__F)
                  8602ec20    00000500                 : BIOS.obj (.text:ti_sysbios_knl_Task_Instance_finalize__F)
                  8602f120    00000480     rts6600_elf.lib : _printfi.obj (.text:_setfield)
                  8602f5a0    00000480     delcom_gsm_L1_modules_6400+_eabi.lib : comm_math.obj (.text)
                  8602fa20    00000480                                          : tch_afs_onset_rem_fec.obj (.text)
                  8602fea0    00000480     sysbios.lib : BIOS.obj (.text:ti_sysbios_knl_Task_Module_startup__F)
                  86030320    00000460     rts6600_elf.lib : _printfi.obj (.text:_printfi)
                  86030780    00000440     delcom_gsm_L1_modules_6400+_eabi.lib : conv_decoder_rsc_G13G23G33G33.obj (.text)
                  86030bc0    00000420                                          : conv_decoder_rsc_G13G13G23G33G33.obj (.text)
                  86030fe0    00000420                                          : conv_decoder_rsc_G13G23G33.obj (.text)
                  86031400    00000400     sysbios.lib : BIOS.obj (.text:ti_sysbios_knl_Semaphore_pend__E)
                  86031800    00000400     TRS_SYSBIOS_pe66.oe66 (.text:xdc_runtime_uart_writeExtend__I)
                  86031c00    000003e0     delcom_gsm_L1_modules_6400+_eabi.lib : conv_decoder_rsc_G00G10.obj (.text)
                  86031fe0    000003c0     sysbios.lib : BIOS.obj (.text:ti_sysbios_knl_Swi_schedule__I)
                  860323a0    000003c0                 : BIOS.obj (.text:ti_sysbios_knl_Task_Instance_init__F)
                  86032760    000003c0                 : BIOS.obj (.text:ti_sysbios_knl_Task_setPri__E)
                  86032b20    00000360     delcom_gsm_L1_modules_6400+_eabi.lib : gmsk_agc.obj (.text)
                  86032e80    00000340     sysbios.lib : BIOS.obj (.text:ti_sysbios_knl_Swi_restoreHwi__E)
                  860331c0    00000320     delcom_gsm_L1_modules_6400+_eabi.lib : gmsk_eq16_chan_sounder_sub1_rach_c64x.obj (.text)
                  860334e0    00000320                                          : gmsk_eq16_chan_sounder_sub2_c64x.obj (.text)
                  86033800    00000300                                          : fire_enc.obj (.text)
                  86033b00    00000300     rts6600_elf.lib : fputs.obj (.text:fputs)
                  86033e00    00000300     sysbios.lib : BIOS.obj (.text:ti_sysbios_family_c64p_Hwi_dispatchC__I)
                  86034100    000002e0     GSML1.lib : beagle_setup.obj (.text)
                  860343e0    000002e0     rts6600_elf.lib : _printfi.obj (.text:_pproc_fwp)
                  860346c0    000002c0                     : _printfi.obj (.text:_pproc_fge)
                  86034980    000002a0     delcom_gsm_L1_modules_6400+_eabi.lib : dbutils.obj (.text)
                  86034c20    000002a0     rts6600_elf.lib : _printfi.obj (.text:fcvt)
                  86034ec0    000002a0     sysbios.lib : BIOS.obj (.text:ti_sysbios_knl_Clock_workFunc__E)
                  86035160    000002a0                 : BIOS.obj (.text:ti_sysbios_knl_Task_sleep__E)
                  86035400    00000280                 : BIOS.obj (.text:deviceConfig$44)
                  86035680    00000280     rts6600_elf.lib : _printfi.obj (.text:ecvt)
                  86035900    00000280     sysbios.lib : BIOS.obj (.text:ti_sysbios_knl_Clock_Instance_init__F)
                  86035b80    00000280                 : BIOS.obj (.text:ti_sysbios_knl_Task_exit__E)
                  86035e00    00000280     ti.targets.rts6000.ae66 : Core-mem.oe66 (.text:xdc_runtime_Core_createObject__I)
                  86036080    00000280                             : Error.oe66 (.text:xdc_runtime_Error_raiseX__F)
                  86036300    00000260                             : Startup.oe66 (.text:xdc_runtime_Startup_startMods__I)
                  86036560    00000240     rts6600_elf.lib : imath64.obj (.text:__c6xabi_divull)
                  860367a0    00000240                     : _printfi.obj (.text:_pconv_e)
                  860369e0    00000240                     : _printfi.obj (.text:_pproc_diouxp)
                  86036c20    00000240     delcom_gsm_L1_modules_6400+_eabi.lib : gmsk_eq16_chan_sounder.obj (.text)
                  86036e60    00000240     sysbios.lib : BIOS.obj (.text:ti_sysbios_family_c64p_Exception_internalHandler__I)
                  860370a0    00000240     ti.targets.rts6000.ae66 : LoggerBuf.oe66 (.text:xdc_runtime_LoggerBuf_write8__F)
                  860372e0    00000220     rts6600_elf.lib : _printfi.obj (.text:_pproc_str)
                  86037500    00000220     delcom_gsm_L1_modules_6400+_eabi.lib : gmsk_eq16_mlse_demod.obj (.text)
                  86037720    00000220     sysbios.lib : BIOS.obj (.text:ti_sysbios_knl_Task_schedule__I)
                  86037940    00000220                 : BIOS.obj (.text:ti_sysbios_knl_Task_startup__E)
                  86037b60    00000200     rts6600_elf.lib : _printfi.obj (.text:_pconv_g)
                  86037d60    00000200     sysbios.lib : c64p_Hwi_disp_always.obj (.text:_ti_sysbios_family_c64p_Hwi_dispatchAlways)
                  86037f60    000001e0     GsmUtil.lib : Clock.obj (.text)
                  86038140    000001e0     sysbios.lib : BIOS.obj (.text:ti_sysbios_knl_Task_postInit__I)
                  86038320    000001e0                 : BIOS.obj (.text:ti_sysbios_timers_timer64_Timer_getFreq__E)
                  86038500    000001c0     rts6600_elf.lib : _printfi.obj (.text:_mcpy)
                  860386c0    000001c0     delcom_gsm_L1_modules_6400+_eabi.lib : assemble_dummy_burst_raw.obj (.text)
                  86038880    000001c0                                          : pmuldiv.obj (.text)
                  86038a40    000001c0                                          : puncture_general.obj (.text)
                  86038c00    000001c0     sysbios.lib : BIOS.obj (.text:ti_sysbios_knl_Task_checkStacks__E)
                  86038dc0    000001c0                 : BIOS.obj (.text:ti_sysbios_timers_timer64_Timer_setPeriodMicroSecs__E)
                  86038f80    000001a0     rts6600_elf.lib : trgdrv.obj (.text:HOSTrename)
                  86039120    000001a0                     : imath40.obj (.text:__c6xabi_divul)
                  860392c0    000001a0     delcom_gsm_L1_modules_6400+_eabi.lib : assemble_sync_burst_raw.obj (.text)
                  86039460    000001a0                                          : conv_encoder.obj (.text)
                  86039600    000001a0                                          : gsmfr_dtx_sfd.obj (.text)
                  860397a0    000001a0     rts6600_elf.lib : log.obj (.text:log)
                  86039940    000001a0     sysbios.lib : BIOS.obj (.text:ti_sysbios_gates_GateMutex_enter__E)
                  86039ae0    000001a0                 : BIOS.obj (.text:ti_sysbios_timers_timer64_Timer_start__E)
                  86039c80    000001a0     ti.targets.rts6000.ae66 : LoggerBuf.oe66 (.text:xdc_runtime_LoggerBuf_write4__F)
                  86039e20    00000180     rts6600_elf.lib : copy_decompress_rle.obj (.text:__TI_decompress_rle_core)
                  86039fa0    00000180     delcom_gsm_L1_modules_6400+_eabi.lib : assemble_normal_burst_raw.obj (.text)
                  8603a120    00000180                                          : ctrl_prach_ext_rem_fec.obj (.text)
                  8603a2a0    00000180                                          : gmsk_eq16_snr_calc_subs.obj (.text)
                  8603a420    00000180     rts6600_elf.lib : setvbuf.obj (.text:setvbuf)
                  8603a5a0    00000180     sysbios.lib : c64p_Exception_asm.obj (.text)
                  8603a720    00000180                 : BIOS.obj (.text:ti_sysbios_heaps_HeapMem_Instance_init__F)
                  8603a8a0    00000180                 : BIOS.obj (.text:ti_sysbios_knl_Semaphore_post__E)
                  8603aa20    00000180                 : BIOS.obj (.text:ti_sysbios_knl_Task_unblockI__E)
                  8603aba0    00000180     ti.targets.rts6000.ae66 : Text.oe66 (.text:xdc_runtime_Text_putSite__F)
                  8603ad20    00000160     GsmUtil.lib : Burst.obj (.text)
                  8603ae80    00000160     delcom_gsm_L1_modules_6400+_eabi.lib : ctrl_decode_bits.obj (.text)
                  8603afe0    00000140     boot.ae66 : autoinit.oe66 (.text:_auto_init_elf)
                  8603b120    00000140     rts6600_elf.lib : _printfi.obj (.text:_pproc_fflags)
                  8603b260    00000140     delcom_gsm_L1_modules_6400+_eabi.lib : assemble_access_burst_raw.obj (.text)
                  8603b3a0    00000140                                          : ctrl_prach_ext_add_fec.obj (.text)
                  8603b4e0    00000140     rts6600_elf.lib : fputc.obj (.text:fputc)
                  8603b620    00000140                     : lowlev.obj (.text:getdevice)
                  8603b760    00000140     sysbios.lib : BIOS.obj (.text:ti_sysbios_family_c64p_Hwi_Module_startup__F)
                  8603b8a0    00000140                 : BIOS.obj (.text:ti_sysbios_family_c66_Cache_Module_startup__F)
                  8603b9e0    00000140                 : BIOS.obj (.text:ti_sysbios_knl_Clock_Instance_finalize__F)
                  8603bb20    00000140                 : BIOS.obj (.text:ti_sysbios_knl_Semaphore_Instance_init__F)
                  8603bc60    00000140                 : BIOS.obj (.text:ti_sysbios_knl_Swi_post__E)
                  8603bda0    00000140                 : BIOS.obj (.text:ti_sysbios_knl_Task_blockI__E)
                  8603bee0    00000140                 : BIOS.obj (.text:ti_sysbios_knl_Task_yield__E)
                  8603c020    00000120     rts6600_elf.lib : imath64.obj (.text:__c6xabi_divlli)
                  8603c140    00000120                     : _printfi.obj (.text:_ltostr)
                  8603c260    00000120                     : _io_perm.obj (.text:_wrt_ok)
                  8603c380    00000120     delcom_gsm_L1_modules_6400+_eabi.lib : ctrl_encode_bits.obj (.text)
                  8603c4a0    00000120                                          : ctrl_rach_decode_bits.obj (.text)
                  8603c5c0    00000120                                          : gmsk_eq16_chan_sounder_sub1_c64x.obj (.text)
                  8603c6e0    00000120     rts6600_elf.lib : fclose.obj (.text:fclose)
                  8603c800    00000120     sysbios.lib : BIOS.obj (.text:rtsUnlock$0)
                  8603c920    00000120     ti.targets.rts6000.ae66 : LoggerBuf.oe66 (.text:xdc_runtime_LoggerBuf_setFilterLevel__F)
                  8603ca40    00000120                             : Text.oe66 (.text:xdc_runtime_Text_putLab__F)
                  8603cb60    00000100     rts6600_elf.lib : trgdrv.obj (.text:HOSTlseek)
                  8603cc60    00000100     delcom_gsm_L1_modules_6400+_eabi.lib : diag_intlv.obj (.text)
                  8603cd60    00000100                                          : gsm_amr_speech_rearrange_bits.obj (.text)
                  8603ce60    00000100                                          : gsmefr_dtx_sfd.obj (.text)
                  8603cf60    00000100     rts6600_elf.lib : frexp.obj (.text:frexp)
                  8603d060    00000100     sysbios.lib : BIOS.obj (.text:initDevice$44)
                  8603d160    00000100                 : BIOS.obj (.text:ti_sysbios_knl_Clock_startI__E)
                  8603d260    00000100     ti.targets.rts6000.ae66 : Core-mem.oe66 (.text:xdc_runtime_Core_deleteObject__I)
                  8603d360    00000100                             : LoggerBuf.oe66 (.text:xdc_runtime_LoggerBuf_getFilterLevel__F)
                  8603d460    00000100                             : Startup.oe66 (.text:xdc_runtime_Startup_exec__F)
                  8603d560    00000100                             : Text.oe66 (.text:xdc_runtime_Text_putMod__F)
                  8603d660    00000100                             : Text.oe66 (.text:xdc_runtime_Text_visitRope2__I)
                  8603d760    000000e0     rts6600_elf.lib : trgdrv.obj (.text:HOSTopen)
                  8603d840    000000e0                     : divi.obj (.text:__divi)
                  8603d920    000000e0                     : _printfi.obj (.text:_div)
                  8603da00    000000e0                     : atoi.obj (.text:atoi)
                  8603dae0    000000e0                     : lowlev.obj (.text:close)
                  8603dbc0    000000e0                     : copy_zero_init.obj (.text:decompress:ZI:__TI_zero_init)
                  8603dca0    000000e0     delcom_gsm_L1_modules_6400+_eabi.lib : ctrl_sch_decode_bits.obj (.text)
                  8603dd80    000000e0                                          : gsm_freq_hopping.obj (.text)
                  8603de60    000000e0     rts6600_elf.lib : exit.obj (.text:exit)
                  8603df40    000000e0                     : ltoa.obj (.text:ltoa)
                  8603e020    000000e0                     : memset.obj (.text:memset)
                  8603e100    000000e0     sysbios.lib : BIOS.obj (.text:ti_sysbios_knl_Clock_start__E)
                  8603e1e0    000000e0                 : BIOS.obj (.text:ti_sysbios_timers_timer64_Timer_startup__E)
                  8603e2c0    000000e0     ti.targets.rts6000.ae66 : Error.oe66 (.text:xdc_runtime_Error_print__F)
                  8603e3a0    000000e0                             : Memory.oe66 (.text:xdc_runtime_Memory_alloc__F)
                  8603e480    000000c0     rts6600_elf.lib : trgdrv.obj (.text:HOSTread)
                  8603e540    000000c0                     : trgdrv.obj (.text:HOSTunlink)
                  8603e600    000000c0                     : trgdrv.obj (.text:HOSTwrite)
                  8603e6c0    000000c0                     : dtor_list.obj (.text:__cxa_finalize)
                  8603e780    000000c0                     : divu.obj (.text:__divu)
                  8603e840    000000c0                     : remi.obj (.text:__remi)
                  8603e900    000000c0                     : fopen.obj (.text:_cleanup)
                  8603e9c0    000000c0                     : fflush.obj (.text:_doflush)
                  8603ea80    000000c0     delcom_gsm_L1_modules_6400+_eabi.lib : ctrl_rach_add_fec.obj (.text)
                  8603eb40    000000c0                                          : ctrl_rach_encode_bits.obj (.text)
                  8603ec00    000000c0                                          : ctrl_rach_rem_fec.obj (.text)
                  8603ecc0    000000c0                                          : gmsk_eq16_covar_calc.obj (.text)
                  8603ed80    000000c0     rts6600_elf.lib : fseek.obj (.text:fseek)
                  8603ee40    000000c0                     : lowlev.obj (.text:lseek)
                  8603ef00    000000c0     sysbios.lib : BIOS.obj (.text:ti_sysbios_BIOS_errorRaiseHook__I)
                  8603efc0    000000c0                 : BIOS.obj (.text:ti_sysbios_heaps_HeapMem_getStats__E)
                  8603f080    000000c0                 : BIOS.obj (.text:ti_sysbios_knl_Clock_logTick__E)
                  8603f140    000000c0                 : BIOS.obj (.text:ti_sysbios_knl_Idle_loop__E)
                  8603f200    000000c0     TRS_SYSBIOS_pe66.oe66 (.text:ti_sysbios_knl_Task_Object__create__S)
                  8603f2c0    000000c0     sysbios.lib : BIOS.obj (.text:ti_sysbios_timers_timer64_Timer_stop__E)
                  8603f380    000000c0     rts6600_elf.lib : lowlev.obj (.text:write)
                  8603f440    000000c0     ti.targets.rts6000.ae66 : LoggerBuf.oe66 (.text:xdc_runtime_LoggerBuf_Instance_init__F)
                  8603f500    000000c0     TRS_SYSBIOS_pe66.oe66 (.text:xdc_runtime_LoggerBuf_Object__create__S)
                  8603f5c0    000000c0     ti.targets.rts6000.ae66 : System.oe66 (.text:xdc_runtime_System_formatNum__I)
                  8603f680    000000a0     rts6600_elf.lib : trgdrv.obj (.text:HOSTclose)
                  8603f720    000000a0                     : remu.obj (.text:__remu)
                  8603f7c0    000000a0     boot.ae66 : boot.oe66 (.text:_c_int00)
                  8603f860    000000a0     rts6600_elf.lib : _printfi.obj (.text:_ecpy)
                  8603f900    000000a0                     : _printfi.obj (.text:_fcpy)
                  8603f9a0    000000a0                     : _printfi.obj (.text:_pconv_f)
                  8603fa40    000000a0     delcom_gsm_L1_modules_6400+_eabi.lib : crc_enc.obj (.text)
                  8603fae0    000000a0                                          : ctrl_sch_rem_fec.obj (.text)
                  8603fb80    000000a0                                          : gmsk_eq16_mlse_demod_sub1.obj (.text)
                  8603fc20    000000a0                                          : tch_afs_speech10_2_rem_fec.obj (.text)
                  8603fcc0    000000a0                                          : tch_afs_speech12_2_rem_fec.obj (.text)
                  8603fd60    000000a0                                          : tch_afs_speech4_75_rem_fec.obj (.text)
                  8603fe00    000000a0                                          : tch_afs_speech5_15_rem_fec.obj (.text)
                  8603fea0    000000a0                                          : tch_afs_speech5_9_rem_fec.obj (.text)
                  8603ff40    000000a0                                          : tch_afs_speech6_7_rem_fec.obj (.text)
                  8603ffe0    000000a0                                          : tch_afs_speech7_4_rem_fec.obj (.text)
                  86040080    000000a0                                          : tch_afs_speech7_95_rem_fec.obj (.text)
                  86040120    000000a0     rts6600_elf.lib : lowlev.obj (.text:finddevice)
                  860401c0    000000a0                     : memcpy64.obj (.text:memcpy)
                  86040260    000000a0     sysbios.lib : BIOS.obj (.text:ti_sysbios_heaps_HeapMem_init__I)
                  86040300    000000a0     TRS_SYSBIOS_pe66.oe66 (.text:ti_sysbios_knl_Clock_Object__create__S)
                  860403a0    000000a0     ti.targets.rts6000.ae66 : Assert.oe66 (.text:xdc_runtime_Assert_raise__I)
                  86040440    000000a0                             : LoggerBuf.oe66 (.text:xdc_runtime_LoggerBuf_Module_startup__F)
                  860404e0    000000a0     TRS_SYSBIOS_pe66.oe66 (.text:xdc_runtime_LoggerBuf_write8__E)
                  86040580    000000a0     ti.targets.rts6000.ae66 : SysMin.oe66 (.text:xdc_runtime_SysMin_abort__F)
                  86040620    000000a0                             : SysMin.oe66 (.text:xdc_runtime_SysMin_flush__F)
                  860406c0    000000a0     TRS_SYSBIOS_pe66.oe66 (.text:xdc_runtime_SysMin_output__I)
                  86040760    000000a0     ti.targets.rts6000.ae66 : SysMin.oe66 (.text:xdc_runtime_SysMin_putch__F)
                  86040800    00000080     rts6600_elf.lib : dtor_list.obj (.text:_Z11__TI_atexitPFYvPvES_S_)
                  86040880    00000080                     : llshift.obj (.text:__c6xabi_llshl)
                  86040900    00000080     sysbios.lib : c62_TaskSupport_asm.obj (.text:_ti_sysbios_family_c62_TaskSupport_swap__E)
                  86040980    00000080     delcom_gsm_L1_modules_6400+_eabi.lib : assemble_freq_burst_raw.obj (.text)
                  86040a00    00000080                                          : ctrl_rem_fec.obj (.text)
                  86040a80    00000080                                          : ctrl_sch_add_fec.obj (.text)
                  86040b00    00000080                                          : gmsk_eq16_complex_filter.obj (.text)
                  86040b80    00000080                                          : gmsk_eq16_complex_filter_core_c64x.obj (.text)
                  86040c00    00000080     TRS_SYSBIOS_pe66.oe66 (.text:malloc)
                  86040c80    00000080     rts6600_elf.lib : printf.obj (.text:printf)
                  86040d00    00000080                     : trgmsg.obj (.text:readmsg)
                  86040d80    00000080     TRS_SYSBIOS_pe66.oe66 (.text:ti_sysbios_BIOS_exitFunc__I)
                  86040e00    00000080     sysbios.lib : BIOS.obj (.text:ti_sysbios_family_c62_TaskSupport_start__E)
                  86040e80    00000080                 : BIOS.obj (.text:ti_sysbios_family_c64p_Exception_Module_startup__F)
                  86040f00    00000080     TRS_SYSBIOS_pe66.oe66 (.text:ti_sysbios_gates_GateHwi_Object__create__S)
                  86040f80    00000080     TRS_SYSBIOS_pe66.oe66 (.text:ti_sysbios_gates_GateMutex_Object__create__S)
                  86041000    00000080     sysbios.lib : BIOS.obj (.text:ti_sysbios_hal_Hwi_checkStack:ti_sysbios_hal_Hwi_checkStack)
                  86041080    00000080     TRS_SYSBIOS_pe66.oe66 (.text:ti_sysbios_heaps_HeapMem_Object__create__S)
                  86041100    00000080     sysbios.lib : BIOS.obj (.text:ti_sysbios_knl_Clock_Module_startup__F)
                  86041180    00000080     TRS_SYSBIOS_pe66.oe66 (.text:ti_sysbios_knl_Clock_doTick__I)
                  86041200    00000080     sysbios.lib : BIOS.obj (.text:ti_sysbios_knl_Clock_getTicks__E)
                  86041280    00000080     TRS_SYSBIOS_pe66.oe66 (.text:ti_sysbios_knl_Queue_Object__create__S)
                  86041300    00000080     TRS_SYSBIOS_pe66.oe66 (.text:ti_sysbios_knl_Semaphore_Object__create__S)
                  86041380    00000080     sysbios.lib : BIOS.obj (.text:ti_sysbios_knl_Semaphore_pendTimeout__I)
                  86041400    00000080                 : BIOS.obj (.text:ti_sysbios_knl_Swi_startup__E)
                  86041480    00000080                 : BIOS.obj (.text:ti_sysbios_knl_Task_restore__E)
                  86041500    00000080                 : BIOS.obj (.text:ti_sysbios_timers_timer64_Timer_getCount__E)
                  86041580    00000080                 : BIOS.obj (.text:ti_sysbios_timers_timer64_Timer_getPeriod__E)
                  86041600    00000080     rts6600_elf.lib : lowlev.obj (.text:unlink)
                  86041680    00000080     ti.targets.rts6000.ae66 : Core-label.oe66 (.text:xdc_runtime_Core_assignLabel__I)
                  86041700    00000080                             : Core-params.oe66 (.text:xdc_runtime_Core_assignParams__I)
                  86041780    00000080                             : LoggerBuf.oe66 (.text:xdc_runtime_LoggerBuf_filterOutEvent__I)
                  86041800    00000080                             : System.oe66 (.text:xdc_runtime_System_atexit__F)
                  86041880    00000080                             : System.oe66 (.text:xdc_runtime_System_rtsExit__I)
                  86041900    00000080                             : Text.oe66 (.text:xdc_runtime_Text_printVisFxn__I)
                  86041980    00000080                             : Text.oe66 (.text:xdc_runtime_Text_xprintf__I)
                  86041a00    00000060     rts6600_elf.lib : frcmpyd_div.obj (.text:__c6xabi_frcmpyd_div)
                  86041a60    00000060                     : llshift.obj (.text:__c6xabi_llshru)
                  86041ac0    00000060                     : imath64.obj (.text:__c6xabi_remlli)
                  86041b20    00000060                     : imath64.obj (.text:__c6xabi_remull)
                  86041b80    00000060                     : imath64.obj (.text:_subcull)
                  86041be0    00000060     delcom_gsm_L1_modules_6400+_eabi.lib : crc_dec.obj (.text)
                  86041c40    00000060                                          : ctrl_add_fec.obj (.text)
                  86041ca0    00000060                                          : diag_deintlv.obj (.text)
                  86041d00    00000060                                          : merge_payload_buffers.obj (.text)
                  86041d60    00000060                                          : tch_afs_sid_update_rem_fec.obj (.text)
                  86041dc0    00000060     TRS_SYSBIOS_pe66.oe66 (.text:free)
                  86041e20    00000060     rts6600_elf.lib : memccpy.obj (.text:memccpy)
                  86041e80    00000060                     : memmov.obj (.text:memmove)
                  86041ee0    00000060                     : sprintf.obj (.text:sprintf)
                  86041f40    00000060     sysbios.lib : BIOS.obj (.text:ti_sysbios_BIOS_registerRTSLock__I)
                  86041fa0    00000060                 : BIOS.obj (.text:ti_sysbios_gates_GateMutex_Instance_init__F)
                  86042000    00000060                 : BIOS.obj (.text:ti_sysbios_hal_Hwi_initStack:ti_sysbios_hal_Hwi_initStack)
                  86042060    00000060     TRS_SYSBIOS_pe66.oe66 (.text:ti_sysbios_heaps_HeapMem_Object__get__S)
                  860420c0    00000060     TRS_SYSBIOS_pe66.oe66 (.text:ti_sysbios_knl_Queue_Object__get__S)
                  86042120    00000060     sysbios.lib : BIOS.obj (.text:ti_sysbios_knl_Swi_Module_startup__F)
                  86042180    00000060     TRS_SYSBIOS_pe66.oe66 (.text:ti_sysbios_knl_Swi_Object__get__S)
                  860421e0    00000060     TRS_SYSBIOS_pe66.oe66 (.text:ti_sysbios_knl_Task_Object__get__S)
                  86042240    00000060     sysbios.lib : BIOS.obj (.text:ti_sysbios_knl_Task_allBlockedFunction__I)
                  860422a0    00000060                 : BIOS.obj (.text:ti_sysbios_knl_Task_enter__I)
                  86042300    00000060     rts6600_elf.lib : trgmsg.obj (.text:writemsg)
                  86042360    00000060     TRS_SYSBIOS_pe66.oe66 (.text:xdc_runtime_LoggerBuf_Object__get__S)
                  860423c0    00000060     ti.targets.rts6000.ae66 : Memory.oe66 (.text:xdc_runtime_Memory_calloc__F)
                  86042420    00000060                             : SysMin.oe66 (.text:xdc_runtime_SysMin_Module_startup__F)
                  86042480    00000060                             : SysMin.oe66 (.text:xdc_runtime_SysMin_exit__F)
                  860424e0    00000060                             : System.oe66 (.text:xdc_runtime_System_avprintf__F)
                  86042540    00000060                             : System.oe66 (.text:xdc_runtime_System_vprintf__F)
                  860425a0    00000060                             : Text.oe66 (.text:xdc_runtime_Text_cordText__F)
                  86042600    00000040     rts6600_elf.lib : isinf.obj (.text:__c6xabi_isinf)
                  86042640    00000040                     : _printfi.obj (.text:__c6xabi_isnan)
                  86042680    00000040                     : strasg.obj (.text:__strasgi_64plus)
                  860426c0    00000040                     : args_main.obj (.text:_args_main)
                  86042700    00000040                     : sprintf.obj (.text:_outs)
                  86042740    00000040     sysbios.lib : c62_TaskSupport_asm.obj (.text:_ti_sysbios_family_c62_TaskSupport_buildTaskStack)
                  86042780    00000040                 : c64p_Hwi_asm_switch.obj (.text:_ti_sysbios_family_xxx_Hwi_switchToIsrStack)
                  860427c0    00000040     delcom_gsm_L1_modules_6400+_eabi.lib : ctrl_sch_encode_bits.obj (.text)
                  86042800    00000040     rts6600_elf.lib : abs.obj (.text:llabs)
                  86042840    00000040                     : log10.obj (.text:log10)
                  86042880    00000040     sysbios.lib : BIOS.obj (.text:rtsLock$0)
                  860428c0    00000040     TRS_SYSBIOS_pe66.oe66 (.text:ti_sysbios_BIOS_startFunc__I)
                  86042900    00000040     TRS_SYSBIOS_pe66.oe66 (.text:ti_sysbios_family_c64p_Hwi_Module__startupDone__F)
                  86042940    00000040     sysbios.lib : BIOS.obj (.text:ti_sysbios_family_c64p_Hwi_disableInterrupt__E)
                  86042980    00000040                 : BIOS.obj (.text:ti_sysbios_family_c64p_Hwi_enableInterrupt__E)
                  860429c0    00000040     TRS_SYSBIOS_pe66.oe66 (.text:ti_sysbios_gates_GateHwi_Handle__label__S)
                  86042a00    00000040     TRS_SYSBIOS_pe66.oe66 (.text:ti_sysbios_gates_GateHwi_Object__delete__S)
                  86042a40    00000040     TRS_SYSBIOS_pe66.oe66 (.text:ti_sysbios_gates_GateMutex_Handle__label__S)
                  86042a80    00000040     sysbios.lib : BIOS.obj (.text:ti_sysbios_gates_GateMutex_Instance_finalize__F)
                  86042ac0    00000040     TRS_SYSBIOS_pe66.oe66 (.text:ti_sysbios_gates_GateMutex_Object__delete__S)
                  86042b00    00000040     sysbios.lib : BIOS.obj (.text:ti_sysbios_gates_GateMutex_leave__E)
                  86042b40    00000040     TRS_SYSBIOS_pe66.oe66 (.text:ti_sysbios_hal_Timer_Module__startupDone__F)
                  86042b80    00000040     TRS_SYSBIOS_pe66.oe66 (.text:ti_sysbios_heaps_HeapMem_Handle__label__S)
                  86042bc0    00000040     TRS_SYSBIOS_pe66.oe66 (.text:ti_sysbios_heaps_HeapMem_Object__delete__S)
                  86042c00    00000040     TRS_SYSBIOS_pe66.oe66 (.text:ti_sysbios_knl_Clock_Object__destruct__S)
                  86042c40    00000040     TRS_SYSBIOS_pe66.oe66 (.text:ti_sysbios_knl_Clock_Params__init__S)
                  86042c80    00000040     TRS_SYSBIOS_pe66.oe66 (.text:ti_sysbios_knl_Queue_Object__destruct__S)
                  86042cc0    00000040     sysbios.lib : BIOS.obj (.text:ti_sysbios_knl_Semaphore_Instance_finalize__F)
                  86042d00    00000040     TRS_SYSBIOS_pe66.oe66 (.text:ti_sysbios_knl_Semaphore_Object__destruct__S)
                  86042d40    00000040     TRS_SYSBIOS_pe66.oe66 (.text:ti_sysbios_knl_Semaphore_Params__init__S)
                  86042d80    00000040     TRS_SYSBIOS_pe66.oe66 (.text:ti_sysbios_knl_Task_Object__first__S)
                  86042dc0    00000040     TRS_SYSBIOS_pe66.oe66 (.text:ti_sysbios_knl_Task_Object__next__S)
                  86042e00    00000040     TRS_SYSBIOS_pe66.oe66 (.text:ti_sysbios_knl_Task_Params__init__S)
                  86042e40    00000040     sysbios.lib : BIOS.obj (.text:ti_sysbios_knl_Task_sleepTimeout__I)
                  86042e80    00000040     TRS_SYSBIOS_pe66.oe66 (.text:ti_sysbios_timers_timer64_Timer_Module__startupDone__F)
                  86042ec0    00000040     ti.targets.rts6000.ae66 : Error.oe66 (.text:xdc_runtime_Error_check__F)
                  86042f00    00000040                             : Error.oe66 (.text:xdc_runtime_Error_init__F)
                  86042f40    00000040     TRS_SYSBIOS_pe66.oe66 (.text:xdc_runtime_Error_raiseX__E)
                  86042f80    00000040     ti.targets.rts6000.ae66 : Gate.oe66 (.text:xdc_runtime_Gate_leaveSystem__F)
                  86042fc0    00000040     TRS_SYSBIOS_pe66.oe66 (.text:xdc_runtime_IHeap_alloc)
                  86043000    00000040     TRS_SYSBIOS_pe66.oe66 (.text:xdc_runtime_IHeap_free)
                  86043040    00000040     TRS_SYSBIOS_pe66.oe66 (.text:xdc_runtime_LoggerBuf_Handle__label__S)
                  86043080    00000040     ti.targets.rts6000.ae66 : LoggerBuf.oe66 (.text:xdc_runtime_LoggerBuf_Instance_finalize__F)
                  860430c0    00000040     TRS_SYSBIOS_pe66.oe66 (.text:xdc_runtime_LoggerBuf_Object__delete__S)
                  86043100    00000040     ti.targets.rts6000.ae66 : LoggerBuf.oe66 (.text:xdc_runtime_LoggerBuf_write0__F)
                  86043140    00000040     TRS_SYSBIOS_pe66.oe66 (.text:xdc_runtime_LoggerBuf_write1__E)
                  86043180    00000040     ti.targets.rts6000.ae66 : LoggerBuf.oe66 (.text:xdc_runtime_LoggerBuf_write1__F)
                  860431c0    00000040     TRS_SYSBIOS_pe66.oe66 (.text:xdc_runtime_LoggerBuf_write2__E)
                  86043200    00000040     ti.targets.rts6000.ae66 : LoggerBuf.oe66 (.text:xdc_runtime_LoggerBuf_write2__F)
                  86043240    00000040     TRS_SYSBIOS_pe66.oe66 (.text:xdc_runtime_LoggerBuf_write4__E)
                  86043280    00000040     ti.targets.rts6000.ae66 : Memory.oe66 (.text:xdc_runtime_Memory_free__F)
                  860432c0    00000040                             : Registry.oe66 (.text:xdc_runtime_Registry_findById__F)
                  86043300    00000040     TRS_SYSBIOS_pe66.oe66 (.text:xdc_runtime_Startup_exec__I)
                  86043340    00000040     ti.targets.rts6000.ae66 : System.oe66 (.text:xdc_runtime_System_abort__F)
                  86043380    00000040     TRS_SYSBIOS_pe66.oe66 (.text:xdc_runtime_System_aprintf__E)
                  860433c0    00000040     TRS_SYSBIOS_pe66.oe66 (.text:xdc_runtime_uart_write__E)
                  86043400    00000040     ti.targets.rts6000.ae66 : Text.oe66 (.text:xdc_runtime_Text_ropeText__F)
                  86043440    00000040     TRS_SYSBIOS_pe66.oe66 (.text:xdc_runtime_Text_visitRope__I)
                  86043480    00000020     ModMgr.obj (.text)
                  860434a0    00000020     rts6600_elf.lib : negll.obj (.text:__c6xabi_negll)
                  860434c0    00000020                     : dtor_list.obj (.text:__cxa_atexit)
                  860434e0    00000020                     : dtor_list.obj (.text:__cxa_ia64_exit)
                  86043500    00000020     ti.targets.rts6000.ae66 : xdc_noinit.oe66 (.text:__xdc__init)
                  86043520    00000020     rts6600_elf.lib : _lock.obj (.text:_nop)
                  86043540    00000020                     : printf.obj (.text:_outc)
                  86043560    00000020                     : sprintf.obj (.text:_outc)
                  86043580    00000020                     : printf.obj (.text:_outs)
                  860435a0    00000020                     : _lock.obj (.text:_register_lock)
                  860435c0    00000020                     : _lock.obj (.text:_register_unlock)
                  860435e0    00000020     sysbios.lib : c62_TaskSupport_asm.obj (.text:_ti_sysbios_family_c62_TaskSupport_glue)
                  86043600    00000020                 : c64p_Hwi_asm_switch.obj (.text:_ti_sysbios_family_xxx_Hwi_switchToTaskStack)
                  86043620    00000020     rts6600_elf.lib : exit.obj (.text:abort)
                  86043640    00000020                     : dtor_list.obj (.text:atexit)
                  86043660    00000020                     : copy_decompress_none.obj (.text:decompress:none:__TI_decompress_none)
                  86043680    00000020                     : copy_decompress_rle.obj (.text:decompress:rle24:__TI_decompress_rle24)
                  860436a0    00000020     delcom_gsm_L1_modules_6400+_eabi.lib : rect_deintlv.obj (.text)
                  860436c0    00000020                                          : rect_intlv.obj (.text)
                  860436e0    00000020     sysbios.lib : BIOS.obj (.text:nullFunc$0)
                  86043700    00000020     TRS_SYSBIOS_pe66.oe66 (.text:ti_sysbios_BIOS_RtsGateProxy_enter__E)
                  86043720    00000020     TRS_SYSBIOS_pe66.oe66 (.text:ti_sysbios_BIOS_RtsGateProxy_leave__E)
                  86043740    00000020     sysbios.lib : BIOS.obj (.text:ti_sysbios_BIOS_setThreadType__E)
                  86043760    00000020     TRS_SYSBIOS_pe66.oe66 (.text:ti_sysbios_family_c62_TaskSupport_Module__startupDone__S)
                  86043780    00000020     sysbios.lib : BIOS.obj (.text:ti_sysbios_family_c62_TaskSupport_checkStack__E)
                  860437a0    00000020                 : BIOS.obj (.text:ti_sysbios_family_c62_TaskSupport_getStackAlignment__E)
                  860437c0    00000020     TRS_SYSBIOS_pe66.oe66 (.text:ti_sysbios_family_c64p_Exception_Module_startup__E)
                  860437e0    00000020     TRS_SYSBIOS_pe66.oe66 (.text:ti_sysbios_family_c64p_Hwi_Module__startupDone__S)
                  86043800    00000020     TRS_SYSBIOS_pe66.oe66 (.text:ti_sysbios_family_c64p_Hwi_Module_startup__E)
                  86043820    00000020     sysbios.lib : BIOS.obj (.text:ti_sysbios_family_c64p_Hwi_clearInterrupt__E)
                  86043840    00000020                 : BIOS.obj (.text:ti_sysbios_family_c64p_Hwi_startup__E)
                  86043860    00000020                 : BIOS.obj (.text:ti_sysbios_family_c64p_Hwi_switchFromBootStack__E)
                  86043880    00000020     TRS_SYSBIOS_pe66.oe66 (.text:ti_sysbios_family_c64p_TimestampProvider_Module_startup__E)
                  860438a0    00000020     sysbios.lib : BIOS.obj (.text:ti_sysbios_family_c64p_TimestampProvider_Module_startup__F)
                  860438c0    00000020                 : BIOS.obj (.text:ti_sysbios_family_c64p_TimestampProvider_get64__E)
                  860438e0    00000020                 : BIOS.obj (.text:ti_sysbios_family_c64p_tci6488_TimerSupport_enable__E)
                  86043900    00000020     TRS_SYSBIOS_pe66.oe66 (.text:ti_sysbios_family_c66_Cache_Module_startup__E)
                  86043920    00000020     sysbios.lib : BIOS.obj (.text:ti_sysbios_gates_GateHwi_Instance_init__F)
                  86043940    00000020                 : BIOS.obj (.text:ti_sysbios_gates_GateHwi_enter__E)
                  86043960    00000020                 : BIOS.obj (.text:ti_sysbios_gates_GateHwi_leave__E)
                  86043980    00000020     TRS_SYSBIOS_pe66.oe66 (.text:ti_sysbios_gates_GateHwi_query__E)
                  860439a0    00000020     sysbios.lib : BIOS.obj (.text:ti_sysbios_gates_GateHwi_query__F)
                  860439c0    00000020     TRS_SYSBIOS_pe66.oe66 (.text:ti_sysbios_gates_GateMutex_query__E)
                  860439e0    00000020     sysbios.lib : BIOS.obj (.text:ti_sysbios_gates_GateMutex_query__F)
                  86043a00    00000020     TRS_SYSBIOS_pe66.oe66 (.text:ti_sysbios_hal_Hwi_HwiProxy_Module__startupDone__S)
                  86043a20    00000020     TRS_SYSBIOS_pe66.oe66 (.text:ti_sysbios_hal_Hwi_HwiProxy_clearInterrupt__E)
                  86043a40    00000020     TRS_SYSBIOS_pe66.oe66 (.text:ti_sysbios_hal_Hwi_HwiProxy_disableInterrupt__E)
                  86043a60    00000020     TRS_SYSBIOS_pe66.oe66 (.text:ti_sysbios_hal_Hwi_HwiProxy_enableInterrupt__E)
                  86043a80    00000020     TRS_SYSBIOS_pe66.oe66 (.text:ti_sysbios_hal_Hwi_HwiProxy_startup__E)
                  86043aa0    00000020     TRS_SYSBIOS_pe66.oe66 (.text:ti_sysbios_hal_Hwi_HwiProxy_switchFromBootStack__E)
                  86043ac0    00000020     TRS_SYSBIOS_pe66.oe66 (.text:ti_sysbios_hal_Hwi_Module_startup__E)
                  86043ae0    00000020     sysbios.lib : BIOS.obj (.text:ti_sysbios_hal_Hwi_Module_startup__F)
                  86043b00    00000020     TRS_SYSBIOS_pe66.oe66 (.text:ti_sysbios_hal_Timer_Module__startupDone__S)
                  86043b20    00000020     TRS_SYSBIOS_pe66.oe66 (.text:ti_sysbios_hal_Timer_Module_startup__E)
                  86043b40    00000020     sysbios.lib : BIOS.obj (.text:ti_sysbios_hal_Timer_Module_startup__F)
                  86043b60    00000020     TRS_SYSBIOS_pe66.oe66 (.text:ti_sysbios_hal_Timer_TimerProxy_Module__startupDone__S)
                  86043b80    00000020     TRS_SYSBIOS_pe66.oe66 (.text:ti_sysbios_hal_Timer_TimerProxy_getExpiredCounts__E)
                  86043ba0    00000020     TRS_SYSBIOS_pe66.oe66 (.text:ti_sysbios_hal_Timer_TimerProxy_getPeriod__E)
                  86043bc0    00000020     TRS_SYSBIOS_pe66.oe66 (.text:ti_sysbios_hal_Timer_TimerProxy_setNextTick__E)
                  86043be0    00000020     TRS_SYSBIOS_pe66.oe66 (.text:ti_sysbios_hal_Timer_TimerProxy_startup__E)
                  86043c00    00000020     TRS_SYSBIOS_pe66.oe66 (.text:ti_sysbios_heaps_HeapMem_Module_GateProxy_enter__E)
                  86043c20    00000020     TRS_SYSBIOS_pe66.oe66 (.text:ti_sysbios_heaps_HeapMem_Module_GateProxy_leave__E)
                  86043c40    00000020     TRS_SYSBIOS_pe66.oe66 (.text:ti_sysbios_heaps_HeapMem_Module_GateProxy_query__E)
                  86043c60    00000020     sysbios.lib : BIOS.obj (.text:ti_sysbios_heaps_HeapMem_isBlocking__E)
                  86043c80    00000020     TRS_SYSBIOS_pe66.oe66 (.text:ti_sysbios_knl_Clock_Module_State_clockQ)
                  86043ca0    00000020     TRS_SYSBIOS_pe66.oe66 (.text:ti_sysbios_knl_Clock_Module_startup__E)
                  86043cc0    00000020     sysbios.lib : BIOS.obj (.text:ti_sysbios_knl_Queue_Instance_init__F)
                  86043ce0    00000020                 : BIOS.obj (.text:ti_sysbios_knl_Queue_empty__E)
                  86043d00    00000020                 : BIOS.obj (.text:ti_sysbios_knl_Semaphore_reset__E)
                  86043d20    00000020     TRS_SYSBIOS_pe66.oe66 (.text:ti_sysbios_knl_Swi_Module_startup__E)
                  86043d40    00000020     sysbios.lib : BIOS.obj (.text:ti_sysbios_knl_Swi_disable__E)
                  86043d60    00000020     TRS_SYSBIOS_pe66.oe66 (.text:ti_sysbios_knl_Task_Module_startup__E)
                  86043d80    00000020     TRS_SYSBIOS_pe66.oe66 (.text:ti_sysbios_knl_Task_SupportProxy_Module__startupDone__S)
                  86043da0    00000020     TRS_SYSBIOS_pe66.oe66 (.text:ti_sysbios_knl_Task_SupportProxy_checkStack__E)
                  86043dc0    00000020     TRS_SYSBIOS_pe66.oe66 (.text:ti_sysbios_knl_Task_SupportProxy_getStackAlignment__E)
                  86043de0    00000020     TRS_SYSBIOS_pe66.oe66 (.text:ti_sysbios_knl_Task_SupportProxy_start__E)
                  86043e00    00000020     TRS_SYSBIOS_pe66.oe66 (.text:ti_sysbios_knl_Task_SupportProxy_swap__E)
                  86043e20    00000020     sysbios.lib : BIOS.obj (.text:ti_sysbios_knl_Task_disable__E)
                  86043e40    00000020     TRS_SYSBIOS_pe66.oe66 (.text:ti_sysbios_timers_timer64_Timer_Module__startupDone__S)
                  86043e60    00000020     TRS_SYSBIOS_pe66.oe66 (.text:ti_sysbios_timers_timer64_Timer_Module_startup__E)
                  86043e80    00000020     TRS_SYSBIOS_pe66.oe66 (.text:ti_sysbios_timers_timer64_Timer_TimerSupportProxy_enable__E)
                  86043ea0    00000020     sysbios.lib : BIOS.obj (.text:ti_sysbios_timers_timer64_Timer_setNextTick__E)
                  86043ec0    00000020     TRS_SYSBIOS_pe66.oe66 (.text:xdc_iargToPtr)
                  86043ee0    00000020     TRS_SYSBIOS_pe66.oe66 (.text:xdc_runtime_Error_check__E)
                  86043f00    00000020     TRS_SYSBIOS_pe66.oe66 (.text:xdc_runtime_Error_init__E)
                  86043f20    00000020     TRS_SYSBIOS_pe66.oe66 (.text:xdc_runtime_Error_print__E)
                  86043f40    00000020     TRS_SYSBIOS_pe66.oe66 (.text:xdc_runtime_Gate_enterSystem__E)
                  86043f60    00000020     ti.targets.rts6000.ae66 : Gate.oe66 (.text:xdc_runtime_Gate_enterSystem__F)
                  86043f80    00000020     TRS_SYSBIOS_pe66.oe66 (.text:xdc_runtime_Gate_leaveSystem__E)
                  86043fa0    00000020     TRS_SYSBIOS_pe66.oe66 (.text:xdc_runtime_LoggerBuf_Module_GateProxy_enter__E)
                  86043fc0    00000020     TRS_SYSBIOS_pe66.oe66 (.text:xdc_runtime_LoggerBuf_Module_GateProxy_leave__E)
                  86043fe0    00000020     TRS_SYSBIOS_pe66.oe66 (.text:xdc_runtime_LoggerBuf_Module_startup__E)
                  86044000    00000020     TRS_SYSBIOS_pe66.oe66 (.text:xdc_runtime_LoggerBuf_TimestampProxy_get64__E)
                  86044020    00000020     TRS_SYSBIOS_pe66.oe66 (.text:xdc_runtime_LoggerBuf_disable__E)
                  86044040    00000020     ti.targets.rts6000.ae66 : LoggerBuf.oe66 (.text:xdc_runtime_LoggerBuf_disable__F)
                  86044060    00000020     TRS_SYSBIOS_pe66.oe66 (.text:xdc_runtime_LoggerBuf_enable__E)
                  86044080    00000020     ti.targets.rts6000.ae66 : LoggerBuf.oe66 (.text:xdc_runtime_LoggerBuf_enable__F)
                  860440a0    00000020     TRS_SYSBIOS_pe66.oe66 (.text:xdc_runtime_LoggerBuf_getFilterLevel__E)
                  860440c0    00000020     TRS_SYSBIOS_pe66.oe66 (.text:xdc_runtime_LoggerBuf_setFilterLevel__E)
                  860440e0    00000020     TRS_SYSBIOS_pe66.oe66 (.text:xdc_runtime_LoggerBuf_write0__E)
                  86044100    00000020     TRS_SYSBIOS_pe66.oe66 (.text:xdc_runtime_Memory_HeapProxy_alloc__E)
                  86044120    00000020     TRS_SYSBIOS_pe66.oe66 (.text:xdc_runtime_Memory_HeapProxy_free__E)
                  86044140    00000020     TRS_SYSBIOS_pe66.oe66 (.text:xdc_runtime_Memory_alloc__E)
                  86044160    00000020     TRS_SYSBIOS_pe66.oe66 (.text:xdc_runtime_Memory_calloc__E)
                  86044180    00000020     TRS_SYSBIOS_pe66.oe66 (.text:xdc_runtime_Memory_free__E)
                  860441a0    00000020     TRS_SYSBIOS_pe66.oe66 (.text:xdc_runtime_Registry_findById__E)
                  860441c0    00000020     TRS_SYSBIOS_pe66.oe66 (.text:xdc_runtime_Startup_exec__E)
                  860441e0    00000020     TRS_SYSBIOS_pe66.oe66 (.text:xdc_runtime_Startup_reset__I)
                  86044200    00000020     TRS_SYSBIOS_pe66.oe66 (.text:xdc_runtime_SysMin_Module_startup__E)
                  86044220    00000020     TRS_SYSBIOS_pe66.oe66 (.text:xdc_runtime_SysMin_abort__E)
                  86044240    00000020     TRS_SYSBIOS_pe66.oe66 (.text:xdc_runtime_SysMin_exit__E)
                  86044260    00000020     TRS_SYSBIOS_pe66.oe66 (.text:xdc_runtime_SysMin_putch__E)
                  86044280    00000020     TRS_SYSBIOS_pe66.oe66 (.text:xdc_runtime_SysMin_ready__E)
                  860442a0    00000020     ti.targets.rts6000.ae66 : SysMin.oe66 (.text:xdc_runtime_SysMin_ready__F)
                  860442c0    00000020     TRS_SYSBIOS_pe66.oe66 (.text:xdc_runtime_System_Module_GateProxy_enter__E)
                  860442e0    00000020     TRS_SYSBIOS_pe66.oe66 (.text:xdc_runtime_System_Module_GateProxy_leave__E)
                  86044300    00000020     TRS_SYSBIOS_pe66.oe66 (.text:xdc_runtime_System_Module_startup__E)
                  86044320    00000020     ti.targets.rts6000.ae66 : System.oe66 (.text:xdc_runtime_System_Module_startup__F)
                  86044340    00000020     TRS_SYSBIOS_pe66.oe66 (.text:xdc_runtime_System_SupportProxy_abort__E)
                  86044360    00000020     TRS_SYSBIOS_pe66.oe66 (.text:xdc_runtime_System_SupportProxy_exit__E)
                  86044380    00000020     TRS_SYSBIOS_pe66.oe66 (.text:xdc_runtime_System_SupportProxy_putch__E)
                  860443a0    00000020     TRS_SYSBIOS_pe66.oe66 (.text:xdc_runtime_System_SupportProxy_ready__E)
                  860443c0    00000020     TRS_SYSBIOS_pe66.oe66 (.text:xdc_runtime_System_abort__E)
                  860443e0    00000020     TRS_SYSBIOS_pe66.oe66 (.text:xdc_runtime_System_atexit__E)
                  86044400    00000020     TRS_SYSBIOS_pe66.oe66 (.text:xdc_runtime_System_exit__E)
                  86044420    00000020     ti.targets.rts6000.ae66 : System.oe66 (.text:xdc_runtime_System_exit__F)
                  86044440    00000020                             : System.oe66 (.text:xdc_runtime_System_lastFxn__I)
                  86044460    00000020     TRS_SYSBIOS_pe66.oe66 (.text:xdc_runtime_System_vsprintf__E)
                  86044480    00000020     ti.targets.rts6000.ae66 : System.oe66 (.text:xdc_runtime_System_vsprintf__F)
                  860444a0    00000020     TRS_SYSBIOS_pe66.oe66 (.text:xdc_runtime_Text_cordText__E)
                  860444c0    00000020     TRS_SYSBIOS_pe66.oe66 (.text:xdc_runtime_Text_putLab__E)
                  860444e0    00000020     TRS_SYSBIOS_pe66.oe66 (.text:xdc_runtime_Text_putSite__E)
                  86044500    00000020     TRS_SYSBIOS_pe66.oe66 (.text:xdc_runtime_Text_ropeText__E)
                  86044520    00000010     GenUtil.lib : FIFO.obj ($Tramp$S$$ICoreQ_Start)
                  86044530    00000010     GsmUtil.lib : Burst.obj ($Tramp$S$$Burst_GetBasebandData)
                  86044540    00000010     L1Manager.lib : GSMConfig.obj ($Tramp$S$$L1Receiver_Init)
                  86044550    00000010     CmdIfLib.lib : CmdPkt.obj ($Tramp$S$$TestParamsMacros)
                  86044560    00000010     GenUtil.lib : FIFO.obj ($Tramp$S$$HSEM_Init)
                  86044570    00000010     --HOLE-- [fill = 0]

.textDDR   0    86044580    00006b40     
                  86044580    00003bc0     CmdIfLib.lib : CmdPkt.obj (.textDDR)
                  86048140    00001340     GenUtil.lib : FIFO.obj (.textDDR)
                  86049480    00000ca0     L1Manager.lib : GSMConfig.obj (.textDDR)
                  8604a120    000008a0     ModMgr.obj (.textDDR)
                  8604a9c0    00000640     MemMgr.obj (.textDDR)
                  8604b000    000000a0     EthBuff.obj (.textDDR)
                  8604b0a0    00000020     GsmUtil.lib : Burst.obj (.textDDR)

.vecs      0    8604b400    00000200     
                  8604b400    00000200     TRS_SYSBIOS_pe66.oe66 (.vecs)

xdc.meta   0    89000000    00000128     COPY SECTION
                  89000000    00000128     TRS_SYSBIOS_pe66.oe66 (xdc.meta)

.far.1     0    89000000    001026d4     UNINITIALIZED
                  89000000    001001d0     GenUtil.lib : FIFO.obj (.far)
                  891001d0    00002500     GsmUtil.lib : TDFrmTbl.obj (.far)
                  891026d0    00000004     CriticalMem.obj (.far)

.const.1   0    891026e0    00000020     
                  891026e0    00000020     ti.targets.rts6000.ae66 : Core-mem.oe66 (.const:.string)

.far.2     0    89102700    00006ee8     UNINITIALIZED
                  89102700    00002000     L1Manager.lib : GSMConfig.obj (.far:scratch1)
                  89104700    00002000                   : GSMConfig.obj (.far:scratch2)
                  89106700    00001410     TRS_SYSBIOS_pe66.oe66 (.far)
                  89107b10    000012d6     L1Manager.lib : GSMConfig.obj (.far)
                  89108de6    00000002     --HOLE--
                  89108de8    00000800     TRS_SYSBIOS_pe66.oe66 (.far:taskStackSection)

.far.3     0    891095f0    00000803     UNINITIALIZED
                  891095f0    000005c0     CmdIfMgr.lib : CmdRouter.obj (.far)
                  89109bb0    00000140     rts6600_elf.lib : defs.obj (.far)
                  89109cf0    00000103     CmdIfLib.lib : CmdPkt.obj (.far)

.far.4     0    89109e00    000000d8     UNINITIALIZED
                  89109e00    000000d8     rts6600_elf.lib : trgdrv.obj (.far)

.ddrdata   0    89109ee0    00087000     UNINITIALIZED
                  89109ee0    00080000     EthBuff.obj (.ddrdata)
                  89189ee0    00007000     GenUtil.lib : FIFO.obj (.ddrdata)

.const.2   0    89190ee0    00009c2e     
                  89190ee0    000014c0     L1Manager.lib : GSMConfig.obj (.const:.string)
                  891923a0    00001181     TRS_SYSBIOS_pe66.oe66 (.const:xdc_runtime_Text_charTab__A)
                  89193521    00000003     --HOLE-- [fill = 0]
                  89193524    0000000c     TRS_SYSBIOS_pe66.oe66 (.const:ti_sysbios_family_c66_Cache_initSize__C)
                  89193530    00001000     L1Manager.lib : GSMConfig.obj (.const:gRxFreqWord)
                  89194530    00001000                   : GSMConfig.obj (.const:gTxFreqWord)
                  89195530    00000720     delcom_gsm_L1_modules_6400+_eabi.lib : gsm_intlv_data.obj (.const:diag_intlv_index)
                  89195c50    000006e8                                          : gmsk_equalize16_tabs.obj (.const:gsm_nml_tsc_filt)
                  89196338    0000047c     CmdIfLib.lib : CmdPkt.obj (.const:.string)
                  891967b4    0000042c     sysbios.lib : BIOS.obj (.const:.string)
                  89196be0    00000400     TRS_SYSBIOS_pe66.oe66 (.const:ti_sysbios_family_c66_Cache_marvalues__C)
                  89196fe0    00000320     delcom_gsm_L1_modules_6400+_eabi.lib : dbutils.obj (.const:GSMLIB_dB_to_base2_float_mant)
                  89197300    00000314     GenUtil.lib : FIFO.obj (.const:.string)
                  89197614    00000310     GsmUtil.lib : TDFrmTbl.obj (.const:.string)
                  89197924    00000004     ti.targets.rts6000.ae66 : Assert.oe66 (.const:.string)
                  89197928    00000208     delcom_gsm_L1_modules_6400+_eabi.lib : gsm_misc_tables.obj (.const:GSM_DCS_TCH_EFS_REARRANGE_TABLE)
                  89197b30    00000208                                          : gsm_misc_tables.obj (.const:GSM_DCS_TCH_FS_REARRANGE_TABLE)
                  89197d38    000001e8                                          : gsm_misc_tables_amr.obj (.const:GSM_DCS_TCH_AFS_SPEECH12_2_REARRANGE_TABLE)
                  89197f20    000001e2     GSML1.lib : beagle_setup.obj (.const:GSM_DCS_laurent_fir_filt)
                  89198102    00000002     --HOLE-- [fill = 0]
                  89198104    000001cc     GsmUtil.lib : TDFrm.obj (.const:.string)
                  891982d0    000001ba     delcom_gsm_L1_modules_6400+_eabi.lib : burst_assemble_data.obj (.const:tsc_gmsk)
                  8919848a    00000002     --HOLE-- [fill = 0]
                  8919848c    000001ac     ModMgr.obj (.const:.string)
                  89198638    00000198     delcom_gsm_L1_modules_6400+_eabi.lib : gsm_misc_tables_amr.obj (.const:GSM_DCS_TCH_AFS_SPEECH10_2_REARRANGE_TABLE)
                  891987d0    00000190                                          : dbutils.obj (.const:GSMLIB_dB_to_base2_float_exp)
                  89198960    00000184                                          : gsm_misc_tables_amr.obj (.const:GSM_DCS_TCH_AFS_SPEECH10_2_PUNCTURE)
                  89198ae4    00000004     ModMgr.obj (.const)
                  89198ae8    0000013e     delcom_gsm_L1_modules_6400+_eabi.lib : gsm_misc_tables_amr.obj (.const:GSM_DCS_TCH_AFS_SPEECH7_95_REARRANGE_TABLE)
                  89198c26    00000002     --HOLE-- [fill = 0]
                  89198c28    00000128                                          : gsm_misc_tables_amr.obj (.const:GSM_DCS_TCH_AFS_SPEECH7_4_REARRANGE_TABLE)
                  89198d50    0000010c                                          : gsm_misc_tables_amr.obj (.const:GSM_DCS_TCH_AFS_SPEECH6_7_REARRANGE_TABLE)
                  89198e5c    00000004     TRS_SYSBIOS_pe66.oe66 (.const:ti_sysbios_BIOS_Module__diagsEnabled__C)
                  89198e60    00000101     rts6600_elf.lib : ctype.obj (.const:_ctypes_)
                  89198f61    00000003     --HOLE-- [fill = 0]
                  89198f64    00000004     TRS_SYSBIOS_pe66.oe66 (.const:ti_sysbios_BIOS_Module__diagsIncluded__C)
                  89198f68    00000100     delcom_gsm_L1_modules_6400+_eabi.lib : gsm_misc_tables_amr.obj (.const:GSM_DCS_TCH_AFS_SPEECH6_7_PUNCTURE)
                  89199068    00000100                                          : gmsk_equalize16_tabs.obj (.const:gsm_sch_tsc_filt)
                  89199168    000000ec                                          : gsm_misc_tables_amr.obj (.const:GSM_DCS_TCH_AFS_SPEECH5_9_REARRANGE_TABLE)
                  89199254    00000004     TRS_SYSBIOS_pe66.oe66 (.const:ti_sysbios_BIOS_Module__diagsMask__C)
                  89199258    000000ea     delcom_gsm_L1_modules_6400+_eabi.lib : gsm_misc_tables_amr.obj (.const:GSM_DCS_TCH_AFS_SPEECH5_15_PUNCTURE)
                  89199342    00000002     --HOLE-- [fill = 0]
                  89199344    000000e4     MemMgr.obj (.const:.string)
                  89199428    000000ce     delcom_gsm_L1_modules_6400+_eabi.lib : gsm_misc_tables_amr.obj (.const:GSM_DCS_TCH_AFS_SPEECH5_15_REARRANGE_TABLE)
                  891994f6    00000002     --HOLE-- [fill = 0]
                  891994f8    00000008                                          : ctrl_encode_bits.obj (.const:$P$T0$1)
                  89199500    000000c8     TRS_SYSBIOS_pe66.oe66 (.const:xdc_runtime_Text_nodeTab__A)
                  891995c8    000000be     delcom_gsm_L1_modules_6400+_eabi.lib : gsmefr_dtx_sfd.obj (.const:DCS_GSMEFR_DTX_bit_index)
                  89199686    00000002     --HOLE-- [fill = 0]
                  89199688    000000be                                          : gsm_misc_tables_amr.obj (.const:GSM_DCS_TCH_AFS_SPEECH4_75_REARRANGE_TABLE)
                  89199746    00000002     --HOLE-- [fill = 0]
                  89199748    000000ae                                          : gsm_misc_tables_amr.obj (.const:GSM_DCS_TCH_AFS_SPEECH4_75_PUNCTURE)
                  891997f6    00000002     --HOLE-- [fill = 0]
                  891997f8    000000a4                                          : gmsk_equalize16_tabs.obj (.const:gsm_rach_tsc_filt)
                  8919989c    00000004     TRS_SYSBIOS_pe66.oe66 (.const:ti_sysbios_BIOS_installedErrorHook__C)
                  891998a0    000000a2     delcom_gsm_L1_modules_6400+_eabi.lib : gmsk_agc.obj (.const:db_to_gain_q5)
                  89199942    00000002     --HOLE-- [fill = 0]
                  89199944    00000004     TRS_SYSBIOS_pe66.oe66 (.const:ti_sysbios_family_c62_TaskSupport_stackAlignment__C)
                  89199948    000000a2     delcom_gsm_L1_modules_6400+_eabi.lib : gmsk_agc.obj (.const:db_to_loss_q13)
                  891999ea    00000002     --HOLE-- [fill = 0]
                  891999ec    00000004     TRS_SYSBIOS_pe66.oe66 (.const:ti_sysbios_family_c64p_Exception_E_exceptionMin__C)
                  891999f0    00000094     delcom_gsm_L1_modules_6400+_eabi.lib : burst_assemble_data.obj (.const:dummy_burst_data)
                  89199a84    00000004     TRS_SYSBIOS_pe66.oe66 (.const:ti_sysbios_family_c64p_Exception_exceptionHook__C)
                  89199a88    00000094     delcom_gsm_L1_modules_6400+_eabi.lib : burst_assemble_data.obj (.const:fcch_bits)
                  89199b1c    00000004     TRS_SYSBIOS_pe66.oe66 (.const:ti_sysbios_family_c64p_Exception_externalHook__C)
                  89199b20    00000090     L1Manager.lib : GSMConfig.obj (.const:$P$T0$1$7)
                  89199bb0    00000090                   : GSMConfig.obj (.const:$P$T1$2$7)
                  89199c40    00000090     delcom_gsm_L1_modules_6400+_eabi.lib : gsm_misc_tables_amr.obj (.const:GSM_DCS_TCH_AFS_SPEECH5_9_PUNCTURE)
                  89199cd0    00000082                                          : gsm_misc_tables_amr.obj (.const:GSM_DCS_TCH_AFS_SPEECH7_95_PUNCTURE)
                  89199d52    00000002     --HOLE-- [fill = 0]
                  89199d54    00000004     TRS_SYSBIOS_pe66.oe66 (.const:ti_sysbios_family_c64p_Exception_internalHook__C)
                  89199d58    00000082     delcom_gsm_L1_modules_6400+_eabi.lib : gsm_misc_tables.obj (.const:GSM_DCS_TCH_EFS_45003_S3_1_1_1)
                  89199dda    00000002     --HOLE-- [fill = 0]
                  89199ddc    00000004     TRS_SYSBIOS_pe66.oe66 (.const:ti_sysbios_family_c64p_Exception_nmiHook__C)
                  89199de0    00000080     delcom_gsm_L1_modules_6400+_eabi.lib : gmsk_equalize16_tabs.obj (.const:demodstates)
                  89199e60    00000078                                          : gsm_misc_tables_amr.obj (.const:GSM_DCS_TCH_AFS_SPEECH12_2_PUNCTURE)
                  89199ed8    00000072                                          : gsm_freq_hopping.obj (.const:GSM_DCS_freqhopping_rand_table)
                  89199f4a    00000002     --HOLE-- [fill = 0]
                  89199f4c    00000004     TRS_SYSBIOS_pe66.oe66 (.const:ti_sysbios_family_c64p_Hwi_LD_end__C)
                  89199f50    00000062     delcom_gsm_L1_modules_6400+_eabi.lib : comm_math.obj (.const:GSMLIB_DCS_inv_sqrt_tbl)
                  89199fb2    00000002     --HOLE-- [fill = 0]
                  89199fb4    00000058     ti.targets.rts6000.ae66 : Error.oe66 (.const:.string)
                  8919a00c    00000048     TRS_SYSBIOS_pe66.oe66 (.const:.string)
                  8919a054    00000004     TRS_SYSBIOS_pe66.oe66 (.const:ti_sysbios_family_c64p_Hwi_LM_begin__C)
                  8919a058    00000042     delcom_gsm_L1_modules_6400+_eabi.lib : dbutils.obj (.const:GSMLIB_DCS_logtab)
                  8919a09a    00000002     --HOLE-- [fill = 0]
                  8919a09c    00000004     TRS_SYSBIOS_pe66.oe66 (.const:ti_sysbios_family_c64p_Hwi_Module__diagsEnabled__C)
                  8919a0a0    00000041     delcom_gsm_L1_modules_6400+_eabi.lib : gsm_freq_hopping.obj (.const:GSM_DCS_freqhopping_mod2powerNBIN_tablemask)
                  8919a0e1    00000003     --HOLE-- [fill = 0]
                  8919a0e4    00000040     ti.targets.rts6000.ae66 : Text.oe66 (.const:.string)
                  8919a124    00000004     TRS_SYSBIOS_pe66.oe66 (.const:ti_sysbios_family_c64p_Hwi_Module__diagsIncluded__C)
                  8919a128    00000040     delcom_gsm_L1_modules_6400+_eabi.lib : gsm_misc_tables_amr.obj (.const:GSM_DCS_TCH_AFS_CODED_DATA_SID)
                  8919a168    00000040                                          : burst_assemble_data.obj (.const:ext_tsc_gmsk)
                  8919a1a8    00000040                                          : burst_assemble_data.obj (.const:ext_tsc_gmsk_COMPACT)
                  8919a1e8    00000040                                          : burst_assemble_data.obj (.const:ext_tsc_gmsk_CTS)
                  8919a228    0000003c                                          : ctrl_fcch_rcv.obj (.const:DCS_ft2b)
                  8919a264    0000003c     TRS_SYSBIOS_pe66.oe66 (.const:xdc_runtime_LoggerBuf_Module__FXNS__C)
                  8919a2a0    00000038     GsmUtil.lib : GSMTime.obj (.const:.string)
                  8919a2d8    00000038     TRS_SYSBIOS_pe66.oe66 (.const:ti_sysbios_knl_Task_Object__PARAMS__C)
                  8919a310    00000034     GsmUtil.lib : L1FEC.obj (.const:.string)
                  8919a344    00000004     TRS_SYSBIOS_pe66.oe66 (.const:ti_sysbios_family_c64p_Hwi_Module__diagsMask__C)
                  8919a348    00000034     delcom_gsm_L1_modules_6400+_eabi.lib : gsm_misc_tables_amr.obj (.const:GSM_DCS_TCH_AFS_SPEECH7_4_PUNCTURE)
                  8919a37c    00000004     TRS_SYSBIOS_pe66.oe66 (.const:ti_sysbios_family_c64p_Hwi_Module__loggerFxn1__C)
                  8919a380    00000034     TRS_SYSBIOS_pe66.oe66 (.const:xdc_runtime_Startup_sfxnTab__A)
                  8919a3b4    0000002c     ti.targets.rts6000.ae66 : Startup.oe66 (.const:.string)
                  8919a3e0    00000029     delcom_gsm_L1_modules_6400+_eabi.lib : burst_assemble_data.obj (.const:access_ts_gmsk)
                  8919a409    00000003     --HOLE-- [fill = 0]
                  8919a40c    00000004     TRS_SYSBIOS_pe66.oe66 (.const:ti_sysbios_family_c64p_Hwi_Module__loggerFxn8__C)
                  8919a410    00000029     delcom_gsm_L1_modules_6400+_eabi.lib : burst_assemble_data.obj (.const:access_ts_gmsk_1)
                  8919a439    00000003     --HOLE-- [fill = 0]
                  8919a43c    00000004     TRS_SYSBIOS_pe66.oe66 (.const:ti_sysbios_family_c64p_Hwi_Module__loggerObj__C)
                  8919a440    00000029     delcom_gsm_L1_modules_6400+_eabi.lib : burst_assemble_data.obj (.const:access_ts_gmsk_2)
                  8919a469    00000003     --HOLE-- [fill = 0]
                  8919a46c    00000028     TRS_SYSBIOS_pe66.oe66 (.const:ti_sysbios_heaps_HeapMem_Module__FXNS__C)
                  8919a494    00000028     TRS_SYSBIOS_pe66.oe66 (.const:xdc_runtime_LoggerBuf_Object__PARAMS__C)
                  8919a4bc    00000004     TRS_SYSBIOS_pe66.oe66 (.const:ti_sysbios_gates_GateMutex_A_badContext__C)
                  8919a4c0    00000024     delcom_gsm_L1_modules_6400+_eabi.lib : gsm_misc_tables_amr.obj (.const:GSM_DCS_TCH_AFS_SID_IM_VECTOR)
                  8919a4e4    00000024     TRS_SYSBIOS_pe66.oe66 (.const:ti_sysbios_gates_GateHwi_Module__FXNS__C)
                  8919a508    00000024     TRS_SYSBIOS_pe66.oe66 (.const:ti_sysbios_gates_GateMutex_Module__FXNS__C)
                  8919a52c    00000024     TRS_SYSBIOS_pe66.oe66 (.const:ti_sysbios_knl_Clock_Object__PARAMS__C)
                  8919a550    00000024     TRS_SYSBIOS_pe66.oe66 (.const:ti_sysbios_knl_Semaphore_Object__PARAMS__C)
                  8919a574    00000023     rts6600_elf.lib : _printfi.obj (.const:.string)
                  8919a597    00000001     --HOLE-- [fill = 0]
                  8919a598    00000022     delcom_gsm_L1_modules_6400+_eabi.lib : gmsk_equalize16_tabs.obj (.const:state_init_normal)
                  8919a5ba    00000002     --HOLE-- [fill = 0]
                  8919a5bc    00000004     TRS_SYSBIOS_pe66.oe66 (.const:ti_sysbios_gates_GateMutex_Instance_State_sem__O)
                  8919a5c0    00000020     delcom_gsm_L1_modules_6400+_eabi.lib : gsm_misc_tables_amr.obj (.const:GSM_DCS_TCH_AFS_CODED_DATA_SPEECH)
                  8919a5e0    00000020     TRS_SYSBIOS_pe66.oe66 (.const:ti_sysbios_gates_GateHwi_Object__DESC__C)
                  8919a600    00000020     TRS_SYSBIOS_pe66.oe66 (.const:ti_sysbios_gates_GateMutex_Object__DESC__C)
                  8919a620    00000020     TRS_SYSBIOS_pe66.oe66 (.const:ti_sysbios_heaps_HeapMem_Object__DESC__C)
                  8919a640    00000020     TRS_SYSBIOS_pe66.oe66 (.const:ti_sysbios_heaps_HeapMem_Object__PARAMS__C)
                  8919a660    00000020     TRS_SYSBIOS_pe66.oe66 (.const:ti_sysbios_knl_Clock_Object__DESC__C)
                  8919a680    00000020     TRS_SYSBIOS_pe66.oe66 (.const:ti_sysbios_knl_Queue_Object__DESC__C)
                  8919a6a0    00000020     TRS_SYSBIOS_pe66.oe66 (.const:ti_sysbios_knl_Semaphore_Object__DESC__C)
                  8919a6c0    00000020     TRS_SYSBIOS_pe66.oe66 (.const:ti_sysbios_knl_Task_Object__DESC__C)
                  8919a6e0    00000020     TRS_SYSBIOS_pe66.oe66 (.const:xdc_runtime_LoggerBuf_Object__DESC__C)
                  8919a700    0000001a     delcom_gsm_L1_modules_6400+_eabi.lib : gsm_misc_tables_amr.obj (.const:GSM_DCS_AFS_BLOCK_PHASE)
                  8919a71a    00000002     --HOLE-- [fill = 0]
                  8919a71c    00000004     TRS_SYSBIOS_pe66.oe66 (.const:ti_sysbios_gates_GateMutex_Module__diagsEnabled__C)
                  8919a720    0000001a     TRS_SYSBIOS_pe66.oe66 (.const:xdc_runtime_Startup_sfxnRts__A)
                  8919a73a    00000002     --HOLE-- [fill = 0]
                  8919a73c    00000018     TRS_SYSBIOS_pe66.oe66 (.const:ti_sysbios_gates_GateHwi_Object__PARAMS__C)
                  8919a754    00000018     TRS_SYSBIOS_pe66.oe66 (.const:ti_sysbios_gates_GateMutex_Object__PARAMS__C)
                  8919a76c    00000018     TRS_SYSBIOS_pe66.oe66 (.const:ti_sysbios_knl_Queue_Object__PARAMS__C)
                  8919a784    00000008     GsmUtil.lib : Clock.obj (.const:.string)
                  8919a78c    00000004     TRS_SYSBIOS_pe66.oe66 (.const:ti_sysbios_gates_GateMutex_Module__diagsIncluded__C)
                  8919a790    00000018     TRS_SYSBIOS_pe66.oe66 (.const:ti_sysbios_knl_Task_hooks__A)
                  8919a7a8    00000008     ti.targets.rts6000.ae66 : System.oe66 (.const:.string)
                  8919a7b0    00000011                             : System.oe66 (.const:digtohex)
                  8919a7c1    00000003     --HOLE-- [fill = 0]
                  8919a7c4    00000004     TRS_SYSBIOS_pe66.oe66 (.const:ti_sysbios_gates_GateMutex_Module__diagsMask__C)
                  8919a7c8    00000010     delcom_gsm_L1_modules_6400+_eabi.lib : burst_assemble_data.obj (.const:dummy_burst_tsc_mapping_A213)
                  8919a7d8    0000000c                                          : ctrl_fcch_rcv.obj (.const:atan2_table)
                  8919a7e4    00000004     TRS_SYSBIOS_pe66.oe66 (.const:ti_sysbios_hal_Hwi_E_stackOverflow__C)
                  8919a7e8    0000000b     delcom_gsm_L1_modules_6400+_eabi.lib : gsm_misc_tables_amr.obj (.const:GSM_DCS_TCH_AFS_RATSCCH_IM_VECTOR)
                  8919a7f3    00000001     --HOLE-- [fill = 0]
                  8919a7f4    00000004     TRS_SYSBIOS_pe66.oe66 (.const:ti_sysbios_heaps_HeapMem_A_align__C)
                  8919a7f8    0000000a     delcom_gsm_L1_modules_6400+_eabi.lib : generic_conv_decoder.obj (.const:$P$T0$1)
                  8919a802    00000002     --HOLE-- [fill = 0]
                  8919a804    00000004     TRS_SYSBIOS_pe66.oe66 (.const:ti_sysbios_heaps_HeapMem_A_heapSize__C)
                  8919a808    0000000a     delcom_gsm_L1_modules_6400+_eabi.lib : tch_afs_decode_bits.obj (.const:$P$T0$1)
                  8919a812    00000002     --HOLE-- [fill = 0]
                  8919a814    00000004     TRS_SYSBIOS_pe66.oe66 (.const:ti_sysbios_heaps_HeapMem_A_invalidFree__C)
                  8919a818    0000000a     delcom_gsm_L1_modules_6400+_eabi.lib : gsm_misc_tables.obj (.const:gen_matrix_ctrl)
                  8919a822    00000002     --HOLE-- [fill = 0]
                  8919a824    00000004     TRS_SYSBIOS_pe66.oe66 (.const:ti_sysbios_heaps_HeapMem_A_zeroBlock__C)
                  8919a828    00000008     delcom_gsm_L1_modules_6400+_eabi.lib : burst_assemble_data.obj (.const:extended_tail)
                  8919a830    00000008                                          : burst_assemble_data.obj (.const:guard_bits)
                  8919a838    00000008     TRS_SYSBIOS_pe66.oe66 (.const:ti_sysbios_knl_Idle_funcList__C)
                  8919a840    00000008     TRS_SYSBIOS_pe66.oe66 (.const:ti_sysbios_knl_Task_hooks__C)
                  8919a848    00000008     TRS_SYSBIOS_pe66.oe66 (.const:xdc_runtime_Startup_firstFxns__C)
                  8919a850    00000008     TRS_SYSBIOS_pe66.oe66 (.const:xdc_runtime_Startup_firstFxns__A)
                  8919a858    00000008     TRS_SYSBIOS_pe66.oe66 (.const:xdc_runtime_Startup_lastFxns__C)
                  8919a860    00000004     TRS_SYSBIOS_pe66.oe66 (.const:ti_sysbios_heaps_HeapMem_E_memory__C)
                  8919a864    00000004     TRS_SYSBIOS_pe66.oe66 (.const:ti_sysbios_heaps_HeapMem_Module__diagsEnabled__C)
                  8919a868    00000004     TRS_SYSBIOS_pe66.oe66 (.const:ti_sysbios_heaps_HeapMem_Module__diagsIncluded__C)
                  8919a86c    00000004     TRS_SYSBIOS_pe66.oe66 (.const:ti_sysbios_heaps_HeapMem_Module__diagsMask__C)
                  8919a870    00000004     TRS_SYSBIOS_pe66.oe66 (.const:ti_sysbios_heaps_HeapMem_Module__gateObj__C)
                  8919a874    00000004     TRS_SYSBIOS_pe66.oe66 (.const:ti_sysbios_heaps_HeapMem_Object__count__C)
                  8919a878    00000004     TRS_SYSBIOS_pe66.oe66 (.const:ti_sysbios_heaps_HeapMem_Object__table__C)
                  8919a87c    00000004     TRS_SYSBIOS_pe66.oe66 (.const:ti_sysbios_heaps_HeapMem_reqAlignMask__C)
                  8919a880    00000004     TRS_SYSBIOS_pe66.oe66 (.const:ti_sysbios_heaps_HeapMem_reqAlign__C)
                  8919a884    00000004     TRS_SYSBIOS_pe66.oe66 (.const:ti_sysbios_knl_Clock_A_badThreadType__C)
                  8919a888    00000004     TRS_SYSBIOS_pe66.oe66 (.const:ti_sysbios_knl_Clock_LM_begin__C)
                  8919a88c    00000004     TRS_SYSBIOS_pe66.oe66 (.const:ti_sysbios_knl_Clock_LM_tick__C)
                  8919a890    00000004     TRS_SYSBIOS_pe66.oe66 (.const:ti_sysbios_knl_Clock_LW_delayed__C)
                  8919a894    00000004     TRS_SYSBIOS_pe66.oe66 (.const:ti_sysbios_knl_Clock_Module_State_clockQ__O)
                  8919a898    00000004     TRS_SYSBIOS_pe66.oe66 (.const:ti_sysbios_knl_Clock_Module__diagsEnabled__C)
                  8919a89c    00000004     TRS_SYSBIOS_pe66.oe66 (.const:ti_sysbios_knl_Clock_Module__diagsIncluded__C)
                  8919a8a0    00000004     TRS_SYSBIOS_pe66.oe66 (.const:ti_sysbios_knl_Clock_Module__diagsMask__C)
                  8919a8a4    00000004     TRS_SYSBIOS_pe66.oe66 (.const:ti_sysbios_knl_Clock_Module__loggerFxn1__C)
                  8919a8a8    00000004     TRS_SYSBIOS_pe66.oe66 (.const:ti_sysbios_knl_Clock_Module__loggerFxn2__C)
                  8919a8ac    00000004     TRS_SYSBIOS_pe66.oe66 (.const:ti_sysbios_knl_Clock_Module__loggerObj__C)
                  8919a8b0    00000004     TRS_SYSBIOS_pe66.oe66 (.const:ti_sysbios_knl_Clock_tickMode__C)
                  8919a8b4    00000004     TRS_SYSBIOS_pe66.oe66 (.const:ti_sysbios_knl_Clock_tickSource__C)
                  8919a8b8    00000004     TRS_SYSBIOS_pe66.oe66 (.const:ti_sysbios_knl_Queue_Object__count__C)
                  8919a8bc    00000004     TRS_SYSBIOS_pe66.oe66 (.const:ti_sysbios_knl_Queue_Object__table__C)
                  8919a8c0    00000004     TRS_SYSBIOS_pe66.oe66 (.const:ti_sysbios_knl_Idle_funcList__A)
                  8919a8c4    00000004     TRS_SYSBIOS_pe66.oe66 (.const:ti_sysbios_knl_Semaphore_A_badContext__C)
                  8919a8c8    00000004     TRS_SYSBIOS_pe66.oe66 (.const:ti_sysbios_knl_Semaphore_A_noEvents__C)
                  8919a8cc    00000004     TRS_SYSBIOS_pe66.oe66 (.const:ti_sysbios_knl_Semaphore_Instance_State_pendQ__O)
                  8919a8d0    00000004     TRS_SYSBIOS_pe66.oe66 (.const:ti_sysbios_knl_Semaphore_LM_pend__C)
                  8919a8d4    00000004     TRS_SYSBIOS_pe66.oe66 (.const:ti_sysbios_knl_Semaphore_LM_post__C)
                  8919a8d8    00000004     TRS_SYSBIOS_pe66.oe66 (.const:ti_sysbios_knl_Semaphore_Module__diagsEnabled__C)
                  8919a8dc    00000004     TRS_SYSBIOS_pe66.oe66 (.const:ti_sysbios_knl_Semaphore_Module__diagsIncluded__C)
                  8919a8e0    00000004     TRS_SYSBIOS_pe66.oe66 (.const:ti_sysbios_knl_Semaphore_Module__diagsMask__C)
                  8919a8e4    00000004     TRS_SYSBIOS_pe66.oe66 (.const:ti_sysbios_knl_Semaphore_Module__loggerFxn2__C)
                  8919a8e8    00000004     TRS_SYSBIOS_pe66.oe66 (.const:ti_sysbios_knl_Semaphore_Module__loggerFxn4__C)
                  8919a8ec    00000004     TRS_SYSBIOS_pe66.oe66 (.const:ti_sysbios_knl_Semaphore_Module__loggerObj__C)
                  8919a8f0    00000004     TRS_SYSBIOS_pe66.oe66 (.const:ti_sysbios_knl_Swi_LD_end__C)
                  8919a8f4    00000004     TRS_SYSBIOS_pe66.oe66 (.const:ti_sysbios_knl_Swi_LM_begin__C)
                  8919a8f8    00000004     TRS_SYSBIOS_pe66.oe66 (.const:ti_sysbios_knl_Swi_LM_post__C)
                  8919a8fc    00000004     TRS_SYSBIOS_pe66.oe66 (.const:ti_sysbios_knl_Swi_Module__diagsEnabled__C)
                  8919a900    00000004     TRS_SYSBIOS_pe66.oe66 (.const:ti_sysbios_knl_Swi_Module__diagsIncluded__C)
                  8919a904    00000004     TRS_SYSBIOS_pe66.oe66 (.const:ti_sysbios_knl_Swi_Module__diagsMask__C)
                  8919a908    00000004     TRS_SYSBIOS_pe66.oe66 (.const:ti_sysbios_knl_Swi_Module__loggerFxn1__C)
                  8919a90c    00000004     TRS_SYSBIOS_pe66.oe66 (.const:ti_sysbios_knl_Swi_Module__loggerFxn4__C)
                  8919a910    00000004     TRS_SYSBIOS_pe66.oe66 (.const:ti_sysbios_knl_Swi_Module__loggerObj__C)
                  8919a914    00000004     TRS_SYSBIOS_pe66.oe66 (.const:ti_sysbios_knl_Swi_Object__count__C)
                  8919a918    00000004     TRS_SYSBIOS_pe66.oe66 (.const:ti_sysbios_knl_Swi_Object__table__C)
                  8919a91c    00000004     TRS_SYSBIOS_pe66.oe66 (.const:ti_sysbios_knl_Task_A_badPriority__C)
                  8919a920    00000004     TRS_SYSBIOS_pe66.oe66 (.const:ti_sysbios_knl_Task_A_badTaskState__C)
                  8919a924    00000004     TRS_SYSBIOS_pe66.oe66 (.const:ti_sysbios_knl_Task_A_badThreadType__C)
                  8919a928    00000004     TRS_SYSBIOS_pe66.oe66 (.const:ti_sysbios_knl_Task_A_badTimeout__C)
                  8919a92c    00000004     TRS_SYSBIOS_pe66.oe66 (.const:ti_sysbios_knl_Task_A_noPendElem__C)
                  8919a930    00000004     TRS_SYSBIOS_pe66.oe66 (.const:ti_sysbios_knl_Task_E_spOutOfBounds__C)
                  8919a934    00000004     TRS_SYSBIOS_pe66.oe66 (.const:ti_sysbios_knl_Task_E_stackOverflow__C)
                  8919a938    00000004     TRS_SYSBIOS_pe66.oe66 (.const:ti_sysbios_knl_Task_LD_block__C)
                  8919a93c    00000004     TRS_SYSBIOS_pe66.oe66 (.const:ti_sysbios_knl_Task_LD_exit__C)
                  8919a940    00000004     TRS_SYSBIOS_pe66.oe66 (.const:ti_sysbios_knl_Task_LD_ready__C)
                  8919a944    00000004     TRS_SYSBIOS_pe66.oe66 (.const:ti_sysbios_knl_Task_LM_setPri__C)
                  8919a948    00000004     TRS_SYSBIOS_pe66.oe66 (.const:ti_sysbios_knl_Task_LM_sleep__C)
                  8919a94c    00000004     TRS_SYSBIOS_pe66.oe66 (.const:ti_sysbios_knl_Task_LM_switch__C)
                  8919a950    00000004     TRS_SYSBIOS_pe66.oe66 (.const:ti_sysbios_knl_Task_LM_yield__C)
                  8919a954    00000004     TRS_SYSBIOS_pe66.oe66 (.const:ti_sysbios_knl_Task_Module_State_inactiveQ__O)
                  8919a958    00000004     TRS_SYSBIOS_pe66.oe66 (.const:ti_sysbios_knl_Task_Module_State_terminatedQ__O)
                  8919a95c    00000004     TRS_SYSBIOS_pe66.oe66 (.const:ti_sysbios_knl_Task_Module__diagsEnabled__C)
                  8919a960    00000004     TRS_SYSBIOS_pe66.oe66 (.const:ti_sysbios_knl_Task_Module__diagsIncluded__C)
                  8919a964    00000004     TRS_SYSBIOS_pe66.oe66 (.const:ti_sysbios_knl_Task_Module__diagsMask__C)
                  8919a968    00000004     TRS_SYSBIOS_pe66.oe66 (.const:ti_sysbios_knl_Task_Module__loggerFxn2__C)
                  8919a96c    00000004     TRS_SYSBIOS_pe66.oe66 (.const:ti_sysbios_knl_Task_Module__loggerFxn4__C)
                  8919a970    00000004     TRS_SYSBIOS_pe66.oe66 (.const:ti_sysbios_knl_Task_Module__loggerObj__C)
                  8919a974    00000004     TRS_SYSBIOS_pe66.oe66 (.const:ti_sysbios_knl_Task_Object__count__C)
                  8919a978    00000004     TRS_SYSBIOS_pe66.oe66 (.const:ti_sysbios_knl_Task_Object__heap__C)
                  8919a97c    00000004     TRS_SYSBIOS_pe66.oe66 (.const:ti_sysbios_knl_Task_Object__table__C)
                  8919a980    00000004     TRS_SYSBIOS_pe66.oe66 (.const:ti_sysbios_knl_Task_allBlockedFunc__C)
                  8919a984    00000004     TRS_SYSBIOS_pe66.oe66 (.const:ti_sysbios_knl_Task_defaultStackHeap__C)
                  8919a988    00000004     TRS_SYSBIOS_pe66.oe66 (.const:ti_sysbios_knl_Task_defaultStackSize__C)
                  8919a98c    00000004     TRS_SYSBIOS_pe66.oe66 (.const:ti_sysbios_knl_Task_numConstructedTasks__C)
                  8919a990    00000004     TRS_SYSBIOS_pe66.oe66 (.const:ti_sysbios_knl_Task_numPriorities__C)
                  8919a994    00000004     TRS_SYSBIOS_pe66.oe66 (.const:ti_sysbios_timers_timer64_Timer_A_notAvailable__C)
                  8919a998    00000004     TRS_SYSBIOS_pe66.oe66 (.const:ti_sysbios_timers_timer64_Timer_E_cannotSupport__C)
                  8919a99c    00000004     TRS_SYSBIOS_pe66.oe66 (.const:ti_sysbios_timers_timer64_Timer_Module__diagsEnabled__C)
                  8919a9a0    00000004     TRS_SYSBIOS_pe66.oe66 (.const:ti_sysbios_timers_timer64_Timer_Module__diagsIncluded__C)
                  8919a9a4    00000004     TRS_SYSBIOS_pe66.oe66 (.const:ti_sysbios_timers_timer64_Timer_Module__diagsMask__C)
                  8919a9a8    00000004     TRS_SYSBIOS_pe66.oe66 (.const:ti_sysbios_timers_timer64_Timer_anyMask__C)
                  8919a9ac    00000004     TRS_SYSBIOS_pe66.oe66 (.const:ti_sysbios_timers_timer64_Timer_freqDivisor__C)
                  8919a9b0    00000004     TRS_SYSBIOS_pe66.oe66 (.const:ti_sysbios_timers_timer64_Timer_numLocalTimers__C)
                  8919a9b4    00000004     TRS_SYSBIOS_pe66.oe66 (.const:ti_sysbios_timers_timer64_Timer_numTimerDevices__C)
                  8919a9b8    00000004     TRS_SYSBIOS_pe66.oe66 (.const:xdc_runtime_Assert_E_assertFailed__C)
                  8919a9bc    00000004     TRS_SYSBIOS_pe66.oe66 (.const:xdc_runtime_Core_A_initializedParams__C)
                  8919a9c0    00000004     TRS_SYSBIOS_pe66.oe66 (.const:xdc_runtime_Core_Module__diagsEnabled__C)
                  8919a9c4    00000004     TRS_SYSBIOS_pe66.oe66 (.const:xdc_runtime_Core_Module__diagsIncluded__C)
                  8919a9c8    00000004     TRS_SYSBIOS_pe66.oe66 (.const:xdc_runtime_Core_Module__diagsMask__C)
                  8919a9cc    00000004     TRS_SYSBIOS_pe66.oe66 (.const:xdc_runtime_Error_E_generic__C)
                  8919a9d0    00000004     TRS_SYSBIOS_pe66.oe66 (.const:xdc_runtime_Error_E_memory__C)
                  8919a9d4    00000004     TRS_SYSBIOS_pe66.oe66 (.const:xdc_runtime_Error_Module__diagsEnabled__C)
                  8919a9d8    00000004     TRS_SYSBIOS_pe66.oe66 (.const:xdc_runtime_Error_Module__diagsIncluded__C)
                  8919a9dc    00000004     TRS_SYSBIOS_pe66.oe66 (.const:xdc_runtime_Error_Module__diagsMask__C)
                  8919a9e0    00000004     TRS_SYSBIOS_pe66.oe66 (.const:xdc_runtime_Error_Module__loggerFxn8__C)
                  8919a9e4    00000004     TRS_SYSBIOS_pe66.oe66 (.const:xdc_runtime_Error_Module__loggerObj__C)
                  8919a9e8    00000004     TRS_SYSBIOS_pe66.oe66 (.const:xdc_runtime_Error_policy__C)
                  8919a9ec    00000004     TRS_SYSBIOS_pe66.oe66 (.const:xdc_runtime_Error_raiseHook__C)
                  8919a9f0    00000004     TRS_SYSBIOS_pe66.oe66 (.const:xdc_runtime_IFilterLogger_Interface__BASE__C)
                  8919a9f4    00000004     TRS_SYSBIOS_pe66.oe66 (.const:xdc_runtime_IGateProvider_Interface__BASE__C)
                  8919a9f8    00000004     TRS_SYSBIOS_pe66.oe66 (.const:xdc_runtime_IHeap_Interface__BASE__C)
                  8919a9fc    00000004     TRS_SYSBIOS_pe66.oe66 (.const:xdc_runtime_ILogger_Interface__BASE__C)
                  8919aa00    00000004     TRS_SYSBIOS_pe66.oe66 (.const:xdc_runtime_IModule_Interface__BASE__C)
                  8919aa04    00000004     TRS_SYSBIOS_pe66.oe66 (.const:xdc_runtime_Log_L_error__C)
                  8919aa08    00000004     TRS_SYSBIOS_pe66.oe66 (.const:xdc_runtime_LoggerBuf_E_badLevel__C)
                  8919aa0c    00000004     TRS_SYSBIOS_pe66.oe66 (.const:xdc_runtime_LoggerBuf_Module__gateObj__C)
                  8919aa10    00000004     TRS_SYSBIOS_pe66.oe66 (.const:xdc_runtime_LoggerBuf_Object__count__C)
                  8919aa14    00000004     TRS_SYSBIOS_pe66.oe66 (.const:xdc_runtime_LoggerBuf_Object__table__C)
                  8919aa18    00000004     TRS_SYSBIOS_pe66.oe66 (.const:xdc_runtime_LoggerBuf_statusLogger__C)
                  8919aa1c    00000004     TRS_SYSBIOS_pe66.oe66 (.const:xdc_runtime_Main_Module__diagsEnabled__C)
                  8919aa20    00000004     TRS_SYSBIOS_pe66.oe66 (.const:xdc_runtime_Main_Module__diagsIncluded__C)
                  8919aa24    00000004     TRS_SYSBIOS_pe66.oe66 (.const:xdc_runtime_Main_Module__diagsMask__C)
                  8919aa28    00000004     TRS_SYSBIOS_pe66.oe66 (.const:xdc_runtime_Main_Module__loggerFxn1__C)
                  8919aa2c    00000004     TRS_SYSBIOS_pe66.oe66 (.const:xdc_runtime_Main_Module__loggerFxn2__C)
                  8919aa30    00000004     TRS_SYSBIOS_pe66.oe66 (.const:xdc_runtime_Main_Module__loggerFxn4__C)
                  8919aa34    00000004     TRS_SYSBIOS_pe66.oe66 (.const:xdc_runtime_Main_Module__loggerFxn8__C)
                  8919aa38    00000004     TRS_SYSBIOS_pe66.oe66 (.const:xdc_runtime_Main_Module__loggerObj__C)
                  8919aa3c    00000004     TRS_SYSBIOS_pe66.oe66 (.const:xdc_runtime_Memory_defaultHeapInstance__C)
                  8919aa40    00000004     TRS_SYSBIOS_pe66.oe66 (.const:xdc_runtime_Startup_execImpl__C)
                  8919aa44    00000004     TRS_SYSBIOS_pe66.oe66 (.const:xdc_runtime_Startup_maxPasses__C)
                  8919aa48    00000004     TRS_SYSBIOS_pe66.oe66 (.const:xdc_runtime_Startup_sfxnRts__C)
                  8919aa4c    00000004     TRS_SYSBIOS_pe66.oe66 (.const:xdc_runtime_Startup_sfxnTab__C)
                  8919aa50    00000004     TRS_SYSBIOS_pe66.oe66 (.const:xdc_runtime_Startup_lastFxns__A)
                  8919aa54    00000004     TRS_SYSBIOS_pe66.oe66 (.const:xdc_runtime_Startup_startModsFxn__C)
                  8919aa58    00000004     TRS_SYSBIOS_pe66.oe66 (.const:xdc_runtime_SysMin_bufSize__C)
                  8919aa5c    00000004     TRS_SYSBIOS_pe66.oe66 (.const:xdc_runtime_SysMin_outputFunc__C)
                  8919aa60    00000004     TRS_SYSBIOS_pe66.oe66 (.const:xdc_runtime_System_Module__gateObj__C)
                  8919aa64    00000004     TRS_SYSBIOS_pe66.oe66 (.const:xdc_runtime_System_extendFxn__C)
                  8919aa68    00000004     TRS_SYSBIOS_pe66.oe66 (.const:xdc_runtime_System_maxAtexitHandlers__C)
                  8919aa6c    00000004     TRS_SYSBIOS_pe66.oe66 (.const:xdc_runtime_Text_charTab__C)
                  8919aa70    00000004     TRS_SYSBIOS_pe66.oe66 (.const:xdc_runtime_Text_nameEmpty__C)
                  8919aa74    00000004     TRS_SYSBIOS_pe66.oe66 (.const:xdc_runtime_Text_nameStatic__C)
                  8919aa78    00000004     TRS_SYSBIOS_pe66.oe66 (.const:xdc_runtime_Text_nameUnknown__C)
                  8919aa7c    00000004     TRS_SYSBIOS_pe66.oe66 (.const:xdc_runtime_Text_nodeTab__C)
                  8919aa80    00000004     TRS_SYSBIOS_pe66.oe66 (.const:xdc_runtime_Text_visitRopeFxn__C)
                  8919aa84    00000002     TRS_SYSBIOS_pe66.oe66 (.const:ti_sysbios_BIOS_Module__id__C)
                  8919aa86    00000002     --HOLE-- [fill = 0]
                  8919aa88    00000003     delcom_gsm_L1_modules_6400+_eabi.lib : burst_assemble_data.obj (.const:tail_bits)
                  8919aa8b    00000001     --HOLE-- [fill = 0]
                  8919aa8c    00000002     TRS_SYSBIOS_pe66.oe66 (.const:ti_sysbios_family_c64p_Exception_Module__id__C)
                  8919aa8e    00000002     --HOLE-- [fill = 0]
                  8919aa90    00000002     delcom_gsm_L1_modules_6400+_eabi.lib : gmsk_equalize16_tabs.obj (.const:state_init_rach)
                  8919aa92    00000002     --HOLE-- [fill = 0]
                  8919aa94    00000002     TRS_SYSBIOS_pe66.oe66 (.const:ti_sysbios_family_c64p_Hwi_Module__id__C)
                  8919aa96    00000002     --HOLE-- [fill = 0]
                  8919aa98    00000002     delcom_gsm_L1_modules_6400+_eabi.lib : gmsk_equalize16_tabs.obj (.const:state_init_sync)
                  8919aa9a    00000002     --HOLE-- [fill = 0]
                  8919aa9c    00000002     TRS_SYSBIOS_pe66.oe66 (.const:ti_sysbios_family_c64p_Hwi_Module__loggerDefined__C)
                  8919aa9e    00000002     --HOLE-- [fill = 0]
                  8919aaa0    00000002     TRS_SYSBIOS_pe66.oe66 (.const:ti_sysbios_gates_GateMutex_Module__id__C)
                  8919aaa2    00000002     --HOLE-- [fill = 0]
                  8919aaa4    00000002     TRS_SYSBIOS_pe66.oe66 (.const:ti_sysbios_hal_Hwi_Module__id__C)
                  8919aaa6    00000002     --HOLE-- [fill = 0]
                  8919aaa8    00000002     TRS_SYSBIOS_pe66.oe66 (.const:ti_sysbios_heaps_HeapMem_Module__id__C)
                  8919aaaa    00000002     --HOLE-- [fill = 0]
                  8919aaac    00000002     TRS_SYSBIOS_pe66.oe66 (.const:ti_sysbios_knl_Clock_Module__id__C)
                  8919aaae    00000002     --HOLE-- [fill = 0]
                  8919aab0    00000002     TRS_SYSBIOS_pe66.oe66 (.const:ti_sysbios_knl_Clock_Module__loggerDefined__C)
                  8919aab2    00000002     --HOLE-- [fill = 0]
                  8919aab4    00000002     TRS_SYSBIOS_pe66.oe66 (.const:ti_sysbios_knl_Semaphore_Module__id__C)
                  8919aab6    00000002     --HOLE-- [fill = 0]
                  8919aab8    00000002     TRS_SYSBIOS_pe66.oe66 (.const:ti_sysbios_knl_Semaphore_Module__loggerDefined__C)
                  8919aaba    00000002     --HOLE-- [fill = 0]
                  8919aabc    00000002     TRS_SYSBIOS_pe66.oe66 (.const:ti_sysbios_knl_Swi_Module__id__C)
                  8919aabe    00000002     --HOLE-- [fill = 0]
                  8919aac0    00000002     TRS_SYSBIOS_pe66.oe66 (.const:ti_sysbios_knl_Swi_Module__loggerDefined__C)
                  8919aac2    00000002     --HOLE-- [fill = 0]
                  8919aac4    00000002     TRS_SYSBIOS_pe66.oe66 (.const:ti_sysbios_knl_Task_Module__id__C)
                  8919aac6    00000002     --HOLE-- [fill = 0]
                  8919aac8    00000002     TRS_SYSBIOS_pe66.oe66 (.const:ti_sysbios_knl_Task_Module__loggerDefined__C)
                  8919aaca    00000002     --HOLE-- [fill = 0]
                  8919aacc    00000002     TRS_SYSBIOS_pe66.oe66 (.const:ti_sysbios_knl_Task_deleteTerminatedTasks__C)
                  8919aace    00000002     --HOLE-- [fill = 0]
                  8919aad0    00000002     TRS_SYSBIOS_pe66.oe66 (.const:ti_sysbios_knl_Task_initStackFlag__C)
                  8919aad2    00000002     --HOLE-- [fill = 0]
                  8919aad4    00000002     TRS_SYSBIOS_pe66.oe66 (.const:ti_sysbios_timers_timer64_Timer_Module__id__C)
                  8919aad6    00000002     --HOLE-- [fill = 0]
                  8919aad8    00000002     TRS_SYSBIOS_pe66.oe66 (.const:ti_sysbios_timers_timer64_Timer_startupNeeded__C)
                  8919aada    00000002     --HOLE-- [fill = 0]
                  8919aadc    00000002     TRS_SYSBIOS_pe66.oe66 (.const:xdc_runtime_Core_Module__id__C)
                  8919aade    00000002     --HOLE-- [fill = 0]
                  8919aae0    00000002     TRS_SYSBIOS_pe66.oe66 (.const:xdc_runtime_Error_Module__loggerDefined__C)
                  8919aae2    00000002     --HOLE-- [fill = 0]
                  8919aae4    00000002     TRS_SYSBIOS_pe66.oe66 (.const:xdc_runtime_Error_maxDepth__C)
                  8919aae6    00000002     --HOLE-- [fill = 0]
                  8919aae8    00000002     TRS_SYSBIOS_pe66.oe66 (.const:xdc_runtime_LoggerBuf_Module__id__C)
                  8919aaea    00000002     --HOLE-- [fill = 0]
                  8919aaec    00000002     TRS_SYSBIOS_pe66.oe66 (.const:xdc_runtime_LoggerBuf_filterByLevel__C)
                  8919aaee    00000002     --HOLE-- [fill = 0]
                  8919aaf0    00000002     TRS_SYSBIOS_pe66.oe66 (.const:xdc_runtime_Main_Module__id__C)
                  8919aaf2    00000002     --HOLE-- [fill = 0]
                  8919aaf4    00000002     TRS_SYSBIOS_pe66.oe66 (.const:xdc_runtime_Main_Module__loggerDefined__C)
                  8919aaf6    00000002     --HOLE-- [fill = 0]
                  8919aaf8    00000002     TRS_SYSBIOS_pe66.oe66 (.const:xdc_runtime_Memory_Module__id__C)
                  8919aafa    00000002     --HOLE-- [fill = 0]
                  8919aafc    00000002     TRS_SYSBIOS_pe66.oe66 (.const:xdc_runtime_SysMin_flushAtExit__C)
                  8919aafe    00000002     --HOLE-- [fill = 0]
                  8919ab00    00000002     TRS_SYSBIOS_pe66.oe66 (.const:xdc_runtime_Text_charCnt__C)
                  8919ab02    00000002     --HOLE-- [fill = 0]
                  8919ab04    00000002     TRS_SYSBIOS_pe66.oe66 (.const:xdc_runtime_Text_isLoaded__C)
                  8919ab06    00000002     --HOLE-- [fill = 0]
                  8919ab08    00000002     TRS_SYSBIOS_pe66.oe66 (.const:xdc_runtime_Text_registryModsLastId__C)
                  8919ab0a    00000002     --HOLE-- [fill = 0]
                  8919ab0c    00000002     TRS_SYSBIOS_pe66.oe66 (.const:xdc_runtime_Text_unnamedModsLastId__C)

.fardata.1 
*          0    8919ab10    000012b8     
                  8919ab10    00000280     L1Manager.lib : GSMConfig.obj (.fardata:Fill_frame_bcch_burst)
                  8919ad90    00000208                   : GSMConfig.obj (.fardata:gDDCMatrix)
                  8919af98    000001e8     TRS_SYSBIOS_pe66.oe66 (.fardata)
                  8919b180    000001e0     rts6600_elf.lib : defs.obj (.fardata:_ftable)
                  8919b360    00000180     TRS_SYSBIOS_pe66.oe66 (.fardata:ti_sysbios_timers_timer64_Timer_Module_State_0_device__A)
                  8919b4e0    000000b4     L1Manager.lib : GSMConfig.obj (.fardata:dummy_burst_tch)
                  8919b594    0000000c     rts6600_elf.lib : exit.obj (.fardata)
                  8919b5a0    000000a0                     : lowlev.obj (.fardata:_stream)
                  8919b640    00000080     TRS_SYSBIOS_pe66.oe66 (.fardata:ti_sysbios_knl_Swi_Module_State_0_readyQ__A)
                  8919b6c0    00000080     TRS_SYSBIOS_pe66.oe66 (.fardata:ti_sysbios_knl_Task_Module_State_0_readyQ__A)
                  8919b740    00000080     TRS_SYSBIOS_pe66.oe66 (.fardata:ti_sysbios_timers_timer64_Timer_Module_State_0_gctrl__A)
                  8919b7c0    00000080     TRS_SYSBIOS_pe66.oe66 (.fardata:ti_sysbios_timers_timer64_Timer_Module_State_0_handles__A)
                  8919b840    00000080     TRS_SYSBIOS_pe66.oe66 (.fardata:ti_sysbios_timers_timer64_Timer_Module_State_0_intFreqs__A)
                  8919b8c0    00000078     rts6600_elf.lib : lowlev.obj (.fardata:_device)
                  8919b938    00000008                     : _lock.obj (.fardata)
                  8919b940    0000004c     TRS_SYSBIOS_pe66.oe66 (.fardata:ti_sysbios_timers_timer64_Timer_Object__table__V)
                  8919b98c    00000004     delcom_gsm_L1_modules_6400+_eabi.lib : ctrl_decode_bits.obj (.fardata)
                  8919b990    00000044     TRS_SYSBIOS_pe66.oe66 (.fardata:ti_sysbios_knl_Task_Object__table__V)
                  8919b9d4    0000000a     L1Manager.lib : GSMConfig.obj (.fardata)
                  8919b9de    00000002     --HOLE--
                  8919b9e0    00000040     TRS_SYSBIOS_pe66.oe66 (.fardata:ti_sysbios_gates_GateMutex_Object__table__V)
                  8919ba20    00000033     GsmUtil.lib : TDFrmTbl.obj (.fardata:RACHC4_6)
                  8919ba53    00000001     --HOLE--
                  8919ba54    00000004     delcom_gsm_L1_modules_6400+_eabi.lib : ctrl_encode_bits.obj (.fardata)
                  8919ba58    00000004                                          : ctrl_rach_decode_bits.obj (.fardata)
                  8919ba5c    00000004                                          : ctrl_rach_encode_bits.obj (.fardata)
                  8919ba60    00000030     GsmUtil.lib : TDFrmTbl.obj (.fardata:LoopbackTestFull)
                  8919ba90    00000030     TRS_SYSBIOS_pe66.oe66 (.fardata:ti_sysbios_knl_Swi_Object__table__V)
                  8919bac0    00000024     TRS_SYSBIOS_pe66.oe66 (.fardata:xdc_runtime_LoggerBuf_Object__table__V)
                  8919bae4    00000020     CriticalMem.obj (.fardata)
                  8919bb04    00000004     delcom_gsm_L1_modules_6400+_eabi.lib : ctrl_sch_decode_bits.obj (.fardata)
                  8919bb08    00000004                                          : ctrl_sch_encode_bits.obj (.fardata)
                  8919bb0c    00000004                                          : tch_afs_decode_bits.obj (.fardata)
                  8919bb10    00000020     GsmUtil.lib : TDFrmTbl.obj (.fardata:gSACCH_TF)
                  8919bb30    00000020     L1Manager.lib : GSMConfig.obj (.fardata:nDecodeFail_VII_DL)
                  8919bb50    00000020                   : GSMConfig.obj (.fardata:nDecodeSucess_VII_DL)
                  8919bb70    00000020                   : GSMConfig.obj (.fardata:nDecodeSucess_VII_UL)
                  8919bb90    00000020                   : GSMConfig.obj (.fardata:nDemodFail_VII_DL)
                  8919bbb0    00000020                   : GSMConfig.obj (.fardata:nDemodFail_VII_UL)
                  8919bbd0    00000020                   : GSMConfig.obj (.fardata:nDemodSucess_VII_DL)
                  8919bbf0    00000020                   : GSMConfig.obj (.fardata:nDemodTSC_NOT_FOUND_DL)
                  8919bc10    00000020                   : GSMConfig.obj (.fardata:nDemodTSC_NOT_FOUND_UL)
                  8919bc30    00000020                   : GSMConfig.obj (.fardata:nFACCH_I)
                  8919bc50    00000020                   : GSMConfig.obj (.fardata:nSACCH_V)
                  8919bc70    00000020                   : GSMConfig.obj (.fardata:nSACCH_VII_DL)
                  8919bc90    00000020                   : GSMConfig.obj (.fardata:nSACCH_VII_UL)
                  8919bcb0    00000020                   : GSMConfig.obj (.fardata:nSDCCH_V)
                  8919bcd0    00000020                   : GSMConfig.obj (.fardata:nSDCCH_VII_DL)
                  8919bcf0    00000020                   : GSMConfig.obj (.fardata:nSDCCH_VII_UL)
                  8919bd10    00000020                   : GSMConfig.obj (.fardata:nTrafficPak_DL)
                  8919bd30    00000020                   : GSMConfig.obj (.fardata:nTrafficPak_UL)
                  8919bd50    0000001b     GsmUtil.lib : TDFrmTbl.obj (.fardata:RACHC5)
                  8919bd6b    00000001     --HOLE--
                  8919bd6c    00000004     delcom_gsm_L1_modules_6400+_eabi.lib : tch_fs_decode_bits.obj (.fardata)
                  8919bd70    00000018     rts6600_elf.lib : log.obj (.fardata:A$1)
                  8919bd88    00000004     delcom_gsm_L1_modules_6400+_eabi.lib : tch_fs_encode_bits.obj (.fardata)
                  8919bd8c    00000004     rts6600_elf.lib : defs.obj (.fardata)
                  8919bd90    00000018                     : log.obj (.fardata:B$2)
                  8919bda8    00000004                     : dtor_list.obj (.fardata)
                  8919bdac    00000004                     : errno.obj (.fardata)
                  8919bdb0    00000018     GsmUtil.lib : TDFrmTbl.obj (.fardata:FACCH_TCHF)

.fardata.2 
*          0    8919bdd0    00000018     
                  8919bdd0    00000018     TRS_SYSBIOS_pe66.oe66 (.fardata:ti_sysbios_family_c64p_Hwi_Object__table__V)

.fardata.3 
*          0    8919bdf0    00000017     
                  8919bdf0    00000017     L1Manager.lib : GSMConfig.obj (.fardata:FILL_FRAME_BCCH)

.fardata.4 
*          0    8919be10    00000017     
                  8919be10    00000017     L1Manager.lib : GSMConfig.obj (.fardata:FILL_FRAME_DCCH)

.fardata.5 
*          0    8919be30    00000014     
                  8919be30    00000014     TRS_SYSBIOS_pe66.oe66 (.fardata:ti_sysbios_heaps_HeapMem_Object__table__V)

.fardata.6 
*          0    8919be50    00000018     
                  8919be50    00000010     TRS_SYSBIOS_pe66.oe66 (.fardata:xdc_runtime_System_Module_State_0_atexitHandlers__A)
                  8919be60    00000008     L1Manager.lib : GSMConfig.obj (.fardata:gAMR_CodecRates$3)

.fardata.7 
*          0    8919be70    00000008     
                  8919be70    00000008     TRS_SYSBIOS_pe66.oe66 (.fardata:ti_sysbios_hal_Hwi_Object__table__V)

.fardata.8 
*          0    8919be80    00000008     
                  8919be80    00000008     TRS_SYSBIOS_pe66.oe66 (.fardata:ti_sysbios_hal_Timer_Object__table__V)

.fardata.9 
*          0    8919be90    00000005     
                  8919be90    00000005     GsmUtil.lib : TDFrmTbl.obj (.fardata:FCCH)

.fardata.10 
*          0    8919bea0    00000005     
                  8919bea0    00000005     GsmUtil.lib : TDFrmTbl.obj (.fardata:SCH)

.fardata.11 
*          0    8919beb0    00000004     
                  8919beb0    00000004     GsmUtil.lib : TDFrmTbl.obj (.fardata:BCCH)

.fardata.12 
*          0    8919bec0    00000004     
                  8919bec0    00000004     GsmUtil.lib : TDFrmTbl.obj (.fardata:CCCH_0)

.fardata.13 
*          0    8919bed0    00000004     
                  8919bed0    00000004     GsmUtil.lib : TDFrmTbl.obj (.fardata:CCCH_1)

.fardata.14 
*          0    8919bee0    00000004     
                  8919bee0    00000004     GsmUtil.lib : TDFrmTbl.obj (.fardata:CCCH_2)

.fardata.15 
*          0    8919bef0    00000004     
                  8919bef0    00000004     GsmUtil.lib : TDFrmTbl.obj (.fardata:CCCH_3)

.fardata.16 
*          0    8919bf00    00000004     
                  8919bf00    00000004     GsmUtil.lib : TDFrmTbl.obj (.fardata:CCCH_4)

.fardata.17 
*          0    8919bf10    00000004     
                  8919bf10    00000004     GsmUtil.lib : TDFrmTbl.obj (.fardata:CCCH_5)

.fardata.18 
*          0    8919bf20    00000004     
                  8919bf20    00000004     GsmUtil.lib : TDFrmTbl.obj (.fardata:CCCH_6)

.fardata.19 
*          0    8919bf30    00000004     
                  8919bf30    00000004     GsmUtil.lib : TDFrmTbl.obj (.fardata:CCCH_7)

.fardata.20 
*          0    8919bf40    00000004     
                  8919bf40    00000004     GsmUtil.lib : TDFrmTbl.obj (.fardata:CCCH_8)

.fardata.21 
*          0    8919bf50    00000004     
                  8919bf50    00000004     GsmUtil.lib : TDFrmTbl.obj (.fardata:SACCH_C4_0D)

.fardata.22 
*          0    8919bf60    00000004     
                  8919bf60    00000004     GsmUtil.lib : TDFrmTbl.obj (.fardata:SACCH_C4_0U)

.fardata.23 
*          0    8919bf70    00000004     
                  8919bf70    00000004     GsmUtil.lib : TDFrmTbl.obj (.fardata:SACCH_C4_1D)

.fardata.24 
*          0    8919bf80    00000004     
                  8919bf80    00000004     GsmUtil.lib : TDFrmTbl.obj (.fardata:SACCH_C4_1U)

.fardata.25 
*          0    8919bf90    00000004     
                  8919bf90    00000004     GsmUtil.lib : TDFrmTbl.obj (.fardata:SACCH_C4_2D)

.fardata.26 
*          0    8919bfa0    00000004     
                  8919bfa0    00000004     GsmUtil.lib : TDFrmTbl.obj (.fardata:SACCH_C4_2U)

.fardata.27 
*          0    8919bfb0    00000004     
                  8919bfb0    00000004     GsmUtil.lib : TDFrmTbl.obj (.fardata:SACCH_C4_3D)

.fardata.28 
*          0    8919bfc0    00000004     
                  8919bfc0    00000004     GsmUtil.lib : TDFrmTbl.obj (.fardata:SACCH_C4_3U)

.fardata.29 
*          0    8919bfd0    00000004     
                  8919bfd0    00000004     GsmUtil.lib : TDFrmTbl.obj (.fardata:SACCH_C8_0D)

.fardata.30 
*          0    8919bfe0    00000004     
                  8919bfe0    00000004     GsmUtil.lib : TDFrmTbl.obj (.fardata:SACCH_C8_0U)

.fardata.31 
*          0    8919bff0    00000004     
                  8919bff0    00000004     GsmUtil.lib : TDFrmTbl.obj (.fardata:SACCH_C8_1D)

.fardata.32 
*          0    8919c000    00000004     
                  8919c000    00000004     GsmUtil.lib : TDFrmTbl.obj (.fardata:SACCH_C8_1U)

.fardata.33 
*          0    8919c010    00000004     
                  8919c010    00000004     GsmUtil.lib : TDFrmTbl.obj (.fardata:SACCH_C8_2D)

.fardata.34 
*          0    8919c020    00000004     
                  8919c020    00000004     GsmUtil.lib : TDFrmTbl.obj (.fardata:SACCH_C8_2U)

.fardata.35 
*          0    8919c030    00000004     
                  8919c030    00000004     GsmUtil.lib : TDFrmTbl.obj (.fardata:SACCH_C8_3D)

.fardata.36 
*          0    8919c040    00000004     
                  8919c040    00000004     GsmUtil.lib : TDFrmTbl.obj (.fardata:SACCH_C8_3U)

.fardata.37 
*          0    8919c050    00000004     
                  8919c050    00000004     GsmUtil.lib : TDFrmTbl.obj (.fardata:SACCH_C8_4D)

.fardata.38 
*          0    8919c060    00000004     
                  8919c060    00000004     GsmUtil.lib : TDFrmTbl.obj (.fardata:SACCH_C8_4U)

.fardata.39 
*          0    8919c070    00000004     
                  8919c070    00000004     GsmUtil.lib : TDFrmTbl.obj (.fardata:SACCH_C8_5D)

.fardata.40 
*          0    8919c080    00000004     
                  8919c080    00000004     GsmUtil.lib : TDFrmTbl.obj (.fardata:SACCH_C8_5U)

.fardata.41 
*          0    8919c090    00000004     
                  8919c090    00000004     GsmUtil.lib : TDFrmTbl.obj (.fardata:SACCH_C8_6D)

.fardata.42 
*          0    8919c0a0    00000004     
                  8919c0a0    00000004     GsmUtil.lib : TDFrmTbl.obj (.fardata:SACCH_C8_6U)

.fardata.43 
*          0    8919c0b0    00000004     
                  8919c0b0    00000004     GsmUtil.lib : TDFrmTbl.obj (.fardata:SACCH_C8_7D)

.fardata.44 
*          0    8919c0c0    00000004     
                  8919c0c0    00000004     GsmUtil.lib : TDFrmTbl.obj (.fardata:SACCH_C8_7U)

.fardata.45 
*          0    8919c0d0    00000004     
                  8919c0d0    00000004     GsmUtil.lib : TDFrmTbl.obj (.fardata:SACCH_TF_T0)

.fardata.46 
*          0    8919c0e0    00000004     
                  8919c0e0    00000004     GsmUtil.lib : TDFrmTbl.obj (.fardata:SACCH_TF_T1)

.fardata.47 
*          0    8919c0f0    00000004     
                  8919c0f0    00000004     GsmUtil.lib : TDFrmTbl.obj (.fardata:SACCH_TF_T2)

.fardata.48 
*          0    8919c100    00000004     
                  8919c100    00000004     GsmUtil.lib : TDFrmTbl.obj (.fardata:SACCH_TF_T3)

.fardata.49 
*          0    8919c110    00000004     
                  8919c110    00000004     GsmUtil.lib : TDFrmTbl.obj (.fardata:SACCH_TF_T4)

.fardata.50 
*          0    8919c120    00000004     
                  8919c120    00000004     GsmUtil.lib : TDFrmTbl.obj (.fardata:SACCH_TF_T5)

.fardata.51 
*          0    8919c130    00000004     
                  8919c130    00000004     GsmUtil.lib : TDFrmTbl.obj (.fardata:SACCH_TF_T6)

.fardata.52 
*          0    8919c140    00000004     
                  8919c140    00000004     GsmUtil.lib : TDFrmTbl.obj (.fardata:SACCH_TF_T7)

.fardata.53 
*          0    8919c150    00000004     
                  8919c150    00000004     GsmUtil.lib : TDFrmTbl.obj (.fardata:SDCCH_4_0D)

.fardata.54 
*          0    8919c160    00000004     
                  8919c160    00000004     GsmUtil.lib : TDFrmTbl.obj (.fardata:SDCCH_4_0U)

.fardata.55 
*          0    8919c170    00000004     
                  8919c170    00000004     GsmUtil.lib : TDFrmTbl.obj (.fardata:SDCCH_4_1D)

.fardata.56 
*          0    8919c180    00000004     
                  8919c180    00000004     GsmUtil.lib : TDFrmTbl.obj (.fardata:SDCCH_4_1U)

.fardata.57 
*          0    8919c190    00000004     
                  8919c190    00000004     GsmUtil.lib : TDFrmTbl.obj (.fardata:SDCCH_4_2D)

.fardata.58 
*          0    8919c1a0    00000004     
                  8919c1a0    00000004     GsmUtil.lib : TDFrmTbl.obj (.fardata:SDCCH_4_2U)

.fardata.59 
*          0    8919c1b0    00000004     
                  8919c1b0    00000004     GsmUtil.lib : TDFrmTbl.obj (.fardata:SDCCH_4_3D)

.fardata.60 
*          0    8919c1c0    00000004     
                  8919c1c0    00000004     GsmUtil.lib : TDFrmTbl.obj (.fardata:SDCCH_4_3U)

.fardata.61 
*          0    8919c1d0    00000004     
                  8919c1d0    00000004     GsmUtil.lib : TDFrmTbl.obj (.fardata:SDCCH_8_0D)

.fardata.62 
*          0    8919c1e0    00000004     
                  8919c1e0    00000004     GsmUtil.lib : TDFrmTbl.obj (.fardata:SDCCH_8_0U)

.fardata.63 
*          0    8919c1f0    00000004     
                  8919c1f0    00000004     GsmUtil.lib : TDFrmTbl.obj (.fardata:SDCCH_8_1D)

.fardata.64 
*          0    8919c200    00000004     
                  8919c200    00000004     GsmUtil.lib : TDFrmTbl.obj (.fardata:SDCCH_8_1U)

.fardata.65 
*          0    8919c210    00000004     
                  8919c210    00000004     GsmUtil.lib : TDFrmTbl.obj (.fardata:SDCCH_8_2D)

.fardata.66 
*          0    8919c220    00000004     
                  8919c220    00000004     GsmUtil.lib : TDFrmTbl.obj (.fardata:SDCCH_8_2U)

.fardata.67 
*          0    8919c230    00000004     
                  8919c230    00000004     GsmUtil.lib : TDFrmTbl.obj (.fardata:SDCCH_8_3D)

.fardata.68 
*          0    8919c240    00000004     
                  8919c240    00000004     GsmUtil.lib : TDFrmTbl.obj (.fardata:SDCCH_8_3U)

.fardata.69 
*          0    8919c250    00000004     
                  8919c250    00000004     GsmUtil.lib : TDFrmTbl.obj (.fardata:SDCCH_8_4D)

.fardata.70 
*          0    8919c260    00000004     
                  8919c260    00000004     GsmUtil.lib : TDFrmTbl.obj (.fardata:SDCCH_8_4U)

.fardata.71 
*          0    8919c270    00000004     
                  8919c270    00000004     GsmUtil.lib : TDFrmTbl.obj (.fardata:SDCCH_8_5D)

.fardata.72 
*          0    8919c280    00000004     
                  8919c280    00000004     GsmUtil.lib : TDFrmTbl.obj (.fardata:SDCCH_8_5U)

.fardata.73 
*          0    8919c290    00000004     
                  8919c290    00000004     GsmUtil.lib : TDFrmTbl.obj (.fardata:SDCCH_8_6D)

.fardata.74 
*          0    8919c2a0    00000004     
                  8919c2a0    00000004     GsmUtil.lib : TDFrmTbl.obj (.fardata:SDCCH_8_6U)

.fardata.75 
*          0    8919c2b0    00000004     
                  8919c2b0    00000004     GsmUtil.lib : TDFrmTbl.obj (.fardata:SDCCH_8_7D)

.fardata.76 
*          0    8919c2c0    00000004     
                  8919c2c0    00000004     GsmUtil.lib : TDFrmTbl.obj (.fardata:SDCCH_8_7U)

.fardata.77 
*          0    8919c2d0    00000004     
                  8919c2d0    00000004     TRS_SYSBIOS_pe66.oe66 (.fardata:ti_sysbios_gates_GateHwi_Object__table__V)

.fardata.78 
*          0    8919c2e0    00000001     
                  8919c2e0    00000001     GsmUtil.lib : TDFrmTbl.obj (.fardata:IDLE)

.fardata.79 
*          0    8919c2f0    00000001     
                  8919c2f0    00000001     GsmUtil.lib : TDFrmTbl.obj (.fardata:IDLE_26)

.switch    0    8919c2f4    000007ac     
                  8919c2f4    00000284     CmdIfLib.lib : CmdPkt.obj (.switch:TestCmdPkt)
                  8919c578    00000130                  : CmdPkt.obj (.switch:CmdPkt_GetCommand)
                  8919c6a8    00000130                  : CmdPkt.obj (.switch:CmdPkt_ValidatePacket)
                  8919c7d8    00000130                  : CmdPkt.obj (.switch:TestCmdPkt_Print)
                  8919c908    00000040     GsmUtil.lib : TDFrm.obj (.switch:TDFrm_Print)
                  8919c948    00000030     L1Manager.lib : GSMConfig.obj (.switch:TxManager_OnConfigureAreaJammingCmd$7)
                  8919c978    0000002c     delcom_gsm_L1_modules_6400+_eabi.lib : tch_afs_decode_bits.obj (.switch:decode_bits)
                  8919c9a4    00000020     L1Manager.lib : GSMConfig.obj (.switch:L1Receiver_CaptureNormalBurst$3)
                  8919c9c4    00000020                   : GSMConfig.obj (.switch:RxManager_OnDecodeIQdata)
                  8919c9e4    00000020                   : GSMConfig.obj (.switch:TxManager_OnConfigureTransmitterCmd$7)
                  8919ca04    00000020                   : GSMConfig.obj (.switch:TxManager_OnConfigureVBTSMode$7)
                  8919ca24    0000001c                   : GSMConfig.obj (.switch:L1Config_Setup)
                  8919ca40    0000001c                   : GSMConfig.obj (.switch:L1Receiver_CaptureBurst)
                  8919ca5c    00000014                   : GSMConfig.obj (.switch:L1Transmitter_AssembleBurst)
                  8919ca70    00000010     CmdIfLib.lib : CmdPkt.obj (.switch:DataPkt_CopyRealPacket)
                  8919ca80    00000010                  : CmdPkt.obj (.switch:DataPkt_GetRealPktSize)
                  8919ca90    00000010                  : CmdPkt.obj (.switch:DataPkt_IsFull)

.cio       0    8919caa0    00000120     UNINITIALIZED
                  8919caa0    00000120     rts6600_elf.lib : trgmsg.obj (.cio)

.bss       0    8919cbc0    0000001f     UNINITIALIZED
                  8919cbc0    0000001c     L1Manager.lib : GSMConfig.obj (.bss)
                  8919cbdc    00000002     GenUtil.lib : FIFO.obj (.bss)
                  8919cbde    00000001     CmdIfLib.lib : CmdPkt.obj (.bss)

.neardata 
*          0    8919cbe0    00000070     
                  8919cbe0    00000050     L1Manager.lib : GSMConfig.obj (.neardata)
                  8919cc30    00000009     ModMgr.obj (.neardata)
                  8919cc39    00000003     --HOLE-- [fill = 0]
                  8919cc3c    00000008     GenUtil.lib : FIFO.obj (.neardata)
                  8919cc44    00000005     CmdIfMgr.lib : CmdRouter.obj (.neardata)
                  8919cc49    00000003     --HOLE-- [fill = 0]
                  8919cc4c    00000004     CriticalMem.obj (.neardata)

.rodata    0    8919cc50    00000010     
                  8919cc50    0000000c     GsmUtil.lib : Clock.obj (.rodata)
                  8919cc5c    00000004                 : GSMTime.obj (.rodata)

.cinit     0    8919cc60    00001290     
                  8919cc60    00000b10     (.cinit..fardata.1.load) [load image, compression = rle]
                  8919d770    0000006a     (.cinit..heap_ram.load) [load image, compression = rle]
                  8919d7da    00000002     --HOLE-- [fill = 0]
                  8919d7dc    0000001e     (.cinit..neardata.load) [load image, compression = rle]
                  8919d7fa    00000002     --HOLE-- [fill = 0]
                  8919d7fc    00000017     (.cinit..fardata.5.load) [load image, compression = rle]
                  8919d813    00000001     --HOLE-- [fill = 0]
                  8919d814    00000016     (.cinit..fardata.2.load) [load image, compression = rle]
                  8919d82a    00000002     --HOLE-- [fill = 0]
                  8919d82c    00000012     (.cinit..rodata.load) [load image, compression = rle]
                  8919d83e    00000002     --HOLE-- [fill = 0]
                  8919d840    00000010     (.cinit..fardata.6.load) [load image, compression = rle]
                  8919d850    0000000d     (.cinit..fardata.7.load) [load image, compression = rle]
                  8919d85d    00000003     --HOLE-- [fill = 0]
                  8919d860    0000000d     (.cinit..fardata.8.load) [load image, compression = rle]
                  8919d86d    00000003     --HOLE-- [fill = 0]
                  8919d870    0000000c     (.cinit..fardata.4.load) [load image, compression = rle]
                  8919d87c    0000000c     (__TI_handler_table)
                  8919d888    0000000b     (.cinit..fardata.10.load) [load image, compression = rle]
                  8919d893    00000001     --HOLE-- [fill = 0]
                  8919d894    0000000b     (.cinit..fardata.9.load) [load image, compression = rle]
                  8919d89f    00000001     --HOLE-- [fill = 0]
                  8919d8a0    0000000a     (.cinit..fardata.11.load) [load image, compression = rle]
                  8919d8aa    00000002     --HOLE-- [fill = 0]
                  8919d8ac    0000000a     (.cinit..fardata.12.load) [load image, compression = rle]
                  8919d8b6    00000002     --HOLE-- [fill = 0]
                  8919d8b8    0000000a     (.cinit..fardata.13.load) [load image, compression = rle]
                  8919d8c2    00000002     --HOLE-- [fill = 0]
                  8919d8c4    0000000a     (.cinit..fardata.14.load) [load image, compression = rle]
                  8919d8ce    00000002     --HOLE-- [fill = 0]
                  8919d8d0    0000000a     (.cinit..fardata.15.load) [load image, compression = rle]
                  8919d8da    00000002     --HOLE-- [fill = 0]
                  8919d8dc    0000000a     (.cinit..fardata.16.load) [load image, compression = rle]
                  8919d8e6    00000002     --HOLE-- [fill = 0]
                  8919d8e8    0000000a     (.cinit..fardata.17.load) [load image, compression = rle]
                  8919d8f2    00000002     --HOLE-- [fill = 0]
                  8919d8f4    0000000a     (.cinit..fardata.18.load) [load image, compression = rle]
                  8919d8fe    00000002     --HOLE-- [fill = 0]
                  8919d900    0000000a     (.cinit..fardata.19.load) [load image, compression = rle]
                  8919d90a    00000002     --HOLE-- [fill = 0]
                  8919d90c    0000000a     (.cinit..fardata.20.load) [load image, compression = rle]
                  8919d916    00000002     --HOLE-- [fill = 0]
                  8919d918    0000000a     (.cinit..fardata.21.load) [load image, compression = rle]
                  8919d922    00000002     --HOLE-- [fill = 0]
                  8919d924    0000000a     (.cinit..fardata.22.load) [load image, compression = rle]
                  8919d92e    00000002     --HOLE-- [fill = 0]
                  8919d930    0000000a     (.cinit..fardata.23.load) [load image, compression = rle]
                  8919d93a    00000002     --HOLE-- [fill = 0]
                  8919d93c    0000000a     (.cinit..fardata.24.load) [load image, compression = rle]
                  8919d946    00000002     --HOLE-- [fill = 0]
                  8919d948    0000000a     (.cinit..fardata.25.load) [load image, compression = rle]
                  8919d952    00000002     --HOLE-- [fill = 0]
                  8919d954    0000000a     (.cinit..fardata.26.load) [load image, compression = rle]
                  8919d95e    00000002     --HOLE-- [fill = 0]
                  8919d960    0000000a     (.cinit..fardata.27.load) [load image, compression = rle]
                  8919d96a    00000002     --HOLE-- [fill = 0]
                  8919d96c    0000000a     (.cinit..fardata.28.load) [load image, compression = rle]
                  8919d976    00000002     --HOLE-- [fill = 0]
                  8919d978    0000000a     (.cinit..fardata.29.load) [load image, compression = rle]
                  8919d982    00000002     --HOLE-- [fill = 0]
                  8919d984    0000000a     (.cinit..fardata.3.load) [load image, compression = rle]
                  8919d98e    00000002     --HOLE-- [fill = 0]
                  8919d990    0000000a     (.cinit..fardata.30.load) [load image, compression = rle]
                  8919d99a    00000002     --HOLE-- [fill = 0]
                  8919d99c    0000000a     (.cinit..fardata.31.load) [load image, compression = rle]
                  8919d9a6    00000002     --HOLE-- [fill = 0]
                  8919d9a8    0000000a     (.cinit..fardata.32.load) [load image, compression = rle]
                  8919d9b2    00000002     --HOLE-- [fill = 0]
                  8919d9b4    0000000a     (.cinit..fardata.33.load) [load image, compression = rle]
                  8919d9be    00000002     --HOLE-- [fill = 0]
                  8919d9c0    0000000a     (.cinit..fardata.34.load) [load image, compression = rle]
                  8919d9ca    00000002     --HOLE-- [fill = 0]
                  8919d9cc    0000000a     (.cinit..fardata.35.load) [load image, compression = rle]
                  8919d9d6    00000002     --HOLE-- [fill = 0]
                  8919d9d8    0000000a     (.cinit..fardata.36.load) [load image, compression = rle]
                  8919d9e2    00000002     --HOLE-- [fill = 0]
                  8919d9e4    0000000a     (.cinit..fardata.37.load) [load image, compression = rle]
                  8919d9ee    00000002     --HOLE-- [fill = 0]
                  8919d9f0    0000000a     (.cinit..fardata.38.load) [load image, compression = rle]
                  8919d9fa    00000002     --HOLE-- [fill = 0]
                  8919d9fc    0000000a     (.cinit..fardata.39.load) [load image, compression = rle]
                  8919da06    00000002     --HOLE-- [fill = 0]
                  8919da08    0000000a     (.cinit..fardata.40.load) [load image, compression = rle]
                  8919da12    00000002     --HOLE-- [fill = 0]
                  8919da14    0000000a     (.cinit..fardata.41.load) [load image, compression = rle]
                  8919da1e    00000002     --HOLE-- [fill = 0]
                  8919da20    0000000a     (.cinit..fardata.42.load) [load image, compression = rle]
                  8919da2a    00000002     --HOLE-- [fill = 0]
                  8919da2c    0000000a     (.cinit..fardata.43.load) [load image, compression = rle]
                  8919da36    00000002     --HOLE-- [fill = 0]
                  8919da38    0000000a     (.cinit..fardata.44.load) [load image, compression = rle]
                  8919da42    00000002     --HOLE-- [fill = 0]
                  8919da44    0000000a     (.cinit..fardata.45.load) [load image, compression = rle]
                  8919da4e    00000002     --HOLE-- [fill = 0]
                  8919da50    0000000a     (.cinit..fardata.46.load) [load image, compression = rle]
                  8919da5a    00000002     --HOLE-- [fill = 0]
                  8919da5c    0000000a     (.cinit..fardata.47.load) [load image, compression = rle]
                  8919da66    00000002     --HOLE-- [fill = 0]
                  8919da68    0000000a     (.cinit..fardata.48.load) [load image, compression = rle]
                  8919da72    00000002     --HOLE-- [fill = 0]
                  8919da74    0000000a     (.cinit..fardata.49.load) [load image, compression = rle]
                  8919da7e    00000002     --HOLE-- [fill = 0]
                  8919da80    0000000a     (.cinit..fardata.50.load) [load image, compression = rle]
                  8919da8a    00000002     --HOLE-- [fill = 0]
                  8919da8c    0000000a     (.cinit..fardata.51.load) [load image, compression = rle]
                  8919da96    00000002     --HOLE-- [fill = 0]
                  8919da98    0000000a     (.cinit..fardata.52.load) [load image, compression = rle]
                  8919daa2    00000002     --HOLE-- [fill = 0]
                  8919daa4    0000000a     (.cinit..fardata.53.load) [load image, compression = rle]
                  8919daae    00000002     --HOLE-- [fill = 0]
                  8919dab0    0000000a     (.cinit..fardata.54.load) [load image, compression = rle]
                  8919daba    00000002     --HOLE-- [fill = 0]
                  8919dabc    0000000a     (.cinit..fardata.55.load) [load image, compression = rle]
                  8919dac6    00000002     --HOLE-- [fill = 0]
                  8919dac8    0000000a     (.cinit..fardata.56.load) [load image, compression = rle]
                  8919dad2    00000002     --HOLE-- [fill = 0]
                  8919dad4    0000000a     (.cinit..fardata.57.load) [load image, compression = rle]
                  8919dade    00000002     --HOLE-- [fill = 0]
                  8919dae0    0000000a     (.cinit..fardata.58.load) [load image, compression = rle]
                  8919daea    00000002     --HOLE-- [fill = 0]
                  8919daec    0000000a     (.cinit..fardata.59.load) [load image, compression = rle]
                  8919daf6    00000002     --HOLE-- [fill = 0]
                  8919daf8    0000000a     (.cinit..fardata.60.load) [load image, compression = rle]
                  8919db02    00000002     --HOLE-- [fill = 0]
                  8919db04    0000000a     (.cinit..fardata.61.load) [load image, compression = rle]
                  8919db0e    00000002     --HOLE-- [fill = 0]
                  8919db10    0000000a     (.cinit..fardata.62.load) [load image, compression = rle]
                  8919db1a    00000002     --HOLE-- [fill = 0]
                  8919db1c    0000000a     (.cinit..fardata.63.load) [load image, compression = rle]
                  8919db26    00000002     --HOLE-- [fill = 0]
                  8919db28    0000000a     (.cinit..fardata.64.load) [load image, compression = rle]
                  8919db32    00000002     --HOLE-- [fill = 0]
                  8919db34    0000000a     (.cinit..fardata.65.load) [load image, compression = rle]
                  8919db3e    00000002     --HOLE-- [fill = 0]
                  8919db40    0000000a     (.cinit..fardata.66.load) [load image, compression = rle]
                  8919db4a    00000002     --HOLE-- [fill = 0]
                  8919db4c    0000000a     (.cinit..fardata.67.load) [load image, compression = rle]
                  8919db56    00000002     --HOLE-- [fill = 0]
                  8919db58    0000000a     (.cinit..fardata.68.load) [load image, compression = rle]
                  8919db62    00000002     --HOLE-- [fill = 0]
                  8919db64    0000000a     (.cinit..fardata.69.load) [load image, compression = rle]
                  8919db6e    00000002     --HOLE-- [fill = 0]
                  8919db70    0000000a     (.cinit..fardata.70.load) [load image, compression = rle]
                  8919db7a    00000002     --HOLE-- [fill = 0]
                  8919db7c    0000000a     (.cinit..fardata.71.load) [load image, compression = rle]
                  8919db86    00000002     --HOLE-- [fill = 0]
                  8919db88    0000000a     (.cinit..fardata.72.load) [load image, compression = rle]
                  8919db92    00000002     --HOLE-- [fill = 0]
                  8919db94    0000000a     (.cinit..fardata.73.load) [load image, compression = rle]
                  8919db9e    00000002     --HOLE-- [fill = 0]
                  8919dba0    0000000a     (.cinit..fardata.74.load) [load image, compression = rle]
                  8919dbaa    00000002     --HOLE-- [fill = 0]
                  8919dbac    0000000a     (.cinit..fardata.75.load) [load image, compression = rle]
                  8919dbb6    00000002     --HOLE-- [fill = 0]
                  8919dbb8    0000000a     (.cinit..fardata.76.load) [load image, compression = rle]
                  8919dbc2    00000002     --HOLE-- [fill = 0]
                  8919dbc4    0000000a     (.cinit..fardata.77.load) [load image, compression = rle]
                  8919dbce    00000002     --HOLE-- [fill = 0]
                  8919dbd0    00000008     (.cinit..bss.load) [load image, compression = zero_init]
                  8919dbd8    00000008     (.cinit..dataL2.1.load) [load image, compression = zero_init]
                  8919dbe0    00000008     (.cinit..dataL2.2.load) [load image, compression = zero_init]
                  8919dbe8    00000008     (.cinit..ddrdata.load) [load image, compression = zero_init]
                  8919dbf0    00000008     (.cinit..far.1.load) [load image, compression = zero_init]
                  8919dbf8    00000008     (.cinit..far.2.load) [load image, compression = zero_init]
                  8919dc00    00000008     (.cinit..far.3.load) [load image, compression = zero_init]
                  8919dc08    00000008     (.cinit..far.4.load) [load image, compression = zero_init]
                  8919dc10    00000007     (.cinit..fardata.78.load) [load image, compression = rle]
                  8919dc17    00000001     --HOLE-- [fill = 0]
                  8919dc18    00000007     (.cinit..fardata.79.load) [load image, compression = rle]
                  8919dc1f    00000001     --HOLE-- [fill = 0]
                  8919dc20    000002d0     (__TI_cinit_table)


LINKER GENERATED COPY TABLES

__TI_cinit_table @ 8919dc20 records: 90, size/record: 8, table size: 720
	.fardata.1: load addr=8919cc60, load size=00000b10 bytes, run addr=8919ab10, run size=000012b8 bytes, compression=rle
	.heap_ram: load addr=8919d770, load size=0000006a bytes, run addr=81000000, run size=00a53090 bytes, compression=rle
	.neardata: load addr=8919d7dc, load size=0000001e bytes, run addr=8919cbe0, run size=00000070 bytes, compression=rle
	.fardata.5: load addr=8919d7fc, load size=00000017 bytes, run addr=8919be30, run size=00000014 bytes, compression=rle
	.fardata.2: load addr=8919d814, load size=00000016 bytes, run addr=8919bdd0, run size=00000018 bytes, compression=rle
	.rodata: load addr=8919d82c, load size=00000012 bytes, run addr=8919cc50, run size=00000010 bytes, compression=rle
	.fardata.6: load addr=8919d840, load size=00000010 bytes, run addr=8919be50, run size=00000018 bytes, compression=rle
	.fardata.7: load addr=8919d850, load size=0000000d bytes, run addr=8919be70, run size=00000008 bytes, compression=rle
	.fardata.8: load addr=8919d860, load size=0000000d bytes, run addr=8919be80, run size=00000008 bytes, compression=rle
	.fardata.4: load addr=8919d870, load size=0000000c bytes, run addr=8919be10, run size=00000017 bytes, compression=rle
	.fardata.10: load addr=8919d888, load size=0000000b bytes, run addr=8919bea0, run size=00000005 bytes, compression=rle
	.fardata.9: load addr=8919d894, load size=0000000b bytes, run addr=8919be90, run size=00000005 bytes, compression=rle
	.fardata.11: load addr=8919d8a0, load size=0000000a bytes, run addr=8919beb0, run size=00000004 bytes, compression=rle
	.fardata.12: load addr=8919d8ac, load size=0000000a bytes, run addr=8919bec0, run size=00000004 bytes, compression=rle
	.fardata.13: load addr=8919d8b8, load size=0000000a bytes, run addr=8919bed0, run size=00000004 bytes, compression=rle
	.fardata.14: load addr=8919d8c4, load size=0000000a bytes, run addr=8919bee0, run size=00000004 bytes, compression=rle
	.fardata.15: load addr=8919d8d0, load size=0000000a bytes, run addr=8919bef0, run size=00000004 bytes, compression=rle
	.fardata.16: load addr=8919d8dc, load size=0000000a bytes, run addr=8919bf00, run size=00000004 bytes, compression=rle
	.fardata.17: load addr=8919d8e8, load size=0000000a bytes, run addr=8919bf10, run size=00000004 bytes, compression=rle
	.fardata.18: load addr=8919d8f4, load size=0000000a bytes, run addr=8919bf20, run size=00000004 bytes, compression=rle
	.fardata.19: load addr=8919d900, load size=0000000a bytes, run addr=8919bf30, run size=00000004 bytes, compression=rle
	.fardata.20: load addr=8919d90c, load size=0000000a bytes, run addr=8919bf40, run size=00000004 bytes, compression=rle
	.fardata.21: load addr=8919d918, load size=0000000a bytes, run addr=8919bf50, run size=00000004 bytes, compression=rle
	.fardata.22: load addr=8919d924, load size=0000000a bytes, run addr=8919bf60, run size=00000004 bytes, compression=rle
	.fardata.23: load addr=8919d930, load size=0000000a bytes, run addr=8919bf70, run size=00000004 bytes, compression=rle
	.fardata.24: load addr=8919d93c, load size=0000000a bytes, run addr=8919bf80, run size=00000004 bytes, compression=rle
	.fardata.25: load addr=8919d948, load size=0000000a bytes, run addr=8919bf90, run size=00000004 bytes, compression=rle
	.fardata.26: load addr=8919d954, load size=0000000a bytes, run addr=8919bfa0, run size=00000004 bytes, compression=rle
	.fardata.27: load addr=8919d960, load size=0000000a bytes, run addr=8919bfb0, run size=00000004 bytes, compression=rle
	.fardata.28: load addr=8919d96c, load size=0000000a bytes, run addr=8919bfc0, run size=00000004 bytes, compression=rle
	.fardata.29: load addr=8919d978, load size=0000000a bytes, run addr=8919bfd0, run size=00000004 bytes, compression=rle
	.fardata.3: load addr=8919d984, load size=0000000a bytes, run addr=8919bdf0, run size=00000017 bytes, compression=rle
	.fardata.30: load addr=8919d990, load size=0000000a bytes, run addr=8919bfe0, run size=00000004 bytes, compression=rle
	.fardata.31: load addr=8919d99c, load size=0000000a bytes, run addr=8919bff0, run size=00000004 bytes, compression=rle
	.fardata.32: load addr=8919d9a8, load size=0000000a bytes, run addr=8919c000, run size=00000004 bytes, compression=rle
	.fardata.33: load addr=8919d9b4, load size=0000000a bytes, run addr=8919c010, run size=00000004 bytes, compression=rle
	.fardata.34: load addr=8919d9c0, load size=0000000a bytes, run addr=8919c020, run size=00000004 bytes, compression=rle
	.fardata.35: load addr=8919d9cc, load size=0000000a bytes, run addr=8919c030, run size=00000004 bytes, compression=rle
	.fardata.36: load addr=8919d9d8, load size=0000000a bytes, run addr=8919c040, run size=00000004 bytes, compression=rle
	.fardata.37: load addr=8919d9e4, load size=0000000a bytes, run addr=8919c050, run size=00000004 bytes, compression=rle
	.fardata.38: load addr=8919d9f0, load size=0000000a bytes, run addr=8919c060, run size=00000004 bytes, compression=rle
	.fardata.39: load addr=8919d9fc, load size=0000000a bytes, run addr=8919c070, run size=00000004 bytes, compression=rle
	.fardata.40: load addr=8919da08, load size=0000000a bytes, run addr=8919c080, run size=00000004 bytes, compression=rle
	.fardata.41: load addr=8919da14, load size=0000000a bytes, run addr=8919c090, run size=00000004 bytes, compression=rle
	.fardata.42: load addr=8919da20, load size=0000000a bytes, run addr=8919c0a0, run size=00000004 bytes, compression=rle
	.fardata.43: load addr=8919da2c, load size=0000000a bytes, run addr=8919c0b0, run size=00000004 bytes, compression=rle
	.fardata.44: load addr=8919da38, load size=0000000a bytes, run addr=8919c0c0, run size=00000004 bytes, compression=rle
	.fardata.45: load addr=8919da44, load size=0000000a bytes, run addr=8919c0d0, run size=00000004 bytes, compression=rle
	.fardata.46: load addr=8919da50, load size=0000000a bytes, run addr=8919c0e0, run size=00000004 bytes, compression=rle
	.fardata.47: load addr=8919da5c, load size=0000000a bytes, run addr=8919c0f0, run size=00000004 bytes, compression=rle
	.fardata.48: load addr=8919da68, load size=0000000a bytes, run addr=8919c100, run size=00000004 bytes, compression=rle
	.fardata.49: load addr=8919da74, load size=0000000a bytes, run addr=8919c110, run size=00000004 bytes, compression=rle
	.fardata.50: load addr=8919da80, load size=0000000a bytes, run addr=8919c120, run size=00000004 bytes, compression=rle
	.fardata.51: load addr=8919da8c, load size=0000000a bytes, run addr=8919c130, run size=00000004 bytes, compression=rle
	.fardata.52: load addr=8919da98, load size=0000000a bytes, run addr=8919c140, run size=00000004 bytes, compression=rle
	.fardata.53: load addr=8919daa4, load size=0000000a bytes, run addr=8919c150, run size=00000004 bytes, compression=rle
	.fardata.54: load addr=8919dab0, load size=0000000a bytes, run addr=8919c160, run size=00000004 bytes, compression=rle
	.fardata.55: load addr=8919dabc, load size=0000000a bytes, run addr=8919c170, run size=00000004 bytes, compression=rle
	.fardata.56: load addr=8919dac8, load size=0000000a bytes, run addr=8919c180, run size=00000004 bytes, compression=rle
	.fardata.57: load addr=8919dad4, load size=0000000a bytes, run addr=8919c190, run size=00000004 bytes, compression=rle
	.fardata.58: load addr=8919dae0, load size=0000000a bytes, run addr=8919c1a0, run size=00000004 bytes, compression=rle
	.fardata.59: load addr=8919daec, load size=0000000a bytes, run addr=8919c1b0, run size=00000004 bytes, compression=rle
	.fardata.60: load addr=8919daf8, load size=0000000a bytes, run addr=8919c1c0, run size=00000004 bytes, compression=rle
	.fardata.61: load addr=8919db04, load size=0000000a bytes, run addr=8919c1d0, run size=00000004 bytes, compression=rle
	.fardata.62: load addr=8919db10, load size=0000000a bytes, run addr=8919c1e0, run size=00000004 bytes, compression=rle
	.fardata.63: load addr=8919db1c, load size=0000000a bytes, run addr=8919c1f0, run size=00000004 bytes, compression=rle
	.fardata.64: load addr=8919db28, load size=0000000a bytes, run addr=8919c200, run size=00000004 bytes, compression=rle
	.fardata.65: load addr=8919db34, load size=0000000a bytes, run addr=8919c210, run size=00000004 bytes, compression=rle
	.fardata.66: load addr=8919db40, load size=0000000a bytes, run addr=8919c220, run size=00000004 bytes, compression=rle
	.fardata.67: load addr=8919db4c, load size=0000000a bytes, run addr=8919c230, run size=00000004 bytes, compression=rle
	.fardata.68: load addr=8919db58, load size=0000000a bytes, run addr=8919c240, run size=00000004 bytes, compression=rle
	.fardata.69: load addr=8919db64, load size=0000000a bytes, run addr=8919c250, run size=00000004 bytes, compression=rle
	.fardata.70: load addr=8919db70, load size=0000000a bytes, run addr=8919c260, run size=00000004 bytes, compression=rle
	.fardata.71: load addr=8919db7c, load size=0000000a bytes, run addr=8919c270, run size=00000004 bytes, compression=rle
	.fardata.72: load addr=8919db88, load size=0000000a bytes, run addr=8919c280, run size=00000004 bytes, compression=rle
	.fardata.73: load addr=8919db94, load size=0000000a bytes, run addr=8919c290, run size=00000004 bytes, compression=rle
	.fardata.74: load addr=8919dba0, load size=0000000a bytes, run addr=8919c2a0, run size=00000004 bytes, compression=rle
	.fardata.75: load addr=8919dbac, load size=0000000a bytes, run addr=8919c2b0, run size=00000004 bytes, compression=rle
	.fardata.76: load addr=8919dbb8, load size=0000000a bytes, run addr=8919c2c0, run size=00000004 bytes, compression=rle
	.fardata.77: load addr=8919dbc4, load size=0000000a bytes, run addr=8919c2d0, run size=00000004 bytes, compression=rle
	.bss: load addr=8919dbd0, load size=00000008 bytes, run addr=8919cbc0, run size=0000001f bytes, compression=zero_init
	.dataL2.1: load addr=8919dbd8, load size=00000008 bytes, run addr=00082000, run size=0002f0e8 bytes, compression=zero_init
	.dataL2.2: load addr=8919dbe0, load size=00000008 bytes, run addr=000b10f0, run size=0000008c bytes, compression=zero_init
	.ddrdata: load addr=8919dbe8, load size=00000008 bytes, run addr=89109ee0, run size=00087000 bytes, compression=zero_init
	.far.1: load addr=8919dbf0, load size=00000008 bytes, run addr=89000000, run size=001026d4 bytes, compression=zero_init
	.far.2: load addr=8919dbf8, load size=00000008 bytes, run addr=89102700, run size=00006ee8 bytes, compression=zero_init
	.far.3: load addr=8919dc00, load size=00000008 bytes, run addr=891095f0, run size=00000803 bytes, compression=zero_init
	.far.4: load addr=8919dc08, load size=00000008 bytes, run addr=89109e00, run size=000000d8 bytes, compression=zero_init
	.fardata.78: load addr=8919dc10, load size=00000007 bytes, run addr=8919c2e0, run size=00000001 bytes, compression=rle
	.fardata.79: load addr=8919dc18, load size=00000007 bytes, run addr=8919c2f0, run size=00000001 bytes, compression=rle


LINKER GENERATED HANDLER TABLE

__TI_handler_table @ 8919d87c records: 3, size/record: 4, table size: 12
	index: 0, handler: __TI_zero_init
	index: 1, handler: __TI_decompress_rle24
	index: 2, handler: __TI_decompress_none


FAR CALL TRAMPOLINES

callee name               trampoline name
   callee addr  tramp addr   call addr  call info
--------------  -----------  ---------  ----------------
$.textDDR:GenUtil.lib<FIFO.obj>$0xbd0  $Tramp$S$$ICoreQ_Start
   86048d10     86044520     86003c2c   L1Manager.lib : GSMConfig.obj (.text)
                             86003c4c                 : GSMConfig.obj (.text)
                             86003c64                 : GSMConfig.obj (.text)
                             86003c78                 : GSMConfig.obj (.text)
$.textDDR:GsmUtil.lib<Burst.obj>$0x0  $Tramp$S$$Burst_GetBasebandData
   8604b0a0     86044530     86005eec   L1Manager.lib : GSMConfig.obj (.text)
                             86006ae8                 : GSMConfig.obj (.text)
                             86006db0                 : GSMConfig.obj (.text)
                             86007ccc                 : GSMConfig.obj (.text)
                             86008294                 : GSMConfig.obj (.text)
$.textDDR:L1Manager.lib<GSMConfig.obj>$0x0  $Tramp$S$$L1Receiver_Init
   86049480     86044540     8600f548   L1Manager.lib : GSMConfig.obj (.text)
                             86010990                 : GSMConfig.obj (.text)
                             86010ba8                 : GSMConfig.obj (.text)
                             8601106c                 : GSMConfig.obj (.text)
                             86011294                 : GSMConfig.obj (.text)
                             86011a70                 : GSMConfig.obj (.text)
                             86011f18                 : GSMConfig.obj (.text)
$.textDDR:CmdIfLib.lib<CmdPkt.obj>$0x0  $Tramp$S$$TestParamsMacros
   86044580     86044550     86018a0c   CmdIfLib.lib : CmdPkt.obj (.text)
$.textDDR:GenUtil.lib<FIFO.obj>$0x840  $Tramp$S$$HSEM_Init
   86048980     86044560     86020ba8   GenUtil.lib : FIFO.obj (.text)

[5 trampolines]
[18 trampoline calls]


GLOBAL SYMBOLS: SORTED ALPHABETICALLY BY Name 

address    name
--------   ----
86020670   Alloc
86020d48   Alloc_CoreSafe
8604b0a0   Burst_GetBasebandData
8603adcc   Burst_GetDDCNum
8603ad88   Burst_GetTime
8603ad20   Burst_Init
8603adac   Burst_SetDDCNum
8603ad34   Burst_SetTime
8603ae08   Burst_UpdateLastSampleTime
8603ae4c   Burst_UpdateNumSamples
8603ae24   Burst_UpdateSampleTime
8603ade0   Burst_ValidateNumSamples
86043620   C$$EXIT
86042358   C$$IO$$
86038020   Clock_FN
860380b4   Clock_Get
86037f60   Clock_Init
86037f88   Clock_Set
86037fe4   Clock_Sync
86038104   Clock_Wait
86017ef8   CmdPkt_GetCommand
86018178   CmdPkt_GetDataCount
8601816c   CmdPkt_GetHeader
86018018   CmdPkt_GetPacketType
86018170   CmdPkt_GetParam
86017ea0   CmdPkt_GetReceiver
86017ec4   CmdPkt_GetSender
8601c6b0   CmdPkt_GetSeqNumber
8601c694   CmdPkt_IsWritePkt
860189a4   CmdPkt_Make
860177c0   CmdPkt_Parse
8601c690   CmdPkt_SetHeader
86018980   CmdPkt_UpdatePacketType
86018958   CmdPkt_UpdateReceiver
86018930   CmdPkt_UpdateSender
8601c318   CmdPkt_ValidatePacket
89198ae4   Core_Num
86031c00   DCS_GSM_rsc_calculate_path_metrics_G00G10
86030bc0   DCS_GSM_rsc_calculate_path_metrics_G13G13G23G33G33
86030fe0   DCS_GSM_rsc_calculate_path_metrics_G13G23G33
86030780   DCS_GSM_rsc_calculate_path_metrics_G13G23G33G33
86029848   DCS_GSM_rsc_calculate_path_metrics_G44G54G64
86028ec8   DCS_GSM_rsc_calculate_path_metrics_G46G46G56G66G66
86027b08   DCS_GSM_rsc_calculate_path_metrics_G46G56G66G66
86031f20   DCS_GSM_rsc_traceback_G00G10
86030f24   DCS_GSM_rsc_traceback_G13G13G23G33G33
86031330   DCS_GSM_rsc_traceback_G13G23G33
86030ae8   DCS_GSM_rsc_traceback_G13G23G33G33
86029fec   DCS_GSM_rsc_traceback_G44G54G64
860296d0   DCS_GSM_rsc_traceback_G46G46G56G66G66
860283a4   DCS_GSM_rsc_traceback_G46G56G66G66
86023988   DCS_GSM_viterbi_decoder_generic
86023ec8   DCS_GSM_viterbi_decoder_generic_scratchsize
86023d38   DCS_GSM_viterbi_decoder_r2_K5
86031fa8   DCS_GSM_viterbi_decoder_rsc_G00G10
86030fac   DCS_GSM_viterbi_decoder_rsc_G13G13G23G33G33
860313c0   DCS_GSM_viterbi_decoder_rsc_G13G23G33
86030b74   DCS_GSM_viterbi_decoder_rsc_G13G23G33G33
8602a080   DCS_GSM_viterbi_decoder_rsc_G44G54G64
86029768   DCS_GSM_viterbi_decoder_rsc_G46G46G56G66G66
86028440   DCS_GSM_viterbi_decoder_rsc_G46G56G66G66
8919a228   DCS_ft2b
8601c038   DataPkt_CopyRealPacket
860472a4   DataPkt_Dump
8601c024   DataPkt_GetFPGABurst
8601bf44   DataPkt_GetL2IpuToDspHeader
8601be50   DataPkt_GetPacketType
8601be54   DataPkt_GetRealPktSize
8601be4c   DataPkt_GetType1
8601be38   DataPkt_IsDDCFlagSet
8601bd30   DataPkt_IsFull
8601b590   DataPkt_MakeType1
8601b3a8   DataPkt_MakeType1_2
8601a76c   DataPkt_MakeType2
86019c34   DataPkt_MakeType3
86019a74   DataPkt_MakeType4
86019a68   DataPkt_SetControlChannelFlag
86019a58   DataPkt_SetDUCChannelFlag
86019a4c   DataPkt_SetDemodDataFlag
86019a48   DataPkt_SetPacketType
86019a38   DataPkt_SetRachChannelFlag
86019a2c   DataPkt_SetTrafficChannelFlag
86000874   DirectionOfIQdata
8604b000   EthBuff_Init
8601f74c   FIFO_Get
86020d44   FIFO_GetSize
860483ac   FIFO_Init
860490d0   FIFO_Print
86020128   FIFO_Put
8919bdf0   FILL_FRAME_BCCH
8919be10   FILL_FRAME_DCCH
8919ab10   Fill_frame_bcch_burst
860202c4   Free
86020994   Free_CoreSafe
86032b20   GMSKEQ_burst_agc
86027060   GMSKEQ_equalize
86027040   GMSKEQ_get_scratch_size_maus
8604a100   GSMConfig_Elapsed
8604a0e8   GSMConfig_FN
8604a0e4   GSMConfig_FreqInfo
8604a0e0   GSMConfig_Init
8604a060   GSMConfig_Start
8604a054   GSMConfig_Stop
8603ce60   GSMEFR_DCS_sid_frame_detection
86039600   GSMFR_DCS_sid_frame_detection
8602fa00   GSMLIB_DCS_cabs_sq
8602f9e0   GSMLIB_DCS_cabs_sq_16
8602f984   GSMLIB_DCS_div_16
8602f868   GSMLIB_DCS_inv32i
8602f744   GSMLIB_DCS_inv32iv2
89199f50   GSMLIB_DCS_inv_sqrt_tbl
8602f6f4   GSMLIB_DCS_right_shift_32
8602f620   GSMLIB_DCS_sqrt_inv32i
8602f5d0   GSMLIB_DCS_sub_32
8602f5b8   GSMLIB_DCS_zeroize
86034bac   GSMLIB_UINT40_to_UINT31
86034b20   GSMLIB_add_power
891987d0   GSMLIB_dB_to_base2_float_exp
89196fe0   GSMLIB_dB_to_base2_float_mant
86034ac0   GSMLIB_power_to_measdB
86034a10   GSMLIB_scale_power_by_dB
8602b494   GSMTime_Add
8602b504   GSMTime_AddTime
8602b1e0   GSMTime_Copy
8602b3a8   GSMTime_DecTN
8602b2e8   GSMTime_FN
8602b1b4   GSMTime_FrameCountInit
8602b460   GSMTime_Inc
8602b348   GSMTime_IncTN
8602b18c   GSMTime_Init
8602b718   GSMTime_IsEquTime
8602b668   GSMTime_IsLessOrEquThanTime
8602b5c4   GSMTime_IsLessThanTime
8602b6c0   GSMTime_IsMoreOrEquThanTime
8602b614   GSMTime_IsMoreThanTime
8602b82c   GSMTime_MFN
8602b200   GSMTime_Print
8602b290   GSMTime_RollForward
8602b754   GSMTime_SFN
8602b30c   GSMTime_SetFN
8602b324   GSMTime_SetTN
8602b4ec   GSMTime_Sub
8602b5a4   GSMTime_SubTime
8602b774   GSMTime_T1
8602b814   GSMTime_T1R
8602b800   GSMTime_T1p
8602b78c   GSMTime_T2
8602b7a8   GSMTime_T3
8602b7c4   GSMTime_T3p
8602b7e0   GSMTime_TC
8602b2f8   GSMTime_TN
8919a700   GSM_DCS_AFS_BLOCK_PHASE
8919a128   GSM_DCS_TCH_AFS_CODED_DATA_SID
8919a5c0   GSM_DCS_TCH_AFS_CODED_DATA_SPEECH
8919a7e8   GSM_DCS_TCH_AFS_RATSCCH_IM_VECTOR
8919a4c0   GSM_DCS_TCH_AFS_SID_IM_VECTOR
89198960   GSM_DCS_TCH_AFS_SPEECH10_2_PUNCTURE
89198638   GSM_DCS_TCH_AFS_SPEECH10_2_REARRANGE_TABLE
89199e60   GSM_DCS_TCH_AFS_SPEECH12_2_PUNCTURE
89197d38   GSM_DCS_TCH_AFS_SPEECH12_2_REARRANGE_TABLE
89199748   GSM_DCS_TCH_AFS_SPEECH4_75_PUNCTURE
89199688   GSM_DCS_TCH_AFS_SPEECH4_75_REARRANGE_TABLE
89199258   GSM_DCS_TCH_AFS_SPEECH5_15_PUNCTURE
89199428   GSM_DCS_TCH_AFS_SPEECH5_15_REARRANGE_TABLE
89199c40   GSM_DCS_TCH_AFS_SPEECH5_9_PUNCTURE
89199168   GSM_DCS_TCH_AFS_SPEECH5_9_REARRANGE_TABLE
89198f68   GSM_DCS_TCH_AFS_SPEECH6_7_PUNCTURE
89198d50   GSM_DCS_TCH_AFS_SPEECH6_7_REARRANGE_TABLE
8919a348   GSM_DCS_TCH_AFS_SPEECH7_4_PUNCTURE
89198c28   GSM_DCS_TCH_AFS_SPEECH7_4_REARRANGE_TABLE
89199cd0   GSM_DCS_TCH_AFS_SPEECH7_95_PUNCTURE
89198ae8   GSM_DCS_TCH_AFS_SPEECH7_95_REARRANGE_TABLE
89199d58   GSM_DCS_TCH_EFS_45003_S3_1_1_1
89197928   GSM_DCS_TCH_EFS_REARRANGE_TABLE
89197b30   GSM_DCS_TCH_FS_REARRANGE_TABLE
8603b260   GSM_DCS_assemble_access_burst_rawbits
860386c0   GSM_DCS_assemble_dummy_burst_rawbits
86040980   GSM_DCS_assemble_freq_burst_rawbits
86039fa0   GSM_DCS_assemble_normal_burst_rawbits
860392c0   GSM_DCS_assemble_sync_burst_rawbits
86040b40   GSM_DCS_complex_filter
8601df84   GSM_DCS_est_fcch_freq_offset
8603dd80   GSM_DCS_freq_hop_seq_gen
8603af80   GSM_DCS_init_ctrl_logchanrx_class_object
8603c474   GSM_DCS_init_ctrl_logchantx_class_object
8603c554   GSM_DCS_init_ctrl_rach_logchanrx_class_object
8603ebd0   GSM_DCS_init_ctrl_rach_logchantx_class_object
8603dd20   GSM_DCS_init_ctrl_sch_logchanrx_class_object
860427d4   GSM_DCS_init_ctrl_sch_logchantx_class_object
86022200   GSM_DCS_init_tch_afs_logchanrx_class_object
86026468   GSM_DCS_init_tch_fs_logchanrx_class_object
8602cdac   GSM_DCS_init_tch_fs_logchantx_class_object
89197f20   GSM_DCS_laurent_fir_filt
8603436c   GSM_DCS_pack_bits
86034980   GSM_DCS_power_to_db
860395a0   GSM_DCS_r2k5_conv_encoder
860221ec   GSM_DCS_set_tch_afs_logchanrx_acs
86034330   GSM_DCS_unpack_bits
8601d4e0   GSM_fcch_detect_freq_est_sync
8601c840   GSM_fcch_detect_freq_est_sync2c
8601c780   GSM_fcch_detect_freq_est_sync_init
8601c6cc   GSM_fcch_detect_freq_est_sync_reset
8601c6c0   GSM_fcch_get_scratch_size_maus
86020d20   GetHashInfoHandler
86020d34   GetIIPCSignal
86000760   Get_dummy_burst_C0TX
8600076c   Get_dummy_burst_tch
86017790   Get_fill_frame_bcch
8601776c   Get_fill_frame_dcch
8603f680   HOSTclose
8603cb60   HOSTlseek
8603d760   HOSTopen
8603e480   HOSTread
86038f80   HOSTrename
8603e540   HOSTunlink
8603e600   HOSTwrite
86048980   HSEM_Init
8601f8a0   HSEM_Lock
86049090   HSEM_ModuleInit
8601fb4c   HSEM_Unlock
89100070   Hsem_IIPC
86048e80   ICoreQ_Init
86048d70   ICoreQ_Init2
86048d10   ICoreQ_Start
86020aa0   IIPC_FreeMsg
86048a70   IIPC_Init
86048744   IIPC_InitLink
86048708   IIPC_Start
860207c4   IIPC_TransportMessage
8604860c   ITaskQ_Init
8601f794   ITaskQ_Read
86020600   ITaskQ_ReadNoBlock
8601fc48   ITaskQ_Write
86048478   Initialize_HashNewBucket
UNDEFED    Intr_EnableEvent
UNDEFED    Intr_Init
86000784   L1Config_Delete
86017220   L1Config_Dump
86015dd4   L1Config_Setup
8602a5a8   L1FCCHFEC_Init
8602a298   L1FEC_DoChannelDecoding
8602a480   L1FEC_DoChannelEncoding
8602a240   L1FEC_GetBurstType
8602a594   L1FEC_GetFCCHRxObj
8602a218   L1FEC_GetInfoBitsLength
8602a22c   L1FEC_GetLogChanType
8602a250   L1FEC_GetMultiFrameType
8602a264   L1FEC_GetRxObj
8602a288   L1FEC_GetTDFrm
8602a274   L1FEC_GetTxObj
8602a0e0   L1FEC_Init
8602a8b4   L1FEC_UpdateACS
860496cc   L1Manager_Init
86004a24   L1Manager_PutBurstInfoJob
8602a670   L1RACHFEC_Init
86008e80   L1Receiver_CaptureBurst
860015b4   L1Receiver_DiscardRATSCCH
86001978   L1Receiver_GetBTSReference
86049480   L1Receiver_Init
860008ac   L1Receiver_RATSCCH_decode
86000fe8   L1Receiver_Reset
86009b48   L1Receiver_RunSFH
86001984   L1Receiver_SetBTSReference
86000880   L1Receiver_SetFN
86000894   L1Receiver_SetTN
86000f4c   L1Receiver_UpdateAMRConfig
8602a604   L1SCHFEC_Init
8602a7ac   L1TCHAFSFEC_Init
8602a718   L1TCHFSFEC_Init
86000350   L1Transmitter_AssembleBurst
8601632c   L1Transmitter_Init
86016304   L1Transmitter_Reset
86017218   L1Transmitter_SetBTSReference
8601638c   L1Transmitter_SetFN
860163a4   L1Transmitter_SetTN
8602a848   L1XCCHFEC_Init
86048188   LOG_DumpMsg
8919bae8   Links
8919bae4   MSGIndication
89189ee0   MemList
8604ace8   MemMgr_InitCriticalMemory
8604a9c0   MemMgr_InitHeapMemory
86043480   ModMgr_GetInstance
8604a124   ModMgr_Init
8601f664   Mutex_Init
8601f64c   Mutex_Lock
8601f630   Mutex_Lock_Timeout
8601f618   Mutex_Unlock
8919cbe1   PLAYBACK_MODE
891083b0   ReceiverId_Pool
86017094   ReceiverIdcheck
UNDEFED    RxCalib_GetHwGainCorrection
UNDEFED    RxCalib_GetRfGainCorrection
UNDEFED    RxCalib_InitHwGainCorrection
UNDEFED    RxCalib_InitRfGainCorrection
86016fc4   RxManager_Config_Junk
86009b94   RxManager_DoBurstDataProcessing
86004f28   RxManager_DoCommandProcessing
86002bb8   RxManager_DropMonitoringChannel
860495d4   RxManager_Init
86012c2c   RxManager_OnDecodeIQdata
86005020   RxManager_OnStopAllReceiverCmd
8600abec   RxManager_RequestBurstInfo
8600b3d4   RxManager_RequestDemodulatedbits
8600198c   RxManager_ResetReceiver
86003bcc   RxManager_SetCore
86003bc8   RxManager_Start
89100000   Sig_IPCRx
8601f604   Signal_Enable
8601f538   Signal_Init
8601f508   Signal_Pend
8601f4ec   Signal_Poll
8601eca0   Signal_Post
UNDEFED    StatMgr_Fatal
8601f494   SysTime_AddUsecs
8601efb8   SysTime_Cmp
8601f234   SysTime_Delta
8601f0b8   SysTime_DeltaUs
8601f26c   SysTime_Elapsed
8601f178   SysTime_Future
8601f46c   SysTime_Get
86048140   SysTime_Init
8601ef54   SysTime_Now
8601f3e8   SysTime_Passed
8601f3a4   SysTime_Print
8601f30c   SysTime_Remaining
8601f0e8   SysTime_RemainingUs
8601f018   SysTime_isTimeOver
86022300   TDFrmTbl_Init
8602ab0c   TDFrm_GetFrameMapping
8602b02c   TDFrm_GetName
8602ab80   TDFrm_GetNumFrames
8602ab90   TDFrm_GetRepeatLength
8602ab48   TDFrm_GetReverseMapping
8602ac24   TDFrm_GetSubSlot
8602aba4   TDFrm_GetTypeAndOffset
8602a900   TDFrm_Init
8602abf0   TDFrm_IsAllowedSlot
8602abd8   TDFrm_IsC0Only
8602abc8   TDFrm_IsDownlink
8602abb4   TDFrm_IsUplink
8602ac38   TDFrm_Print
8602b040   TDFrm_PrintHeader
86001840   TRX_GetDCSPart
8919b990   TSK_idle
8601ee50   Task_Init
8601ed38   Task_Init1
8601ed24   Task_SetPri
8601ed0c   Task_Start
8601ecf4   Task_Stop
860189ec   TestCmdPkt
86018198   TestCmdPkt_Print
860177c4   TestParamSize
86044580   TestParamsMacros
8604348c   Test_EthBuff
86000864   TimeSlotOfIQdata
UNDEFED    Timer_GetTicksUsec
UNDEFED    Timer_Init
UNDEFED    Timer_Start
89100018   Tsk_RxIPC
89100074   Tsk_TxIPC
8600dc04   TxManager_DoCallBlocking
86004f98   TxManager_DoCommandProcessing
8600d3f0   TxManager_DoVirtualBTS
860030ec   TxManager_DropChannels
86016f24   TxManager_Init
8600c1a0   TxManager_OnL2Packet
86001e10   TxManager_ResetTransmitter
86016f18   TxManager_SetCore
8600500c   TxManager_SetMode
86016ef8   TxManager_Start
86016c10   TxManager_UpdateBurst
89000000   __ASM__
8919caa0   __CIOBUF_
89000080   __ISA__
890000a0   __PLAT__
890000d0   __TARG__
8919dc20   __TI_CINIT_Base
8919def0   __TI_CINIT_Limit
8919d87c   __TI_Handler_Table_Base
8919d888   __TI_Handler_Table_Limit
81a55090   __TI_STACK_END
00002000   __TI_STACK_SIZE
8919cbc0   __TI_STATIC_BASE
00000001   __TI_args_main
86043660   __TI_decompress_none
86043680   __TI_decompress_rle24
8919b59c   __TI_enable_exit_profile_output
ffffffff   __TI_pprof_out_hndl
ffffffff   __TI_prof_data_size
ffffffff   __TI_prof_data_start
8603dbc0   __TI_zero_init
89000100   __TRDR__
ffffffff   __binit__
8602db00   __c6xabi_divd
8603d840   __c6xabi_divi
8603c020   __c6xabi_divlli
8603e780   __c6xabi_divu
86039120   __c6xabi_divul
86036560   __c6xabi_divull
86041a00   __c6xabi_frcmpyd_div
86042600   __c6xabi_isinf
86040880   __c6xabi_llshl
86041a60   __c6xabi_llshru
860434a0   __c6xabi_negll
8603e840   __c6xabi_remi
86041ac0   __c6xabi_remlli
8603f720   __c6xabi_remu
86041b20   __c6xabi_remull
86042680   __c6xabi_strasgi_64plus
ffffffff   __c_args__
860434c0   __cxa_atexit
8603e6c0   __cxa_finalize
860434e0   __cxa_ia64_exit
8603d840   __divi
8603e780   __divu
8603e840   __remi
8603f720   __remu
86042680   __strasgi_64plus
86043500   __xdc__init
8919b17c   __xdc__init__addr
860426c0   _args_main
00000000   _argsize
8603afe0   _auto_init_elf
8603f7c0   _c_int00
8603e900   _cleanup
8919b594   _cleanup_ptr
89198e60   _ctypes_
8603e9c0   _doflush
8919b598   _dtors_ptr
8919bd8c   _ft_end
8919b180   _ftable
8919b938   _lock
86043520   _nop
86030320   _printfi
860435a0   _register_lock
860435c0   _register_unlock
81a53090   _stack
86041b80   _subcull
89109bb0   _tmpnams
8919b93c   _unlock
8603c260   _wrt_ok
86043620   abort
8919a3e0   access_ts_gmsk
8919a410   access_ts_gmsk_1
8919a440   access_ts_gmsk_2
86043640   atexit
8603da00   atoi
891095f0   bFreeID
ffffffff   binit
89109ee0   cBuff
86036c20   chan_sounder
8603c5c0   chan_sounder_sub1
860331c0   chan_sounder_sub1_rach
860334e0   chan_sounder_sub2
8603dae0   close
86040b80   complexfilt_core
86040b00   compute_mlse_scale
86039460   conv_encoder
8603ecc0   covar_calc
86041be0   crc_dec
8603fa40   crc_enc
86041c40   ctrl_add_fec
8603b3a0   ctrl_prach_ext_add_fec
8603a120   ctrl_prach_ext_rem_fec
8603ea80   ctrl_rach_add_fec
8603ec00   ctrl_rach_rem_fec
86040a00   ctrl_rem_fec
86040a80   ctrl_sch_add_fec
8603fae0   ctrl_sch_rem_fec
89199de0   demodstates
86038ae4   depuncture
86025700   detect_RATSCCH
86024c20   detect_SID_UPDATE_or_FIRST
86041ca0   diag_deintlv
8603cc60   diag_intlv
89195530   diag_intlv_index
891999f0   dummy_burst_data
8919b4e0   dummy_burst_tch
8919a7c8   dummy_burst_tsc_mapping_A213
8919bdac   errno
8603de60   exit
8919a168   ext_tsc_gmsk
8919a1a8   ext_tsc_gmsk_COMPACT
8919a1e8   ext_tsc_gmsk_CTS
8919a828   extended_tail
86020fc4   extract_RATSCCH_coded_bits
86020f08   extract_SID_UPDATE_coded_bits
89199a88   fcch_bits
8603c6e0   fclose
8602b860   fire_dec
86033800   fire_enc
8919cc2c   flag_Config_Junk
8603b4e0   fputc
86033b00   fputs
86041dc0   free
8603cf60   frexp
8603ed80   fseek
8919b9dc   gAGC
8919baec   gBTS
8919baf0   gBTSSem
8919cbf0   gBurstToFPGAMgr
8919cc4c   gCriticalMemRefPtr
8919ad90   gDDCMatrix
8919cc50   gFrameMicroseconds
81000000   gHash
81a53020   gHeapMem
81000020   gHeapMemSeg
81a00020   gL2PacketMgr
89193530   gRxFreqWord
89109610   gRxRouter
8919bb10   gSACCH_TF
8919baf8   gSharedL2PacketMgr
891001d0   gTDMA
89194530   gTxFreqWord
89109930   gTxRouter
8919a818   gen_matrix_ctrl
8603426c   generic_pulse_shaper
8603cdd0   gsm_amr_speech_put_back_bits
8603cd60   gsm_amr_speech_rearrange_bits
89195c50   gsm_nml_tsc_filt
891997f8   gsm_rach_tsc_filt
89199068   gsm_sch_tsc_filt
8919a830   guard_bits
891000cc   iipc_TxQ
8603414c   interp_filt_cint16_int16
8601ecb4   is_IPC
86042800   llabs
860397a0   log
86042840   log10
8603ee40   lseek
8603df40   ltoa
8604a7f0   main
86040c00   malloc
86041e20   memccpy
860401c0   memcpy
86041e80   memmove
8603e020   memset
86041d38   merge_fs_payload_buffers
86041d00   merge_hs_payload_buffers
86037500   mlse_demod
8603fb80   mlse_demod_sub1
8602458c   mlse_demod_sub2_forward
86023f00   mlse_demod_sub2_reverse
8919cc46   nAJTxChannel
8919cc47   nCBTxChannel
8919cbfc   nCount_Receiver
8919cc00   nCount_StopReceiver
89108de0   nDAC_NCO_Fuse
8919cc20   nDecodeFail_I_DL
8919cc28   nDecodeFail_I_UL
8919bb30   nDecodeFail_VII_DL
8919cc08   nDecodeFail_VII_UL
8919cc1c   nDecodeSucess_I_DL
8919cc24   nDecodeSucess_I_UL
8919bb50   nDecodeSucess_VII_DL
8919bb70   nDecodeSucess_VII_UL
8919cc14   nDemodFail_I_DL
8919cc0c   nDemodFail_I_UL
8919bb90   nDemodFail_VII_DL
8919bbb0   nDemodFail_VII_UL
8919cc18   nDemodSucess_I_DL
8919cc10   nDemodSucess_I_UL
8919bbd0   nDemodSucess_VII_DL
8919cc04   nDemodSucess_VII_UL
8919bbf0   nDemodTSC_NOT_FOUND_DL
8919bc10   nDemodTSC_NOT_FOUND_UL
8919bc30   nFACCH_I
8919cc44   nMaxRxChannel
8919cc45   nMaxTxChannel
8919bc50   nSACCH_V
8919bc70   nSACCH_VII_DL
8919bc90   nSACCH_VII_UL
8919bcb0   nSDCCH_V
8919bcd0   nSDCCH_VII_DL
8919bcf0   nSDCCH_VII_UL
8919cbe8   nSeqNum
8919bd10   nTrafficPak_DL
8919bd30   nTrafficPak_UL
8919cc48   nVBTSTxChannel
81a40020   oBurstToFPGAMgr
89107b90   oGSML1TxManager
000b10f0   oMemPoolLock
89109cf0   oPacket
8919bafc   pEthBuff
8919cc34   pEthObj
891026d0   pGSharedBurstToFPGAMgr
8919baf4   pGblTransferJob
8919bb00   pRxCalibration
86038880   pmuldiv
86040c80   printf
86038a40   puncture
86040d00   readmsg
860436a0   rect_deintlv
860436c0   rect_intlv
86041600   remove
89102700   rxscratchM1
89104700   rxscratchM2
8602f5a0   saturate
86034100   setup_beagle_cache
8603a420   setvbuf
8603a3c8   snr_calc_sub1
8603a324   snr_calc_sub2
8603a2a0   snr_calc_sub3
86041ee0   sprintf
8919a598   state_init_normal
8919aa90   state_init_rach
8919aa98   state_init_sync
8919aa88   tail_bits
86026f18   tch_afs_decode_inband_data_ONSET
86026d4c   tch_afs_decode_inband_data_RATSCCH
86026904   tch_afs_decode_inband_data_SID
86026684   tch_afs_decode_inband_data_SID_FIRST
86026560   tch_afs_decode_inband_data_SPEECH
86020ee4   tch_afs_get_sid_update_id_rif_downlink_receive
86020ec4   tch_afs_get_sid_update_id_rif_uplink_receive
86020ea4   tch_afs_get_tch_id_rif_downlink_receive
86020e80   tch_afs_get_tch_id_rif_uplink_receive
8602fa20   tch_afs_onset_rem_fec
86041d60   tch_afs_sid_update_rem_fec
8603fc20   tch_afs_speech10_2_rem_fec
8603fcc0   tch_afs_speech12_2_rem_fec
8603fd60   tch_afs_speech4_75_rem_fec
8603fe00   tch_afs_speech5_15_rem_fec
8603fea0   tch_afs_speech5_9_rem_fec
8603ff40   tch_afs_speech6_7_rem_fec
8603ffe0   tch_afs_speech7_4_rem_fec
86040080   tch_afs_speech7_95_rem_fec
8919cbde   theCmd
00082000   theModMgr
89198e5c   ti_sysbios_BIOS_Module__diagsEnabled__C
89198f64   ti_sysbios_BIOS_Module__diagsIncluded__C
89199254   ti_sysbios_BIOS_Module__diagsMask__C
8919aa84   ti_sysbios_BIOS_Module__id__C
8919af98   ti_sysbios_BIOS_Module__state__V
86043700   ti_sysbios_BIOS_RtsGateProxy_enter__E
86043720   ti_sysbios_BIOS_RtsGateProxy_leave__E
8603ef00   ti_sysbios_BIOS_errorRaiseHook__I
86040d80   ti_sysbios_BIOS_exitFunc__I
8919989c   ti_sysbios_BIOS_installedErrorHook__C
86041f40   ti_sysbios_BIOS_registerRTSLock__I
86043740   ti_sysbios_BIOS_setThreadType__E
860428c0   ti_sysbios_BIOS_startFunc__I
86043760   ti_sysbios_family_c62_TaskSupport_Module__startupDone__S
86042740   ti_sysbios_family_c62_TaskSupport_buildTaskStack
86043780   ti_sysbios_family_c62_TaskSupport_checkStack__E
860437a0   ti_sysbios_family_c62_TaskSupport_getStackAlignment__E
860435e0   ti_sysbios_family_c62_TaskSupport_glue
89199944   ti_sysbios_family_c62_TaskSupport_stackAlignment__C
86040e00   ti_sysbios_family_c62_TaskSupport_start__E
86040900   ti_sysbios_family_c62_TaskSupport_swap__E
891999ec   ti_sysbios_family_c64p_Exception_E_exceptionMin__C
8919aa8c   ti_sysbios_family_c64p_Exception_Module__id__C
8919afb4   ti_sysbios_family_c64p_Exception_Module__state__V
860437c0   ti_sysbios_family_c64p_Exception_Module_startup__E
86040e80   ti_sysbios_family_c64p_Exception_Module_startup__F
8603a5a0   ti_sysbios_family_c64p_Exception_dispatch__E
89199a84   ti_sysbios_family_c64p_Exception_exceptionHook__C
89199b1c   ti_sysbios_family_c64p_Exception_externalHook__C
8602bfe0   ti_sysbios_family_c64p_Exception_handler__I
86036e60   ti_sysbios_family_c64p_Exception_internalHandler__I
89199d54   ti_sysbios_family_c64p_Exception_internalHook__C
89199ddc   ti_sysbios_family_c64p_Exception_nmiHook__C
8604b400   ti_sysbios_family_c64p_Hwi0
8604b420   ti_sysbios_family_c64p_Hwi1
8604b540   ti_sysbios_family_c64p_Hwi10
8604b560   ti_sysbios_family_c64p_Hwi11
8604b580   ti_sysbios_family_c64p_Hwi12
8604b5a0   ti_sysbios_family_c64p_Hwi13
8604b5c0   ti_sysbios_family_c64p_Hwi14
8604b5e0   ti_sysbios_family_c64p_Hwi15
8604b440   ti_sysbios_family_c64p_Hwi2
8604b460   ti_sysbios_family_c64p_Hwi3
8604b480   ti_sysbios_family_c64p_Hwi4
8604b4a0   ti_sysbios_family_c64p_Hwi5
8604b4c0   ti_sysbios_family_c64p_Hwi6
8604b4e0   ti_sysbios_family_c64p_Hwi7
8604b500   ti_sysbios_family_c64p_Hwi8
8604b520   ti_sysbios_family_c64p_Hwi9
89199f4c   ti_sysbios_family_c64p_Hwi_LD_end__C
8919a054   ti_sysbios_family_c64p_Hwi_LM_begin__C
8919a09c   ti_sysbios_family_c64p_Hwi_Module__diagsEnabled__C
8919a124   ti_sysbios_family_c64p_Hwi_Module__diagsIncluded__C
8919a344   ti_sysbios_family_c64p_Hwi_Module__diagsMask__C
8919aa94   ti_sysbios_family_c64p_Hwi_Module__id__C
8919aa9c   ti_sysbios_family_c64p_Hwi_Module__loggerDefined__C
8919a37c   ti_sysbios_family_c64p_Hwi_Module__loggerFxn1__C
8919a40c   ti_sysbios_family_c64p_Hwi_Module__loggerFxn8__C
8919a43c   ti_sysbios_family_c64p_Hwi_Module__loggerObj__C
8919afe0   ti_sysbios_family_c64p_Hwi_Module__root__V
86042900   ti_sysbios_family_c64p_Hwi_Module__startupDone__F
860437e0   ti_sysbios_family_c64p_Hwi_Module__startupDone__S
8919afe8   ti_sysbios_family_c64p_Hwi_Module__state__V
86043800   ti_sysbios_family_c64p_Hwi_Module_startup__E
8603b760   ti_sysbios_family_c64p_Hwi_Module_startup__F
8919bdd0   ti_sysbios_family_c64p_Hwi_Object__table__V
86043820   ti_sysbios_family_c64p_Hwi_clearInterrupt__E
86042940   ti_sysbios_family_c64p_Hwi_disableInterrupt__E
86037d60   ti_sysbios_family_c64p_Hwi_dispatchAlways
86033e00   ti_sysbios_family_c64p_Hwi_dispatchC__I
86042980   ti_sysbios_family_c64p_Hwi_enableInterrupt__E
86043840   ti_sysbios_family_c64p_Hwi_startup__E
86043860   ti_sysbios_family_c64p_Hwi_switchFromBootStack__E
86043880   ti_sysbios_family_c64p_TimestampProvider_Module_startup__E
860438a0   ti_sysbios_family_c64p_TimestampProvider_Module_startup__F
860438c0   ti_sysbios_family_c64p_TimestampProvider_get64__E
860438e0   ti_sysbios_family_c64p_tci6488_TimerSupport_enable__E
86043900   ti_sysbios_family_c66_Cache_Module_startup__E
8603b8a0   ti_sysbios_family_c66_Cache_Module_startup__F
89193524   ti_sysbios_family_c66_Cache_initSize__C
89196be0   ti_sysbios_family_c66_Cache_marvalues__C
86042780   ti_sysbios_family_xxx_Hwi_switchToIsrStack
86043600   ti_sysbios_family_xxx_Hwi_switchToTaskStack
860429c0   ti_sysbios_gates_GateHwi_Handle__label__S
86043920   ti_sysbios_gates_GateHwi_Instance_init__F
8919a4e4   ti_sysbios_gates_GateHwi_Module__FXNS__C
8919b04c   ti_sysbios_gates_GateHwi_Module__root__V
8919a5e0   ti_sysbios_gates_GateHwi_Object__DESC__C
8919a73c   ti_sysbios_gates_GateHwi_Object__PARAMS__C
86040f00   ti_sysbios_gates_GateHwi_Object__create__S
86042a00   ti_sysbios_gates_GateHwi_Object__delete__S
8919c2d0   ti_sysbios_gates_GateHwi_Object__table__V
86043940   ti_sysbios_gates_GateHwi_enter__E
86043960   ti_sysbios_gates_GateHwi_leave__E
86043980   ti_sysbios_gates_GateHwi_query__E
860439a0   ti_sysbios_gates_GateHwi_query__F
8919a4bc   ti_sysbios_gates_GateMutex_A_badContext__C
86042a40   ti_sysbios_gates_GateMutex_Handle__label__S
8919a5bc   ti_sysbios_gates_GateMutex_Instance_State_sem__O
86042a80   ti_sysbios_gates_GateMutex_Instance_finalize__F
86041fa0   ti_sysbios_gates_GateMutex_Instance_init__F
8919a508   ti_sysbios_gates_GateMutex_Module__FXNS__C
8919a71c   ti_sysbios_gates_GateMutex_Module__diagsEnabled__C
8919a78c   ti_sysbios_gates_GateMutex_Module__diagsIncluded__C
8919a7c4   ti_sysbios_gates_GateMutex_Module__diagsMask__C
8919aaa0   ti_sysbios_gates_GateMutex_Module__id__C
8919b054   ti_sysbios_gates_GateMutex_Module__root__V
8919a600   ti_sysbios_gates_GateMutex_Object__DESC__C
8919a754   ti_sysbios_gates_GateMutex_Object__PARAMS__C
86040f80   ti_sysbios_gates_GateMutex_Object__create__S
86042ac0   ti_sysbios_gates_GateMutex_Object__delete__S
8919b9e0   ti_sysbios_gates_GateMutex_Object__table__V
86039940   ti_sysbios_gates_GateMutex_enter__E
86042b00   ti_sysbios_gates_GateMutex_leave__E
860439c0   ti_sysbios_gates_GateMutex_query__E
860439e0   ti_sysbios_gates_GateMutex_query__F
8919a7e4   ti_sysbios_hal_Hwi_E_stackOverflow__C
86043a00   ti_sysbios_hal_Hwi_HwiProxy_Module__startupDone__S
86043a20   ti_sysbios_hal_Hwi_HwiProxy_clearInterrupt__E
86043a40   ti_sysbios_hal_Hwi_HwiProxy_disableInterrupt__E
86043a60   ti_sysbios_hal_Hwi_HwiProxy_enableInterrupt__E
86043a80   ti_sysbios_hal_Hwi_HwiProxy_startup__E
86043aa0   ti_sysbios_hal_Hwi_HwiProxy_switchFromBootStack__E
8919aaa4   ti_sysbios_hal_Hwi_Module__id__C
8919b05c   ti_sysbios_hal_Hwi_Module__root__V
86043ac0   ti_sysbios_hal_Hwi_Module_startup__E
86043ae0   ti_sysbios_hal_Hwi_Module_startup__F
8919be70   ti_sysbios_hal_Hwi_Object__table__V
86041000   ti_sysbios_hal_Hwi_checkStack
86043a20   ti_sysbios_hal_Hwi_clearInterrupt__E
86043a40   ti_sysbios_hal_Hwi_disableInterrupt__E
86043a60   ti_sysbios_hal_Hwi_enableInterrupt__E
86042000   ti_sysbios_hal_Hwi_initStack
86043a80   ti_sysbios_hal_Hwi_startup__E
86043aa0   ti_sysbios_hal_Hwi_switchFromBootStack__E
8919b064   ti_sysbios_hal_Timer_Module__root__V
86042b40   ti_sysbios_hal_Timer_Module__startupDone__F
86043b00   ti_sysbios_hal_Timer_Module__startupDone__S
86043b20   ti_sysbios_hal_Timer_Module_startup__E
86043b40   ti_sysbios_hal_Timer_Module_startup__F
8919be80   ti_sysbios_hal_Timer_Object__table__V
86043b60   ti_sysbios_hal_Timer_TimerProxy_Module__startupDone__S
86043b80   ti_sysbios_hal_Timer_TimerProxy_getExpiredCounts__E
86043ba0   ti_sysbios_hal_Timer_TimerProxy_getPeriod__E
86043bc0   ti_sysbios_hal_Timer_TimerProxy_setNextTick__E
86043be0   ti_sysbios_hal_Timer_TimerProxy_startup__E
86043be0   ti_sysbios_hal_Timer_startup__E
8919a7f4   ti_sysbios_heaps_HeapMem_A_align__C
8919a804   ti_sysbios_heaps_HeapMem_A_heapSize__C
8919a814   ti_sysbios_heaps_HeapMem_A_invalidFree__C
8919a824   ti_sysbios_heaps_HeapMem_A_zeroBlock__C
8919a860   ti_sysbios_heaps_HeapMem_E_memory__C
86042b80   ti_sysbios_heaps_HeapMem_Handle__label__S
89106700   ti_sysbios_heaps_HeapMem_Instance_State_0_buf__A
8603a720   ti_sysbios_heaps_HeapMem_Instance_init__F
86043c00   ti_sysbios_heaps_HeapMem_Module_GateProxy_enter__E
86043c20   ti_sysbios_heaps_HeapMem_Module_GateProxy_leave__E
86043c40   ti_sysbios_heaps_HeapMem_Module_GateProxy_query__E
8919a46c   ti_sysbios_heaps_HeapMem_Module__FXNS__C
8919a864   ti_sysbios_heaps_HeapMem_Module__diagsEnabled__C
8919a868   ti_sysbios_heaps_HeapMem_Module__diagsIncluded__C
8919a86c   ti_sysbios_heaps_HeapMem_Module__diagsMask__C
8919a870   ti_sysbios_heaps_HeapMem_Module__gateObj__C
8919aaa8   ti_sysbios_heaps_HeapMem_Module__id__C
8919b06c   ti_sysbios_heaps_HeapMem_Module__root__V
8919a620   ti_sysbios_heaps_HeapMem_Object__DESC__C
8919a640   ti_sysbios_heaps_HeapMem_Object__PARAMS__C
8919a874   ti_sysbios_heaps_HeapMem_Object__count__C
86041080   ti_sysbios_heaps_HeapMem_Object__create__S
86042bc0   ti_sysbios_heaps_HeapMem_Object__delete__S
86042060   ti_sysbios_heaps_HeapMem_Object__get__S
8919a878   ti_sysbios_heaps_HeapMem_Object__table__C
8919be30   ti_sysbios_heaps_HeapMem_Object__table__V
8602d4e0   ti_sysbios_heaps_HeapMem_alloc__E
8602ce80   ti_sysbios_heaps_HeapMem_free__E
8603efc0   ti_sysbios_heaps_HeapMem_getStats__E
86040260   ti_sysbios_heaps_HeapMem_init__I
86043c60   ti_sysbios_heaps_HeapMem_isBlocking__E
8919a87c   ti_sysbios_heaps_HeapMem_reqAlignMask__C
8919a880   ti_sysbios_heaps_HeapMem_reqAlign__C
8919a884   ti_sysbios_knl_Clock_A_badThreadType__C
8603b9e0   ti_sysbios_knl_Clock_Instance_finalize__F
86035900   ti_sysbios_knl_Clock_Instance_init__F
8919a888   ti_sysbios_knl_Clock_LM_begin__C
8919a88c   ti_sysbios_knl_Clock_LM_tick__C
8919a890   ti_sysbios_knl_Clock_LW_delayed__C
8919a894   ti_sysbios_knl_Clock_Module_State_clockQ__O
8919a898   ti_sysbios_knl_Clock_Module__diagsEnabled__C
8919a89c   ti_sysbios_knl_Clock_Module__diagsIncluded__C
8919a8a0   ti_sysbios_knl_Clock_Module__diagsMask__C
8919aaac   ti_sysbios_knl_Clock_Module__id__C
8919aab0   ti_sysbios_knl_Clock_Module__loggerDefined__C
8919a8a4   ti_sysbios_knl_Clock_Module__loggerFxn1__C
8919a8a8   ti_sysbios_knl_Clock_Module__loggerFxn2__C
8919a8ac   ti_sysbios_knl_Clock_Module__loggerObj__C
8919b074   ti_sysbios_knl_Clock_Module__root__V
8919b07c   ti_sysbios_knl_Clock_Module__state__V
86043ca0   ti_sysbios_knl_Clock_Module_startup__E
86041100   ti_sysbios_knl_Clock_Module_startup__F
8919a660   ti_sysbios_knl_Clock_Object__DESC__C
8919a52c   ti_sysbios_knl_Clock_Object__PARAMS__C
86040300   ti_sysbios_knl_Clock_Object__create__S
86042c00   ti_sysbios_knl_Clock_Object__destruct__S
86042c40   ti_sysbios_knl_Clock_Params__init__S
86041180   ti_sysbios_knl_Clock_doTick__I
86041200   ti_sysbios_knl_Clock_getTicks__E
8603f080   ti_sysbios_knl_Clock_logTick__E
8603d160   ti_sysbios_knl_Clock_startI__E
8603e100   ti_sysbios_knl_Clock_start__E
8919a8b0   ti_sysbios_knl_Clock_tickMode__C
8919a8b4   ti_sysbios_knl_Clock_tickSource__C
86034ec0   ti_sysbios_knl_Clock_workFunc__E
8919a8c0   ti_sysbios_knl_Idle_funcList__A
8919a838   ti_sysbios_knl_Idle_funcList__C
8603f140   ti_sysbios_knl_Idle_loop__E
86043cc0   ti_sysbios_knl_Queue_Instance_init__F
8919b0a8   ti_sysbios_knl_Queue_Module__root__V
8919a680   ti_sysbios_knl_Queue_Object__DESC__C
8919a76c   ti_sysbios_knl_Queue_Object__PARAMS__C
8919a8b8   ti_sysbios_knl_Queue_Object__count__C
86041280   ti_sysbios_knl_Queue_Object__create__S
86042c80   ti_sysbios_knl_Queue_Object__destruct__S
860420c0   ti_sysbios_knl_Queue_Object__get__S
8919a8bc   ti_sysbios_knl_Queue_Object__table__C
86043ce0   ti_sysbios_knl_Queue_empty__E
8919a8c4   ti_sysbios_knl_Semaphore_A_badContext__C
8919a8c8   ti_sysbios_knl_Semaphore_A_noEvents__C
8919a8cc   ti_sysbios_knl_Semaphore_Instance_State_pendQ__O
86042cc0   ti_sysbios_knl_Semaphore_Instance_finalize__F
8603bb20   ti_sysbios_knl_Semaphore_Instance_init__F
8919a8d0   ti_sysbios_knl_Semaphore_LM_pend__C
8919a8d4   ti_sysbios_knl_Semaphore_LM_post__C
8919a8d8   ti_sysbios_knl_Semaphore_Module__diagsEnabled__C
8919a8dc   ti_sysbios_knl_Semaphore_Module__diagsIncluded__C
8919a8e0   ti_sysbios_knl_Semaphore_Module__diagsMask__C
8919aab4   ti_sysbios_knl_Semaphore_Module__id__C
8919aab8   ti_sysbios_knl_Semaphore_Module__loggerDefined__C
8919a8e4   ti_sysbios_knl_Semaphore_Module__loggerFxn2__C
8919a8e8   ti_sysbios_knl_Semaphore_Module__loggerFxn4__C
8919a8ec   ti_sysbios_knl_Semaphore_Module__loggerObj__C
8919b0b0   ti_sysbios_knl_Semaphore_Module__root__V
8919a6a0   ti_sysbios_knl_Semaphore_Object__DESC__C
8919a550   ti_sysbios_knl_Semaphore_Object__PARAMS__C
86041300   ti_sysbios_knl_Semaphore_Object__create__S
86042d00   ti_sysbios_knl_Semaphore_Object__destruct__S
86042d40   ti_sysbios_knl_Semaphore_Params__init__S
86041380   ti_sysbios_knl_Semaphore_pendTimeout__I
86031400   ti_sysbios_knl_Semaphore_pend__E
8603a8a0   ti_sysbios_knl_Semaphore_post__E
86043d00   ti_sysbios_knl_Semaphore_reset__E
8919a8f0   ti_sysbios_knl_Swi_LD_end__C
8919a8f4   ti_sysbios_knl_Swi_LM_begin__C
8919a8f8   ti_sysbios_knl_Swi_LM_post__C
8919b640   ti_sysbios_knl_Swi_Module_State_0_readyQ__A
8919a8fc   ti_sysbios_knl_Swi_Module__diagsEnabled__C
8919a900   ti_sysbios_knl_Swi_Module__diagsIncluded__C
8919a904   ti_sysbios_knl_Swi_Module__diagsMask__C
8919aabc   ti_sysbios_knl_Swi_Module__id__C
8919aac0   ti_sysbios_knl_Swi_Module__loggerDefined__C
8919a908   ti_sysbios_knl_Swi_Module__loggerFxn1__C
8919a90c   ti_sysbios_knl_Swi_Module__loggerFxn4__C
8919a910   ti_sysbios_knl_Swi_Module__loggerObj__C
8919b0b8   ti_sysbios_knl_Swi_Module__root__V
8919b0c0   ti_sysbios_knl_Swi_Module__state__V
86043d20   ti_sysbios_knl_Swi_Module_startup__E
86042120   ti_sysbios_knl_Swi_Module_startup__F
8919a914   ti_sysbios_knl_Swi_Object__count__C
86042180   ti_sysbios_knl_Swi_Object__get__S
8919a918   ti_sysbios_knl_Swi_Object__table__C
8919ba90   ti_sysbios_knl_Swi_Object__table__V
86043d40   ti_sysbios_knl_Swi_disable__E
8603bc60   ti_sysbios_knl_Swi_post__E
86032e80   ti_sysbios_knl_Swi_restoreHwi__E
86031fe0   ti_sysbios_knl_Swi_schedule__I
86041400   ti_sysbios_knl_Swi_startup__E
8919a91c   ti_sysbios_knl_Task_A_badPriority__C
8919a920   ti_sysbios_knl_Task_A_badTaskState__C
8919a924   ti_sysbios_knl_Task_A_badThreadType__C
8919a928   ti_sysbios_knl_Task_A_badTimeout__C
8919a92c   ti_sysbios_knl_Task_A_noPendElem__C
8919a930   ti_sysbios_knl_Task_E_spOutOfBounds__C
8919a934   ti_sysbios_knl_Task_E_stackOverflow__C
89107700   ti_sysbios_knl_Task_Instance_State_0_hookEnv__A
89108de8   ti_sysbios_knl_Task_Instance_State_0_stack__A
8602ec20   ti_sysbios_knl_Task_Instance_finalize__F
860323a0   ti_sysbios_knl_Task_Instance_init__F
8919a938   ti_sysbios_knl_Task_LD_block__C
8919a93c   ti_sysbios_knl_Task_LD_exit__C
8919a940   ti_sysbios_knl_Task_LD_ready__C
8919a944   ti_sysbios_knl_Task_LM_setPri__C
8919a948   ti_sysbios_knl_Task_LM_sleep__C
8919a94c   ti_sysbios_knl_Task_LM_switch__C
8919a950   ti_sysbios_knl_Task_LM_yield__C
8919b6c0   ti_sysbios_knl_Task_Module_State_0_readyQ__A
8919a954   ti_sysbios_knl_Task_Module_State_inactiveQ__O
8919a958   ti_sysbios_knl_Task_Module_State_terminatedQ__O
8919a95c   ti_sysbios_knl_Task_Module__diagsEnabled__C
8919a960   ti_sysbios_knl_Task_Module__diagsIncluded__C
8919a964   ti_sysbios_knl_Task_Module__diagsMask__C
8919aac4   ti_sysbios_knl_Task_Module__id__C
8919aac8   ti_sysbios_knl_Task_Module__loggerDefined__C
8919a968   ti_sysbios_knl_Task_Module__loggerFxn2__C
8919a96c   ti_sysbios_knl_Task_Module__loggerFxn4__C
8919a970   ti_sysbios_knl_Task_Module__loggerObj__C
8919b0dc   ti_sysbios_knl_Task_Module__root__V
8919b0e4   ti_sysbios_knl_Task_Module__state__V
86043d60   ti_sysbios_knl_Task_Module_startup__E
8602fea0   ti_sysbios_knl_Task_Module_startup__F
8919a6c0   ti_sysbios_knl_Task_Object__DESC__C
8919a2d8   ti_sysbios_knl_Task_Object__PARAMS__C
8919a974   ti_sysbios_knl_Task_Object__count__C
8603f200   ti_sysbios_knl_Task_Object__create__S
86042d80   ti_sysbios_knl_Task_Object__first__S
860421e0   ti_sysbios_knl_Task_Object__get__S
8919a978   ti_sysbios_knl_Task_Object__heap__C
86042dc0   ti_sysbios_knl_Task_Object__next__S
8919a97c   ti_sysbios_knl_Task_Object__table__C
8919b990   ti_sysbios_knl_Task_Object__table__V
86042e00   ti_sysbios_knl_Task_Params__init__S
86043d80   ti_sysbios_knl_Task_SupportProxy_Module__startupDone__S
86043da0   ti_sysbios_knl_Task_SupportProxy_checkStack__E
86043dc0   ti_sysbios_knl_Task_SupportProxy_getStackAlignment__E
86043de0   ti_sysbios_knl_Task_SupportProxy_start__E
86043e00   ti_sysbios_knl_Task_SupportProxy_swap__E
8919a980   ti_sysbios_knl_Task_allBlockedFunc__C
86042240   ti_sysbios_knl_Task_allBlockedFunction__I
8603bda0   ti_sysbios_knl_Task_blockI__E
86038c00   ti_sysbios_knl_Task_checkStacks__E
8919a984   ti_sysbios_knl_Task_defaultStackHeap__C
8919a988   ti_sysbios_knl_Task_defaultStackSize__C
8919aacc   ti_sysbios_knl_Task_deleteTerminatedTasks__C
86043e20   ti_sysbios_knl_Task_disable__E
860422a0   ti_sysbios_knl_Task_enter__I
86035b80   ti_sysbios_knl_Task_exit__E
8919a790   ti_sysbios_knl_Task_hooks__A
8919a840   ti_sysbios_knl_Task_hooks__C
8919aad0   ti_sysbios_knl_Task_initStackFlag__C
8919a98c   ti_sysbios_knl_Task_numConstructedTasks__C
8919a990   ti_sysbios_knl_Task_numPriorities__C
86038140   ti_sysbios_knl_Task_postInit__I
86041480   ti_sysbios_knl_Task_restore__E
86037720   ti_sysbios_knl_Task_schedule__I
86032760   ti_sysbios_knl_Task_setPri__E
86042e40   ti_sysbios_knl_Task_sleepTimeout__I
86035160   ti_sysbios_knl_Task_sleep__E
86037940   ti_sysbios_knl_Task_startup__E
8603aa20   ti_sysbios_knl_Task_unblockI__E
8603bee0   ti_sysbios_knl_Task_yield__E
8919a994   ti_sysbios_timers_timer64_Timer_A_notAvailable__C
8919a998   ti_sysbios_timers_timer64_Timer_E_cannotSupport__C
8919b360   ti_sysbios_timers_timer64_Timer_Module_State_0_device__A
8919b740   ti_sysbios_timers_timer64_Timer_Module_State_0_gctrl__A
8919b7c0   ti_sysbios_timers_timer64_Timer_Module_State_0_handles__A
8919b840   ti_sysbios_timers_timer64_Timer_Module_State_0_intFreqs__A
8919a99c   ti_sysbios_timers_timer64_Timer_Module__diagsEnabled__C
8919a9a0   ti_sysbios_timers_timer64_Timer_Module__diagsIncluded__C
8919a9a4   ti_sysbios_timers_timer64_Timer_Module__diagsMask__C
8919aad4   ti_sysbios_timers_timer64_Timer_Module__id__C
8919b118   ti_sysbios_timers_timer64_Timer_Module__root__V
86042e80   ti_sysbios_timers_timer64_Timer_Module__startupDone__F
86043e40   ti_sysbios_timers_timer64_Timer_Module__startupDone__S
8919b120   ti_sysbios_timers_timer64_Timer_Module__state__V
86043e60   ti_sysbios_timers_timer64_Timer_Module_startup__E
8602e680   ti_sysbios_timers_timer64_Timer_Module_startup__F
8919b940   ti_sysbios_timers_timer64_Timer_Object__table__V
86043e80   ti_sysbios_timers_timer64_Timer_TimerSupportProxy_enable__E
8919a9a8   ti_sysbios_timers_timer64_Timer_anyMask__C
8919a9ac   ti_sysbios_timers_timer64_Timer_freqDivisor__C
86041500   ti_sysbios_timers_timer64_Timer_getCount__E
86041500   ti_sysbios_timers_timer64_Timer_getExpiredCounts__E
86038320   ti_sysbios_timers_timer64_Timer_getFreq__E
86041580   ti_sysbios_timers_timer64_Timer_getPeriod__E
8919a9b0   ti_sysbios_timers_timer64_Timer_numLocalTimers__C
8919a9b4   ti_sysbios_timers_timer64_Timer_numTimerDevices__C
86043ea0   ti_sysbios_timers_timer64_Timer_setNextTick__E
86038dc0   ti_sysbios_timers_timer64_Timer_setPeriodMicroSecs__E
86039ae0   ti_sysbios_timers_timer64_Timer_start__E
8919aad8   ti_sysbios_timers_timer64_Timer_startupNeeded__C
8603e1e0   ti_sysbios_timers_timer64_Timer_startup__E
8603f2c0   ti_sysbios_timers_timer64_Timer_stop__E
891982d0   tsc_gmsk
86041600   unlink
8603f380   write
86042300   writemsg
8919a9b8   xdc_runtime_Assert_E_assertFailed__C
860403a0   xdc_runtime_Assert_raise__I
8919a9bc   xdc_runtime_Core_A_initializedParams__C
8919a9c0   xdc_runtime_Core_Module__diagsEnabled__C
8919a9c4   xdc_runtime_Core_Module__diagsIncluded__C
8919a9c8   xdc_runtime_Core_Module__diagsMask__C
8919aadc   xdc_runtime_Core_Module__id__C
86041680   xdc_runtime_Core_assignLabel__I
86041700   xdc_runtime_Core_assignParams__I
86035e00   xdc_runtime_Core_createObject__I
8603d260   xdc_runtime_Core_deleteObject__I
8919a9cc   xdc_runtime_Error_E_generic__C
8919a9d0   xdc_runtime_Error_E_memory__C
8919a9d4   xdc_runtime_Error_Module__diagsEnabled__C
8919a9d8   xdc_runtime_Error_Module__diagsIncluded__C
8919a9dc   xdc_runtime_Error_Module__diagsMask__C
8919aae0   xdc_runtime_Error_Module__loggerDefined__C
8919a9e0   xdc_runtime_Error_Module__loggerFxn8__C
8919a9e4   xdc_runtime_Error_Module__loggerObj__C
8919b134   xdc_runtime_Error_Module__state__V
86043ee0   xdc_runtime_Error_check__E
86042ec0   xdc_runtime_Error_check__F
86043f00   xdc_runtime_Error_init__E
86042f00   xdc_runtime_Error_init__F
8919aae4   xdc_runtime_Error_maxDepth__C
8919a9e8   xdc_runtime_Error_policy__C
86043f20   xdc_runtime_Error_print__E
8603e2c0   xdc_runtime_Error_print__F
8919a9ec   xdc_runtime_Error_raiseHook__C
86042f40   xdc_runtime_Error_raiseX__E
86036080   xdc_runtime_Error_raiseX__F
86043f40   xdc_runtime_Gate_enterSystem__E
86043f60   xdc_runtime_Gate_enterSystem__F
86043f80   xdc_runtime_Gate_leaveSystem__E
86042f80   xdc_runtime_Gate_leaveSystem__F
8919a9f0   xdc_runtime_IFilterLogger_Interface__BASE__C
8919a9f4   xdc_runtime_IGateProvider_Interface__BASE__C
8919a9f8   xdc_runtime_IHeap_Interface__BASE__C
8919a9fc   xdc_runtime_ILogger_Interface__BASE__C
8919aa00   xdc_runtime_IModule_Interface__BASE__C
8919aa04   xdc_runtime_Log_L_error__C
8919aa08   xdc_runtime_LoggerBuf_E_badLevel__C
86043040   xdc_runtime_LoggerBuf_Handle__label__S
89107710   xdc_runtime_LoggerBuf_Instance_State_0_entryArr__A
86043080   xdc_runtime_LoggerBuf_Instance_finalize__F
8603f440   xdc_runtime_LoggerBuf_Instance_init__F
86043fa0   xdc_runtime_LoggerBuf_Module_GateProxy_enter__E
86043fc0   xdc_runtime_LoggerBuf_Module_GateProxy_leave__E
8919a264   xdc_runtime_LoggerBuf_Module__FXNS__C
8919aa0c   xdc_runtime_LoggerBuf_Module__gateObj__C
8919aae8   xdc_runtime_LoggerBuf_Module__id__C
8919b138   xdc_runtime_LoggerBuf_Module__root__V
8919b140   xdc_runtime_LoggerBuf_Module__state__V
86043fe0   xdc_runtime_LoggerBuf_Module_startup__E
86040440   xdc_runtime_LoggerBuf_Module_startup__F
8919a6e0   xdc_runtime_LoggerBuf_Object__DESC__C
8919a494   xdc_runtime_LoggerBuf_Object__PARAMS__C
8919aa10   xdc_runtime_LoggerBuf_Object__count__C
8603f500   xdc_runtime_LoggerBuf_Object__create__S
860430c0   xdc_runtime_LoggerBuf_Object__delete__S
86042360   xdc_runtime_LoggerBuf_Object__get__S
8919aa14   xdc_runtime_LoggerBuf_Object__table__C
8919bac0   xdc_runtime_LoggerBuf_Object__table__V
86044000   xdc_runtime_LoggerBuf_TimestampProxy_get64__E
86044020   xdc_runtime_LoggerBuf_disable__E
86044040   xdc_runtime_LoggerBuf_disable__F
86044060   xdc_runtime_LoggerBuf_enable__E
86044080   xdc_runtime_LoggerBuf_enable__F
8919aaec   xdc_runtime_LoggerBuf_filterByLevel__C
86041780   xdc_runtime_LoggerBuf_filterOutEvent__I
860440a0   xdc_runtime_LoggerBuf_getFilterLevel__E
8603d360   xdc_runtime_LoggerBuf_getFilterLevel__F
860440c0   xdc_runtime_LoggerBuf_setFilterLevel__E
8603c920   xdc_runtime_LoggerBuf_setFilterLevel__F
8919aa18   xdc_runtime_LoggerBuf_statusLogger__C
860440e0   xdc_runtime_LoggerBuf_write0__E
86043100   xdc_runtime_LoggerBuf_write0__F
86043140   xdc_runtime_LoggerBuf_write1__E
86043180   xdc_runtime_LoggerBuf_write1__F
860431c0   xdc_runtime_LoggerBuf_write2__E
86043200   xdc_runtime_LoggerBuf_write2__F
86043240   xdc_runtime_LoggerBuf_write4__E
86039c80   xdc_runtime_LoggerBuf_write4__F
860404e0   xdc_runtime_LoggerBuf_write8__E
860370a0   xdc_runtime_LoggerBuf_write8__F
8919aa1c   xdc_runtime_Main_Module__diagsEnabled__C
8919aa20   xdc_runtime_Main_Module__diagsIncluded__C
8919aa24   xdc_runtime_Main_Module__diagsMask__C
8919aaf0   xdc_runtime_Main_Module__id__C
8919aaf4   xdc_runtime_Main_Module__loggerDefined__C
8919aa28   xdc_runtime_Main_Module__loggerFxn1__C
8919aa2c   xdc_runtime_Main_Module__loggerFxn2__C
8919aa30   xdc_runtime_Main_Module__loggerFxn4__C
8919aa34   xdc_runtime_Main_Module__loggerFxn8__C
8919aa38   xdc_runtime_Main_Module__loggerObj__C
86044100   xdc_runtime_Memory_HeapProxy_alloc__E
86044120   xdc_runtime_Memory_HeapProxy_free__E
8919aaf8   xdc_runtime_Memory_Module__id__C
8919b148   xdc_runtime_Memory_Module__state__V
86044140   xdc_runtime_Memory_alloc__E
8603e3a0   xdc_runtime_Memory_alloc__F
86044160   xdc_runtime_Memory_calloc__E
860423c0   xdc_runtime_Memory_calloc__F
8919aa3c   xdc_runtime_Memory_defaultHeapInstance__C
86044180   xdc_runtime_Memory_free__E
86043280   xdc_runtime_Memory_free__F
8919b14c   xdc_runtime_Registry_Module__state__V
860441a0   xdc_runtime_Registry_findById__E
860432c0   xdc_runtime_Registry_findById__F
8919b154   xdc_runtime_Startup_Module__state__V
00000001   xdc_runtime_Startup__EXECFXN__C
00000001   xdc_runtime_Startup__RESETFXN__C
8919aa40   xdc_runtime_Startup_execImpl__C
860441c0   xdc_runtime_Startup_exec__E
8603d460   xdc_runtime_Startup_exec__F
86043300   xdc_runtime_Startup_exec__I
8919a850   xdc_runtime_Startup_firstFxns__A
8919a848   xdc_runtime_Startup_firstFxns__C
8919aa50   xdc_runtime_Startup_lastFxns__A
8919a858   xdc_runtime_Startup_lastFxns__C
8919aa44   xdc_runtime_Startup_maxPasses__C
860441e0   xdc_runtime_Startup_reset__I
8919a720   xdc_runtime_Startup_sfxnRts__A
8919aa48   xdc_runtime_Startup_sfxnRts__C
8919a380   xdc_runtime_Startup_sfxnTab__A
8919aa4c   xdc_runtime_Startup_sfxnTab__C
8919aa54   xdc_runtime_Startup_startModsFxn__C
86036300   xdc_runtime_Startup_startMods__I
89107910   xdc_runtime_SysMin_Module_State_0_outbuf__A
8919b15c   xdc_runtime_SysMin_Module__state__V
86044200   xdc_runtime_SysMin_Module_startup__E
86042420   xdc_runtime_SysMin_Module_startup__F
86044220   xdc_runtime_SysMin_abort__E
86040580   xdc_runtime_SysMin_abort__F
8919aa58   xdc_runtime_SysMin_bufSize__C
86044240   xdc_runtime_SysMin_exit__E
86042480   xdc_runtime_SysMin_exit__F
8919aafc   xdc_runtime_SysMin_flushAtExit__C
86040620   xdc_runtime_SysMin_flush__F
8919aa5c   xdc_runtime_SysMin_outputFunc__C
860406c0   xdc_runtime_SysMin_output__I
86044260   xdc_runtime_SysMin_putch__E
86040760   xdc_runtime_SysMin_putch__F
86044280   xdc_runtime_SysMin_ready__E
860442a0   xdc_runtime_SysMin_ready__F
860442c0   xdc_runtime_System_Module_GateProxy_enter__E
860442e0   xdc_runtime_System_Module_GateProxy_leave__E
8919be50   xdc_runtime_System_Module_State_0_atexitHandlers__A
8919aa60   xdc_runtime_System_Module__gateObj__C
8919b168   xdc_runtime_System_Module__state__V
86044300   xdc_runtime_System_Module_startup__E
86044320   xdc_runtime_System_Module_startup__F
86044340   xdc_runtime_System_SupportProxy_abort__E
86044360   xdc_runtime_System_SupportProxy_exit__E
86044380   xdc_runtime_System_SupportProxy_putch__E
860443a0   xdc_runtime_System_SupportProxy_ready__E
860443c0   xdc_runtime_System_abort__E
86043340   xdc_runtime_System_abort__F
86043380   xdc_runtime_System_aprintf__E
860424e0   xdc_runtime_System_aprintf_va__F
860443e0   xdc_runtime_System_atexit__E
86041800   xdc_runtime_System_atexit__F
860424e0   xdc_runtime_System_avprintf__F
860284a0   xdc_runtime_System_doPrint__I
86044400   xdc_runtime_System_exit__E
86044420   xdc_runtime_System_exit__F
8919aa64   xdc_runtime_System_extendFxn__C
8603f5c0   xdc_runtime_System_formatNum__I
86044440   xdc_runtime_System_lastFxn__I
8919aa68   xdc_runtime_System_maxAtexitHandlers__C
86031800   xdc_runtime_uart_writeExtend__I
860433c0   xdc_runtime_uart_write__E
86042540   xdc_runtime_uart_write_va__F
86041880   xdc_runtime_System_rtsExit__I
86044480   xdc_runtime_System_sprintf_va__F
86042540   xdc_runtime_System_vprintf__F
86044460   xdc_runtime_System_vsprintf__E
86044480   xdc_runtime_System_vsprintf__F
8919b174   xdc_runtime_Text_Module__state__V
8919ab00   xdc_runtime_Text_charCnt__C
891923a0   xdc_runtime_Text_charTab__A
8919aa6c   xdc_runtime_Text_charTab__C
860444a0   xdc_runtime_Text_cordText__E
860425a0   xdc_runtime_Text_cordText__F
8919ab04   xdc_runtime_Text_isLoaded__C
8919aa70   xdc_runtime_Text_nameEmpty__C
8919aa74   xdc_runtime_Text_nameStatic__C
8919aa78   xdc_runtime_Text_nameUnknown__C
89199500   xdc_runtime_Text_nodeTab__A
8919aa7c   xdc_runtime_Text_nodeTab__C
86041900   xdc_runtime_Text_printVisFxn__I
860444c0   xdc_runtime_Text_putLab__E
8603ca40   xdc_runtime_Text_putLab__F
8603d560   xdc_runtime_Text_putMod__F
860444e0   xdc_runtime_Text_putSite__E
8603aba0   xdc_runtime_Text_putSite__F
8919ab08   xdc_runtime_Text_registryModsLastId__C
86044500   xdc_runtime_Text_ropeText__E
86043400   xdc_runtime_Text_ropeText__F
8919ab0c   xdc_runtime_Text_unnamedModsLastId__C
8603d660   xdc_runtime_Text_visitRope2__I
8919aa80   xdc_runtime_Text_visitRopeFxn__C
86043440   xdc_runtime_Text_visitRope__I
86041980   xdc_runtime_Text_xprintf__I


GLOBAL SYMBOLS: SORTED BY Symbol Address 

address    name
--------   ----
00000000   _argsize
00000001   __TI_args_main
00000001   xdc_runtime_Startup__EXECFXN__C
00000001   xdc_runtime_Startup__RESETFXN__C
00002000   __TI_STACK_SIZE
00082000   theModMgr
000b10f0   oMemPoolLock
81000000   gHash
81000020   gHeapMemSeg
81a00020   gL2PacketMgr
81a40020   oBurstToFPGAMgr
81a53020   gHeapMem
81a53090   _stack
81a55090   __TI_STACK_END
86000350   L1Transmitter_AssembleBurst
86000760   Get_dummy_burst_C0TX
8600076c   Get_dummy_burst_tch
86000784   L1Config_Delete
86000864   TimeSlotOfIQdata
86000874   DirectionOfIQdata
86000880   L1Receiver_SetFN
86000894   L1Receiver_SetTN
860008ac   L1Receiver_RATSCCH_decode
86000f4c   L1Receiver_UpdateAMRConfig
86000fe8   L1Receiver_Reset
860015b4   L1Receiver_DiscardRATSCCH
86001840   TRX_GetDCSPart
86001978   L1Receiver_GetBTSReference
86001984   L1Receiver_SetBTSReference
8600198c   RxManager_ResetReceiver
86001e10   TxManager_ResetTransmitter
86002bb8   RxManager_DropMonitoringChannel
860030ec   TxManager_DropChannels
86003bc8   RxManager_Start
86003bcc   RxManager_SetCore
86004a24   L1Manager_PutBurstInfoJob
86004f28   RxManager_DoCommandProcessing
86004f98   TxManager_DoCommandProcessing
8600500c   TxManager_SetMode
86005020   RxManager_OnStopAllReceiverCmd
86008e80   L1Receiver_CaptureBurst
86009b48   L1Receiver_RunSFH
86009b94   RxManager_DoBurstDataProcessing
8600abec   RxManager_RequestBurstInfo
8600b3d4   RxManager_RequestDemodulatedbits
8600c1a0   TxManager_OnL2Packet
8600d3f0   TxManager_DoVirtualBTS
8600dc04   TxManager_DoCallBlocking
86012c2c   RxManager_OnDecodeIQdata
86015dd4   L1Config_Setup
86016304   L1Transmitter_Reset
8601632c   L1Transmitter_Init
8601638c   L1Transmitter_SetFN
860163a4   L1Transmitter_SetTN
86016c10   TxManager_UpdateBurst
86016ef8   TxManager_Start
86016f18   TxManager_SetCore
86016f24   TxManager_Init
86016fc4   RxManager_Config_Junk
86017094   ReceiverIdcheck
86017218   L1Transmitter_SetBTSReference
86017220   L1Config_Dump
8601776c   Get_fill_frame_dcch
86017790   Get_fill_frame_bcch
860177c0   CmdPkt_Parse
860177c4   TestParamSize
86017ea0   CmdPkt_GetReceiver
86017ec4   CmdPkt_GetSender
86017ef8   CmdPkt_GetCommand
86018018   CmdPkt_GetPacketType
8601816c   CmdPkt_GetHeader
86018170   CmdPkt_GetParam
86018178   CmdPkt_GetDataCount
86018198   TestCmdPkt_Print
86018930   CmdPkt_UpdateSender
86018958   CmdPkt_UpdateReceiver
86018980   CmdPkt_UpdatePacketType
860189a4   CmdPkt_Make
860189ec   TestCmdPkt
86019a2c   DataPkt_SetTrafficChannelFlag
86019a38   DataPkt_SetRachChannelFlag
86019a48   DataPkt_SetPacketType
86019a4c   DataPkt_SetDemodDataFlag
86019a58   DataPkt_SetDUCChannelFlag
86019a68   DataPkt_SetControlChannelFlag
86019a74   DataPkt_MakeType4
86019c34   DataPkt_MakeType3
8601a76c   DataPkt_MakeType2
8601b3a8   DataPkt_MakeType1_2
8601b590   DataPkt_MakeType1
8601bd30   DataPkt_IsFull
8601be38   DataPkt_IsDDCFlagSet
8601be4c   DataPkt_GetType1
8601be50   DataPkt_GetPacketType
8601be54   DataPkt_GetRealPktSize
8601bf44   DataPkt_GetL2IpuToDspHeader
8601c024   DataPkt_GetFPGABurst
8601c038   DataPkt_CopyRealPacket
8601c318   CmdPkt_ValidatePacket
8601c690   CmdPkt_SetHeader
8601c694   CmdPkt_IsWritePkt
8601c6b0   CmdPkt_GetSeqNumber
8601c6c0   GSM_fcch_get_scratch_size_maus
8601c6cc   GSM_fcch_detect_freq_est_sync_reset
8601c780   GSM_fcch_detect_freq_est_sync_init
8601c840   GSM_fcch_detect_freq_est_sync2c
8601d4e0   GSM_fcch_detect_freq_est_sync
8601df84   GSM_DCS_est_fcch_freq_offset
8601eca0   Signal_Post
8601ecb4   is_IPC
8601ecf4   Task_Stop
8601ed0c   Task_Start
8601ed24   Task_SetPri
8601ed38   Task_Init1
8601ee50   Task_Init
8601ef54   SysTime_Now
8601efb8   SysTime_Cmp
8601f018   SysTime_isTimeOver
8601f0b8   SysTime_DeltaUs
8601f0e8   SysTime_RemainingUs
8601f178   SysTime_Future
8601f234   SysTime_Delta
8601f26c   SysTime_Elapsed
8601f30c   SysTime_Remaining
8601f3a4   SysTime_Print
8601f3e8   SysTime_Passed
8601f46c   SysTime_Get
8601f494   SysTime_AddUsecs
8601f4ec   Signal_Poll
8601f508   Signal_Pend
8601f538   Signal_Init
8601f604   Signal_Enable
8601f618   Mutex_Unlock
8601f630   Mutex_Lock_Timeout
8601f64c   Mutex_Lock
8601f664   Mutex_Init
8601f74c   FIFO_Get
8601f794   ITaskQ_Read
8601f8a0   HSEM_Lock
8601fb4c   HSEM_Unlock
8601fc48   ITaskQ_Write
86020128   FIFO_Put
860202c4   Free
86020600   ITaskQ_ReadNoBlock
86020670   Alloc
860207c4   IIPC_TransportMessage
86020994   Free_CoreSafe
86020aa0   IIPC_FreeMsg
86020d20   GetHashInfoHandler
86020d34   GetIIPCSignal
86020d44   FIFO_GetSize
86020d48   Alloc_CoreSafe
86020e80   tch_afs_get_tch_id_rif_uplink_receive
86020ea4   tch_afs_get_tch_id_rif_downlink_receive
86020ec4   tch_afs_get_sid_update_id_rif_uplink_receive
86020ee4   tch_afs_get_sid_update_id_rif_downlink_receive
86020f08   extract_SID_UPDATE_coded_bits
86020fc4   extract_RATSCCH_coded_bits
860221ec   GSM_DCS_set_tch_afs_logchanrx_acs
86022200   GSM_DCS_init_tch_afs_logchanrx_class_object
86022300   TDFrmTbl_Init
86023988   DCS_GSM_viterbi_decoder_generic
86023d38   DCS_GSM_viterbi_decoder_r2_K5
86023ec8   DCS_GSM_viterbi_decoder_generic_scratchsize
86023f00   mlse_demod_sub2_reverse
8602458c   mlse_demod_sub2_forward
86024c20   detect_SID_UPDATE_or_FIRST
86025700   detect_RATSCCH
86026468   GSM_DCS_init_tch_fs_logchanrx_class_object
86026560   tch_afs_decode_inband_data_SPEECH
86026684   tch_afs_decode_inband_data_SID_FIRST
86026904   tch_afs_decode_inband_data_SID
86026d4c   tch_afs_decode_inband_data_RATSCCH
86026f18   tch_afs_decode_inband_data_ONSET
86027040   GMSKEQ_get_scratch_size_maus
86027060   GMSKEQ_equalize
86027b08   DCS_GSM_rsc_calculate_path_metrics_G46G56G66G66
860283a4   DCS_GSM_rsc_traceback_G46G56G66G66
86028440   DCS_GSM_viterbi_decoder_rsc_G46G56G66G66
860284a0   xdc_runtime_System_doPrint__I
86028ec8   DCS_GSM_rsc_calculate_path_metrics_G46G46G56G66G66
860296d0   DCS_GSM_rsc_traceback_G46G46G56G66G66
86029768   DCS_GSM_viterbi_decoder_rsc_G46G46G56G66G66
86029848   DCS_GSM_rsc_calculate_path_metrics_G44G54G64
86029fec   DCS_GSM_rsc_traceback_G44G54G64
8602a080   DCS_GSM_viterbi_decoder_rsc_G44G54G64
8602a0e0   L1FEC_Init
8602a218   L1FEC_GetInfoBitsLength
8602a22c   L1FEC_GetLogChanType
8602a240   L1FEC_GetBurstType
8602a250   L1FEC_GetMultiFrameType
8602a264   L1FEC_GetRxObj
8602a274   L1FEC_GetTxObj
8602a288   L1FEC_GetTDFrm
8602a298   L1FEC_DoChannelDecoding
8602a480   L1FEC_DoChannelEncoding
8602a594   L1FEC_GetFCCHRxObj
8602a5a8   L1FCCHFEC_Init
8602a604   L1SCHFEC_Init
8602a670   L1RACHFEC_Init
8602a718   L1TCHFSFEC_Init
8602a7ac   L1TCHAFSFEC_Init
8602a848   L1XCCHFEC_Init
8602a8b4   L1FEC_UpdateACS
8602a900   TDFrm_Init
8602ab0c   TDFrm_GetFrameMapping
8602ab48   TDFrm_GetReverseMapping
8602ab80   TDFrm_GetNumFrames
8602ab90   TDFrm_GetRepeatLength
8602aba4   TDFrm_GetTypeAndOffset
8602abb4   TDFrm_IsUplink
8602abc8   TDFrm_IsDownlink
8602abd8   TDFrm_IsC0Only
8602abf0   TDFrm_IsAllowedSlot
8602ac24   TDFrm_GetSubSlot
8602ac38   TDFrm_Print
8602b02c   TDFrm_GetName
8602b040   TDFrm_PrintHeader
8602b18c   GSMTime_Init
8602b1b4   GSMTime_FrameCountInit
8602b1e0   GSMTime_Copy
8602b200   GSMTime_Print
8602b290   GSMTime_RollForward
8602b2e8   GSMTime_FN
8602b2f8   GSMTime_TN
8602b30c   GSMTime_SetFN
8602b324   GSMTime_SetTN
8602b348   GSMTime_IncTN
8602b3a8   GSMTime_DecTN
8602b460   GSMTime_Inc
8602b494   GSMTime_Add
8602b4ec   GSMTime_Sub
8602b504   GSMTime_AddTime
8602b5a4   GSMTime_SubTime
8602b5c4   GSMTime_IsLessThanTime
8602b614   GSMTime_IsMoreThanTime
8602b668   GSMTime_IsLessOrEquThanTime
8602b6c0   GSMTime_IsMoreOrEquThanTime
8602b718   GSMTime_IsEquTime
8602b754   GSMTime_SFN
8602b774   GSMTime_T1
8602b78c   GSMTime_T2
8602b7a8   GSMTime_T3
8602b7c4   GSMTime_T3p
8602b7e0   GSMTime_TC
8602b800   GSMTime_T1p
8602b814   GSMTime_T1R
8602b82c   GSMTime_MFN
8602b860   fire_dec
8602bfe0   ti_sysbios_family_c64p_Exception_handler__I
8602cdac   GSM_DCS_init_tch_fs_logchantx_class_object
8602ce80   ti_sysbios_heaps_HeapMem_free__E
8602d4e0   ti_sysbios_heaps_HeapMem_alloc__E
8602db00   __c6xabi_divd
8602e680   ti_sysbios_timers_timer64_Timer_Module_startup__F
8602ec20   ti_sysbios_knl_Task_Instance_finalize__F
8602f5a0   saturate
8602f5b8   GSMLIB_DCS_zeroize
8602f5d0   GSMLIB_DCS_sub_32
8602f620   GSMLIB_DCS_sqrt_inv32i
8602f6f4   GSMLIB_DCS_right_shift_32
8602f744   GSMLIB_DCS_inv32iv2
8602f868   GSMLIB_DCS_inv32i
8602f984   GSMLIB_DCS_div_16
8602f9e0   GSMLIB_DCS_cabs_sq_16
8602fa00   GSMLIB_DCS_cabs_sq
8602fa20   tch_afs_onset_rem_fec
8602fea0   ti_sysbios_knl_Task_Module_startup__F
86030320   _printfi
86030780   DCS_GSM_rsc_calculate_path_metrics_G13G23G33G33
86030ae8   DCS_GSM_rsc_traceback_G13G23G33G33
86030b74   DCS_GSM_viterbi_decoder_rsc_G13G23G33G33
86030bc0   DCS_GSM_rsc_calculate_path_metrics_G13G13G23G33G33
86030f24   DCS_GSM_rsc_traceback_G13G13G23G33G33
86030fac   DCS_GSM_viterbi_decoder_rsc_G13G13G23G33G33
86030fe0   DCS_GSM_rsc_calculate_path_metrics_G13G23G33
86031330   DCS_GSM_rsc_traceback_G13G23G33
860313c0   DCS_GSM_viterbi_decoder_rsc_G13G23G33
86031400   ti_sysbios_knl_Semaphore_pend__E
86031800   xdc_runtime_uart_writeExtend__I
86031c00   DCS_GSM_rsc_calculate_path_metrics_G00G10
86031f20   DCS_GSM_rsc_traceback_G00G10
86031fa8   DCS_GSM_viterbi_decoder_rsc_G00G10
86031fe0   ti_sysbios_knl_Swi_schedule__I
860323a0   ti_sysbios_knl_Task_Instance_init__F
86032760   ti_sysbios_knl_Task_setPri__E
86032b20   GMSKEQ_burst_agc
86032e80   ti_sysbios_knl_Swi_restoreHwi__E
860331c0   chan_sounder_sub1_rach
860334e0   chan_sounder_sub2
86033800   fire_enc
86033b00   fputs
86033e00   ti_sysbios_family_c64p_Hwi_dispatchC__I
86034100   setup_beagle_cache
8603414c   interp_filt_cint16_int16
8603426c   generic_pulse_shaper
86034330   GSM_DCS_unpack_bits
8603436c   GSM_DCS_pack_bits
86034980   GSM_DCS_power_to_db
86034a10   GSMLIB_scale_power_by_dB
86034ac0   GSMLIB_power_to_measdB
86034b20   GSMLIB_add_power
86034bac   GSMLIB_UINT40_to_UINT31
86034ec0   ti_sysbios_knl_Clock_workFunc__E
86035160   ti_sysbios_knl_Task_sleep__E
86035900   ti_sysbios_knl_Clock_Instance_init__F
86035b80   ti_sysbios_knl_Task_exit__E
86035e00   xdc_runtime_Core_createObject__I
86036080   xdc_runtime_Error_raiseX__F
86036300   xdc_runtime_Startup_startMods__I
86036560   __c6xabi_divull
86036c20   chan_sounder
86036e60   ti_sysbios_family_c64p_Exception_internalHandler__I
860370a0   xdc_runtime_LoggerBuf_write8__F
86037500   mlse_demod
86037720   ti_sysbios_knl_Task_schedule__I
86037940   ti_sysbios_knl_Task_startup__E
86037d60   ti_sysbios_family_c64p_Hwi_dispatchAlways
86037f60   Clock_Init
86037f88   Clock_Set
86037fe4   Clock_Sync
86038020   Clock_FN
860380b4   Clock_Get
86038104   Clock_Wait
86038140   ti_sysbios_knl_Task_postInit__I
86038320   ti_sysbios_timers_timer64_Timer_getFreq__E
860386c0   GSM_DCS_assemble_dummy_burst_rawbits
86038880   pmuldiv
86038a40   puncture
86038ae4   depuncture
86038c00   ti_sysbios_knl_Task_checkStacks__E
86038dc0   ti_sysbios_timers_timer64_Timer_setPeriodMicroSecs__E
86038f80   HOSTrename
86039120   __c6xabi_divul
860392c0   GSM_DCS_assemble_sync_burst_rawbits
86039460   conv_encoder
860395a0   GSM_DCS_r2k5_conv_encoder
86039600   GSMFR_DCS_sid_frame_detection
860397a0   log
86039940   ti_sysbios_gates_GateMutex_enter__E
86039ae0   ti_sysbios_timers_timer64_Timer_start__E
86039c80   xdc_runtime_LoggerBuf_write4__F
86039fa0   GSM_DCS_assemble_normal_burst_rawbits
8603a120   ctrl_prach_ext_rem_fec
8603a2a0   snr_calc_sub3
8603a324   snr_calc_sub2
8603a3c8   snr_calc_sub1
8603a420   setvbuf
8603a5a0   ti_sysbios_family_c64p_Exception_dispatch__E
8603a720   ti_sysbios_heaps_HeapMem_Instance_init__F
8603a8a0   ti_sysbios_knl_Semaphore_post__E
8603aa20   ti_sysbios_knl_Task_unblockI__E
8603aba0   xdc_runtime_Text_putSite__F
8603ad20   Burst_Init
8603ad34   Burst_SetTime
8603ad88   Burst_GetTime
8603adac   Burst_SetDDCNum
8603adcc   Burst_GetDDCNum
8603ade0   Burst_ValidateNumSamples
8603ae08   Burst_UpdateLastSampleTime
8603ae24   Burst_UpdateSampleTime
8603ae4c   Burst_UpdateNumSamples
8603af80   GSM_DCS_init_ctrl_logchanrx_class_object
8603afe0   _auto_init_elf
8603b260   GSM_DCS_assemble_access_burst_rawbits
8603b3a0   ctrl_prach_ext_add_fec
8603b4e0   fputc
8603b760   ti_sysbios_family_c64p_Hwi_Module_startup__F
8603b8a0   ti_sysbios_family_c66_Cache_Module_startup__F
8603b9e0   ti_sysbios_knl_Clock_Instance_finalize__F
8603bb20   ti_sysbios_knl_Semaphore_Instance_init__F
8603bc60   ti_sysbios_knl_Swi_post__E
8603bda0   ti_sysbios_knl_Task_blockI__E
8603bee0   ti_sysbios_knl_Task_yield__E
8603c020   __c6xabi_divlli
8603c260   _wrt_ok
8603c474   GSM_DCS_init_ctrl_logchantx_class_object
8603c554   GSM_DCS_init_ctrl_rach_logchanrx_class_object
8603c5c0   chan_sounder_sub1
8603c6e0   fclose
8603c920   xdc_runtime_LoggerBuf_setFilterLevel__F
8603ca40   xdc_runtime_Text_putLab__F
8603cb60   HOSTlseek
8603cc60   diag_intlv
8603cd60   gsm_amr_speech_rearrange_bits
8603cdd0   gsm_amr_speech_put_back_bits
8603ce60   GSMEFR_DCS_sid_frame_detection
8603cf60   frexp
8603d160   ti_sysbios_knl_Clock_startI__E
8603d260   xdc_runtime_Core_deleteObject__I
8603d360   xdc_runtime_LoggerBuf_getFilterLevel__F
8603d460   xdc_runtime_Startup_exec__F
8603d560   xdc_runtime_Text_putMod__F
8603d660   xdc_runtime_Text_visitRope2__I
8603d760   HOSTopen
8603d840   __c6xabi_divi
8603d840   __divi
8603da00   atoi
8603dae0   close
8603dbc0   __TI_zero_init
8603dd20   GSM_DCS_init_ctrl_sch_logchanrx_class_object
8603dd80   GSM_DCS_freq_hop_seq_gen
8603de60   exit
8603df40   ltoa
8603e020   memset
8603e100   ti_sysbios_knl_Clock_start__E
8603e1e0   ti_sysbios_timers_timer64_Timer_startup__E
8603e2c0   xdc_runtime_Error_print__F
8603e3a0   xdc_runtime_Memory_alloc__F
8603e480   HOSTread
8603e540   HOSTunlink
8603e600   HOSTwrite
8603e6c0   __cxa_finalize
8603e780   __c6xabi_divu
8603e780   __divu
8603e840   __c6xabi_remi
8603e840   __remi
8603e900   _cleanup
8603e9c0   _doflush
8603ea80   ctrl_rach_add_fec
8603ebd0   GSM_DCS_init_ctrl_rach_logchantx_class_object
8603ec00   ctrl_rach_rem_fec
8603ecc0   covar_calc
8603ed80   fseek
8603ee40   lseek
8603ef00   ti_sysbios_BIOS_errorRaiseHook__I
8603efc0   ti_sysbios_heaps_HeapMem_getStats__E
8603f080   ti_sysbios_knl_Clock_logTick__E
8603f140   ti_sysbios_knl_Idle_loop__E
8603f200   ti_sysbios_knl_Task_Object__create__S
8603f2c0   ti_sysbios_timers_timer64_Timer_stop__E
8603f380   write
8603f440   xdc_runtime_LoggerBuf_Instance_init__F
8603f500   xdc_runtime_LoggerBuf_Object__create__S
8603f5c0   xdc_runtime_System_formatNum__I
8603f680   HOSTclose
8603f720   __c6xabi_remu
8603f720   __remu
8603f7c0   _c_int00
8603fa40   crc_enc
8603fae0   ctrl_sch_rem_fec
8603fb80   mlse_demod_sub1
8603fc20   tch_afs_speech10_2_rem_fec
8603fcc0   tch_afs_speech12_2_rem_fec
8603fd60   tch_afs_speech4_75_rem_fec
8603fe00   tch_afs_speech5_15_rem_fec
8603fea0   tch_afs_speech5_9_rem_fec
8603ff40   tch_afs_speech6_7_rem_fec
8603ffe0   tch_afs_speech7_4_rem_fec
86040080   tch_afs_speech7_95_rem_fec
860401c0   memcpy
86040260   ti_sysbios_heaps_HeapMem_init__I
86040300   ti_sysbios_knl_Clock_Object__create__S
860403a0   xdc_runtime_Assert_raise__I
86040440   xdc_runtime_LoggerBuf_Module_startup__F
860404e0   xdc_runtime_LoggerBuf_write8__E
86040580   xdc_runtime_SysMin_abort__F
86040620   xdc_runtime_SysMin_flush__F
860406c0   xdc_runtime_SysMin_output__I
86040760   xdc_runtime_SysMin_putch__F
86040880   __c6xabi_llshl
86040900   ti_sysbios_family_c62_TaskSupport_swap__E
86040980   GSM_DCS_assemble_freq_burst_rawbits
86040a00   ctrl_rem_fec
86040a80   ctrl_sch_add_fec
86040b00   compute_mlse_scale
86040b40   GSM_DCS_complex_filter
86040b80   complexfilt_core
86040c00   malloc
86040c80   printf
86040d00   readmsg
86040d80   ti_sysbios_BIOS_exitFunc__I
86040e00   ti_sysbios_family_c62_TaskSupport_start__E
86040e80   ti_sysbios_family_c64p_Exception_Module_startup__F
86040f00   ti_sysbios_gates_GateHwi_Object__create__S
86040f80   ti_sysbios_gates_GateMutex_Object__create__S
86041000   ti_sysbios_hal_Hwi_checkStack
86041080   ti_sysbios_heaps_HeapMem_Object__create__S
86041100   ti_sysbios_knl_Clock_Module_startup__F
86041180   ti_sysbios_knl_Clock_doTick__I
86041200   ti_sysbios_knl_Clock_getTicks__E
86041280   ti_sysbios_knl_Queue_Object__create__S
86041300   ti_sysbios_knl_Semaphore_Object__create__S
86041380   ti_sysbios_knl_Semaphore_pendTimeout__I
86041400   ti_sysbios_knl_Swi_startup__E
86041480   ti_sysbios_knl_Task_restore__E
86041500   ti_sysbios_timers_timer64_Timer_getCount__E
86041500   ti_sysbios_timers_timer64_Timer_getExpiredCounts__E
86041580   ti_sysbios_timers_timer64_Timer_getPeriod__E
86041600   remove
86041600   unlink
86041680   xdc_runtime_Core_assignLabel__I
86041700   xdc_runtime_Core_assignParams__I
86041780   xdc_runtime_LoggerBuf_filterOutEvent__I
86041800   xdc_runtime_System_atexit__F
86041880   xdc_runtime_System_rtsExit__I
86041900   xdc_runtime_Text_printVisFxn__I
86041980   xdc_runtime_Text_xprintf__I
86041a00   __c6xabi_frcmpyd_div
86041a60   __c6xabi_llshru
86041ac0   __c6xabi_remlli
86041b20   __c6xabi_remull
86041b80   _subcull
86041be0   crc_dec
86041c40   ctrl_add_fec
86041ca0   diag_deintlv
86041d00   merge_hs_payload_buffers
86041d38   merge_fs_payload_buffers
86041d60   tch_afs_sid_update_rem_fec
86041dc0   free
86041e20   memccpy
86041e80   memmove
86041ee0   sprintf
86041f40   ti_sysbios_BIOS_registerRTSLock__I
86041fa0   ti_sysbios_gates_GateMutex_Instance_init__F
86042000   ti_sysbios_hal_Hwi_initStack
86042060   ti_sysbios_heaps_HeapMem_Object__get__S
860420c0   ti_sysbios_knl_Queue_Object__get__S
86042120   ti_sysbios_knl_Swi_Module_startup__F
86042180   ti_sysbios_knl_Swi_Object__get__S
860421e0   ti_sysbios_knl_Task_Object__get__S
86042240   ti_sysbios_knl_Task_allBlockedFunction__I
860422a0   ti_sysbios_knl_Task_enter__I
86042300   writemsg
86042358   C$$IO$$
86042360   xdc_runtime_LoggerBuf_Object__get__S
860423c0   xdc_runtime_Memory_calloc__F
86042420   xdc_runtime_SysMin_Module_startup__F
86042480   xdc_runtime_SysMin_exit__F
860424e0   xdc_runtime_System_aprintf_va__F
860424e0   xdc_runtime_System_avprintf__F
86042540   xdc_runtime_uart_write_va__F
86042540   xdc_runtime_System_vprintf__F
860425a0   xdc_runtime_Text_cordText__F
86042600   __c6xabi_isinf
86042680   __c6xabi_strasgi_64plus
86042680   __strasgi_64plus
860426c0   _args_main
86042740   ti_sysbios_family_c62_TaskSupport_buildTaskStack
86042780   ti_sysbios_family_xxx_Hwi_switchToIsrStack
860427d4   GSM_DCS_init_ctrl_sch_logchantx_class_object
86042800   llabs
86042840   log10
860428c0   ti_sysbios_BIOS_startFunc__I
86042900   ti_sysbios_family_c64p_Hwi_Module__startupDone__F
86042940   ti_sysbios_family_c64p_Hwi_disableInterrupt__E
86042980   ti_sysbios_family_c64p_Hwi_enableInterrupt__E
860429c0   ti_sysbios_gates_GateHwi_Handle__label__S
86042a00   ti_sysbios_gates_GateHwi_Object__delete__S
86042a40   ti_sysbios_gates_GateMutex_Handle__label__S
86042a80   ti_sysbios_gates_GateMutex_Instance_finalize__F
86042ac0   ti_sysbios_gates_GateMutex_Object__delete__S
86042b00   ti_sysbios_gates_GateMutex_leave__E
86042b40   ti_sysbios_hal_Timer_Module__startupDone__F
86042b80   ti_sysbios_heaps_HeapMem_Handle__label__S
86042bc0   ti_sysbios_heaps_HeapMem_Object__delete__S
86042c00   ti_sysbios_knl_Clock_Object__destruct__S
86042c40   ti_sysbios_knl_Clock_Params__init__S
86042c80   ti_sysbios_knl_Queue_Object__destruct__S
86042cc0   ti_sysbios_knl_Semaphore_Instance_finalize__F
86042d00   ti_sysbios_knl_Semaphore_Object__destruct__S
86042d40   ti_sysbios_knl_Semaphore_Params__init__S
86042d80   ti_sysbios_knl_Task_Object__first__S
86042dc0   ti_sysbios_knl_Task_Object__next__S
86042e00   ti_sysbios_knl_Task_Params__init__S
86042e40   ti_sysbios_knl_Task_sleepTimeout__I
86042e80   ti_sysbios_timers_timer64_Timer_Module__startupDone__F
86042ec0   xdc_runtime_Error_check__F
86042f00   xdc_runtime_Error_init__F
86042f40   xdc_runtime_Error_raiseX__E
86042f80   xdc_runtime_Gate_leaveSystem__F
86043040   xdc_runtime_LoggerBuf_Handle__label__S
86043080   xdc_runtime_LoggerBuf_Instance_finalize__F
860430c0   xdc_runtime_LoggerBuf_Object__delete__S
86043100   xdc_runtime_LoggerBuf_write0__F
86043140   xdc_runtime_LoggerBuf_write1__E
86043180   xdc_runtime_LoggerBuf_write1__F
860431c0   xdc_runtime_LoggerBuf_write2__E
86043200   xdc_runtime_LoggerBuf_write2__F
86043240   xdc_runtime_LoggerBuf_write4__E
86043280   xdc_runtime_Memory_free__F
860432c0   xdc_runtime_Registry_findById__F
86043300   xdc_runtime_Startup_exec__I
86043340   xdc_runtime_System_abort__F
86043380   xdc_runtime_System_aprintf__E
860433c0   xdc_runtime_uart_write__E
86043400   xdc_runtime_Text_ropeText__F
86043440   xdc_runtime_Text_visitRope__I
86043480   ModMgr_GetInstance
8604348c   Test_EthBuff
860434a0   __c6xabi_negll
860434c0   __cxa_atexit
860434e0   __cxa_ia64_exit
86043500   __xdc__init
86043520   _nop
860435a0   _register_lock
860435c0   _register_unlock
860435e0   ti_sysbios_family_c62_TaskSupport_glue
86043600   ti_sysbios_family_xxx_Hwi_switchToTaskStack
86043620   C$$EXIT
86043620   abort
86043640   atexit
86043660   __TI_decompress_none
86043680   __TI_decompress_rle24
860436a0   rect_deintlv
860436c0   rect_intlv
86043700   ti_sysbios_BIOS_RtsGateProxy_enter__E
86043720   ti_sysbios_BIOS_RtsGateProxy_leave__E
86043740   ti_sysbios_BIOS_setThreadType__E
86043760   ti_sysbios_family_c62_TaskSupport_Module__startupDone__S
86043780   ti_sysbios_family_c62_TaskSupport_checkStack__E
860437a0   ti_sysbios_family_c62_TaskSupport_getStackAlignment__E
860437c0   ti_sysbios_family_c64p_Exception_Module_startup__E
860437e0   ti_sysbios_family_c64p_Hwi_Module__startupDone__S
86043800   ti_sysbios_family_c64p_Hwi_Module_startup__E
86043820   ti_sysbios_family_c64p_Hwi_clearInterrupt__E
86043840   ti_sysbios_family_c64p_Hwi_startup__E
86043860   ti_sysbios_family_c64p_Hwi_switchFromBootStack__E
86043880   ti_sysbios_family_c64p_TimestampProvider_Module_startup__E
860438a0   ti_sysbios_family_c64p_TimestampProvider_Module_startup__F
860438c0   ti_sysbios_family_c64p_TimestampProvider_get64__E
860438e0   ti_sysbios_family_c64p_tci6488_TimerSupport_enable__E
86043900   ti_sysbios_family_c66_Cache_Module_startup__E
86043920   ti_sysbios_gates_GateHwi_Instance_init__F
86043940   ti_sysbios_gates_GateHwi_enter__E
86043960   ti_sysbios_gates_GateHwi_leave__E
86043980   ti_sysbios_gates_GateHwi_query__E
860439a0   ti_sysbios_gates_GateHwi_query__F
860439c0   ti_sysbios_gates_GateMutex_query__E
860439e0   ti_sysbios_gates_GateMutex_query__F
86043a00   ti_sysbios_hal_Hwi_HwiProxy_Module__startupDone__S
86043a20   ti_sysbios_hal_Hwi_HwiProxy_clearInterrupt__E
86043a20   ti_sysbios_hal_Hwi_clearInterrupt__E
86043a40   ti_sysbios_hal_Hwi_HwiProxy_disableInterrupt__E
86043a40   ti_sysbios_hal_Hwi_disableInterrupt__E
86043a60   ti_sysbios_hal_Hwi_HwiProxy_enableInterrupt__E
86043a60   ti_sysbios_hal_Hwi_enableInterrupt__E
86043a80   ti_sysbios_hal_Hwi_HwiProxy_startup__E
86043a80   ti_sysbios_hal_Hwi_startup__E
86043aa0   ti_sysbios_hal_Hwi_HwiProxy_switchFromBootStack__E
86043aa0   ti_sysbios_hal_Hwi_switchFromBootStack__E
86043ac0   ti_sysbios_hal_Hwi_Module_startup__E
86043ae0   ti_sysbios_hal_Hwi_Module_startup__F
86043b00   ti_sysbios_hal_Timer_Module__startupDone__S
86043b20   ti_sysbios_hal_Timer_Module_startup__E
86043b40   ti_sysbios_hal_Timer_Module_startup__F
86043b60   ti_sysbios_hal_Timer_TimerProxy_Module__startupDone__S
86043b80   ti_sysbios_hal_Timer_TimerProxy_getExpiredCounts__E
86043ba0   ti_sysbios_hal_Timer_TimerProxy_getPeriod__E
86043bc0   ti_sysbios_hal_Timer_TimerProxy_setNextTick__E
86043be0   ti_sysbios_hal_Timer_TimerProxy_startup__E
86043be0   ti_sysbios_hal_Timer_startup__E
86043c00   ti_sysbios_heaps_HeapMem_Module_GateProxy_enter__E
86043c20   ti_sysbios_heaps_HeapMem_Module_GateProxy_leave__E
86043c40   ti_sysbios_heaps_HeapMem_Module_GateProxy_query__E
86043c60   ti_sysbios_heaps_HeapMem_isBlocking__E
86043ca0   ti_sysbios_knl_Clock_Module_startup__E
86043cc0   ti_sysbios_knl_Queue_Instance_init__F
86043ce0   ti_sysbios_knl_Queue_empty__E
86043d00   ti_sysbios_knl_Semaphore_reset__E
86043d20   ti_sysbios_knl_Swi_Module_startup__E
86043d40   ti_sysbios_knl_Swi_disable__E
86043d60   ti_sysbios_knl_Task_Module_startup__E
86043d80   ti_sysbios_knl_Task_SupportProxy_Module__startupDone__S
86043da0   ti_sysbios_knl_Task_SupportProxy_checkStack__E
86043dc0   ti_sysbios_knl_Task_SupportProxy_getStackAlignment__E
86043de0   ti_sysbios_knl_Task_SupportProxy_start__E
86043e00   ti_sysbios_knl_Task_SupportProxy_swap__E
86043e20   ti_sysbios_knl_Task_disable__E
86043e40   ti_sysbios_timers_timer64_Timer_Module__startupDone__S
86043e60   ti_sysbios_timers_timer64_Timer_Module_startup__E
86043e80   ti_sysbios_timers_timer64_Timer_TimerSupportProxy_enable__E
86043ea0   ti_sysbios_timers_timer64_Timer_setNextTick__E
86043ee0   xdc_runtime_Error_check__E
86043f00   xdc_runtime_Error_init__E
86043f20   xdc_runtime_Error_print__E
86043f40   xdc_runtime_Gate_enterSystem__E
86043f60   xdc_runtime_Gate_enterSystem__F
86043f80   xdc_runtime_Gate_leaveSystem__E
86043fa0   xdc_runtime_LoggerBuf_Module_GateProxy_enter__E
86043fc0   xdc_runtime_LoggerBuf_Module_GateProxy_leave__E
86043fe0   xdc_runtime_LoggerBuf_Module_startup__E
86044000   xdc_runtime_LoggerBuf_TimestampProxy_get64__E
86044020   xdc_runtime_LoggerBuf_disable__E
86044040   xdc_runtime_LoggerBuf_disable__F
86044060   xdc_runtime_LoggerBuf_enable__E
86044080   xdc_runtime_LoggerBuf_enable__F
860440a0   xdc_runtime_LoggerBuf_getFilterLevel__E
860440c0   xdc_runtime_LoggerBuf_setFilterLevel__E
860440e0   xdc_runtime_LoggerBuf_write0__E
86044100   xdc_runtime_Memory_HeapProxy_alloc__E
86044120   xdc_runtime_Memory_HeapProxy_free__E
86044140   xdc_runtime_Memory_alloc__E
86044160   xdc_runtime_Memory_calloc__E
86044180   xdc_runtime_Memory_free__E
860441a0   xdc_runtime_Registry_findById__E
860441c0   xdc_runtime_Startup_exec__E
860441e0   xdc_runtime_Startup_reset__I
86044200   xdc_runtime_SysMin_Module_startup__E
86044220   xdc_runtime_SysMin_abort__E
86044240   xdc_runtime_SysMin_exit__E
86044260   xdc_runtime_SysMin_putch__E
86044280   xdc_runtime_SysMin_ready__E
860442a0   xdc_runtime_SysMin_ready__F
860442c0   xdc_runtime_System_Module_GateProxy_enter__E
860442e0   xdc_runtime_System_Module_GateProxy_leave__E
86044300   xdc_runtime_System_Module_startup__E
86044320   xdc_runtime_System_Module_startup__F
86044340   xdc_runtime_System_SupportProxy_abort__E
86044360   xdc_runtime_System_SupportProxy_exit__E
86044380   xdc_runtime_System_SupportProxy_putch__E
860443a0   xdc_runtime_System_SupportProxy_ready__E
860443c0   xdc_runtime_System_abort__E
860443e0   xdc_runtime_System_atexit__E
86044400   xdc_runtime_System_exit__E
86044420   xdc_runtime_System_exit__F
86044440   xdc_runtime_System_lastFxn__I
86044460   xdc_runtime_System_vsprintf__E
86044480   xdc_runtime_System_sprintf_va__F
86044480   xdc_runtime_System_vsprintf__F
860444a0   xdc_runtime_Text_cordText__E
860444c0   xdc_runtime_Text_putLab__E
860444e0   xdc_runtime_Text_putSite__E
86044500   xdc_runtime_Text_ropeText__E
86044580   TestParamsMacros
860472a4   DataPkt_Dump
86048140   SysTime_Init
86048188   LOG_DumpMsg
860483ac   FIFO_Init
86048478   Initialize_HashNewBucket
8604860c   ITaskQ_Init
86048708   IIPC_Start
86048744   IIPC_InitLink
86048980   HSEM_Init
86048a70   IIPC_Init
86048d10   ICoreQ_Start
86048d70   ICoreQ_Init2
86048e80   ICoreQ_Init
86049090   HSEM_ModuleInit
860490d0   FIFO_Print
86049480   L1Receiver_Init
860495d4   RxManager_Init
860496cc   L1Manager_Init
8604a054   GSMConfig_Stop
8604a060   GSMConfig_Start
8604a0e0   GSMConfig_Init
8604a0e4   GSMConfig_FreqInfo
8604a0e8   GSMConfig_FN
8604a100   GSMConfig_Elapsed
8604a124   ModMgr_Init
8604a7f0   main
8604a9c0   MemMgr_InitHeapMemory
8604ace8   MemMgr_InitCriticalMemory
8604b000   EthBuff_Init
8604b0a0   Burst_GetBasebandData
8604b400   ti_sysbios_family_c64p_Hwi0
8604b420   ti_sysbios_family_c64p_Hwi1
8604b440   ti_sysbios_family_c64p_Hwi2
8604b460   ti_sysbios_family_c64p_Hwi3
8604b480   ti_sysbios_family_c64p_Hwi4
8604b4a0   ti_sysbios_family_c64p_Hwi5
8604b4c0   ti_sysbios_family_c64p_Hwi6
8604b4e0   ti_sysbios_family_c64p_Hwi7
8604b500   ti_sysbios_family_c64p_Hwi8
8604b520   ti_sysbios_family_c64p_Hwi9
8604b540   ti_sysbios_family_c64p_Hwi10
8604b560   ti_sysbios_family_c64p_Hwi11
8604b580   ti_sysbios_family_c64p_Hwi12
8604b5a0   ti_sysbios_family_c64p_Hwi13
8604b5c0   ti_sysbios_family_c64p_Hwi14
8604b5e0   ti_sysbios_family_c64p_Hwi15
89000000   __ASM__
89000080   __ISA__
890000a0   __PLAT__
890000d0   __TARG__
89000100   __TRDR__
89100000   Sig_IPCRx
89100018   Tsk_RxIPC
89100070   Hsem_IIPC
89100074   Tsk_TxIPC
891000cc   iipc_TxQ
891001d0   gTDMA
891026d0   pGSharedBurstToFPGAMgr
89102700   rxscratchM1
89104700   rxscratchM2
89106700   ti_sysbios_heaps_HeapMem_Instance_State_0_buf__A
89107700   ti_sysbios_knl_Task_Instance_State_0_hookEnv__A
89107710   xdc_runtime_LoggerBuf_Instance_State_0_entryArr__A
89107910   xdc_runtime_SysMin_Module_State_0_outbuf__A
89107b90   oGSML1TxManager
891083b0   ReceiverId_Pool
89108de0   nDAC_NCO_Fuse
89108de8   ti_sysbios_knl_Task_Instance_State_0_stack__A
891095f0   bFreeID
89109610   gRxRouter
89109930   gTxRouter
89109bb0   _tmpnams
89109cf0   oPacket
89109ee0   cBuff
89189ee0   MemList
891923a0   xdc_runtime_Text_charTab__A
89193524   ti_sysbios_family_c66_Cache_initSize__C
89193530   gRxFreqWord
89194530   gTxFreqWord
89195530   diag_intlv_index
89195c50   gsm_nml_tsc_filt
89196be0   ti_sysbios_family_c66_Cache_marvalues__C
89196fe0   GSMLIB_dB_to_base2_float_mant
89197928   GSM_DCS_TCH_EFS_REARRANGE_TABLE
89197b30   GSM_DCS_TCH_FS_REARRANGE_TABLE
89197d38   GSM_DCS_TCH_AFS_SPEECH12_2_REARRANGE_TABLE
89197f20   GSM_DCS_laurent_fir_filt
891982d0   tsc_gmsk
89198638   GSM_DCS_TCH_AFS_SPEECH10_2_REARRANGE_TABLE
891987d0   GSMLIB_dB_to_base2_float_exp
89198960   GSM_DCS_TCH_AFS_SPEECH10_2_PUNCTURE
89198ae4   Core_Num
89198ae8   GSM_DCS_TCH_AFS_SPEECH7_95_REARRANGE_TABLE
89198c28   GSM_DCS_TCH_AFS_SPEECH7_4_REARRANGE_TABLE
89198d50   GSM_DCS_TCH_AFS_SPEECH6_7_REARRANGE_TABLE
89198e5c   ti_sysbios_BIOS_Module__diagsEnabled__C
89198e60   _ctypes_
89198f64   ti_sysbios_BIOS_Module__diagsIncluded__C
89198f68   GSM_DCS_TCH_AFS_SPEECH6_7_PUNCTURE
89199068   gsm_sch_tsc_filt
89199168   GSM_DCS_TCH_AFS_SPEECH5_9_REARRANGE_TABLE
89199254   ti_sysbios_BIOS_Module__diagsMask__C
89199258   GSM_DCS_TCH_AFS_SPEECH5_15_PUNCTURE
89199428   GSM_DCS_TCH_AFS_SPEECH5_15_REARRANGE_TABLE
89199500   xdc_runtime_Text_nodeTab__A
89199688   GSM_DCS_TCH_AFS_SPEECH4_75_REARRANGE_TABLE
89199748   GSM_DCS_TCH_AFS_SPEECH4_75_PUNCTURE
891997f8   gsm_rach_tsc_filt
8919989c   ti_sysbios_BIOS_installedErrorHook__C
89199944   ti_sysbios_family_c62_TaskSupport_stackAlignment__C
891999ec   ti_sysbios_family_c64p_Exception_E_exceptionMin__C
891999f0   dummy_burst_data
89199a84   ti_sysbios_family_c64p_Exception_exceptionHook__C
89199a88   fcch_bits
89199b1c   ti_sysbios_family_c64p_Exception_externalHook__C
89199c40   GSM_DCS_TCH_AFS_SPEECH5_9_PUNCTURE
89199cd0   GSM_DCS_TCH_AFS_SPEECH7_95_PUNCTURE
89199d54   ti_sysbios_family_c64p_Exception_internalHook__C
89199d58   GSM_DCS_TCH_EFS_45003_S3_1_1_1
89199ddc   ti_sysbios_family_c64p_Exception_nmiHook__C
89199de0   demodstates
89199e60   GSM_DCS_TCH_AFS_SPEECH12_2_PUNCTURE
89199f4c   ti_sysbios_family_c64p_Hwi_LD_end__C
89199f50   GSMLIB_DCS_inv_sqrt_tbl
8919a054   ti_sysbios_family_c64p_Hwi_LM_begin__C
8919a09c   ti_sysbios_family_c64p_Hwi_Module__diagsEnabled__C
8919a124   ti_sysbios_family_c64p_Hwi_Module__diagsIncluded__C
8919a128   GSM_DCS_TCH_AFS_CODED_DATA_SID
8919a168   ext_tsc_gmsk
8919a1a8   ext_tsc_gmsk_COMPACT
8919a1e8   ext_tsc_gmsk_CTS
8919a228   DCS_ft2b
8919a264   xdc_runtime_LoggerBuf_Module__FXNS__C
8919a2d8   ti_sysbios_knl_Task_Object__PARAMS__C
8919a344   ti_sysbios_family_c64p_Hwi_Module__diagsMask__C
8919a348   GSM_DCS_TCH_AFS_SPEECH7_4_PUNCTURE
8919a37c   ti_sysbios_family_c64p_Hwi_Module__loggerFxn1__C
8919a380   xdc_runtime_Startup_sfxnTab__A
8919a3e0   access_ts_gmsk
8919a40c   ti_sysbios_family_c64p_Hwi_Module__loggerFxn8__C
8919a410   access_ts_gmsk_1
8919a43c   ti_sysbios_family_c64p_Hwi_Module__loggerObj__C
8919a440   access_ts_gmsk_2
8919a46c   ti_sysbios_heaps_HeapMem_Module__FXNS__C
8919a494   xdc_runtime_LoggerBuf_Object__PARAMS__C
8919a4bc   ti_sysbios_gates_GateMutex_A_badContext__C
8919a4c0   GSM_DCS_TCH_AFS_SID_IM_VECTOR
8919a4e4   ti_sysbios_gates_GateHwi_Module__FXNS__C
8919a508   ti_sysbios_gates_GateMutex_Module__FXNS__C
8919a52c   ti_sysbios_knl_Clock_Object__PARAMS__C
8919a550   ti_sysbios_knl_Semaphore_Object__PARAMS__C
8919a598   state_init_normal
8919a5bc   ti_sysbios_gates_GateMutex_Instance_State_sem__O
8919a5c0   GSM_DCS_TCH_AFS_CODED_DATA_SPEECH
8919a5e0   ti_sysbios_gates_GateHwi_Object__DESC__C
8919a600   ti_sysbios_gates_GateMutex_Object__DESC__C
8919a620   ti_sysbios_heaps_HeapMem_Object__DESC__C
8919a640   ti_sysbios_heaps_HeapMem_Object__PARAMS__C
8919a660   ti_sysbios_knl_Clock_Object__DESC__C
8919a680   ti_sysbios_knl_Queue_Object__DESC__C
8919a6a0   ti_sysbios_knl_Semaphore_Object__DESC__C
8919a6c0   ti_sysbios_knl_Task_Object__DESC__C
8919a6e0   xdc_runtime_LoggerBuf_Object__DESC__C
8919a700   GSM_DCS_AFS_BLOCK_PHASE
8919a71c   ti_sysbios_gates_GateMutex_Module__diagsEnabled__C
8919a720   xdc_runtime_Startup_sfxnRts__A
8919a73c   ti_sysbios_gates_GateHwi_Object__PARAMS__C
8919a754   ti_sysbios_gates_GateMutex_Object__PARAMS__C
8919a76c   ti_sysbios_knl_Queue_Object__PARAMS__C
8919a78c   ti_sysbios_gates_GateMutex_Module__diagsIncluded__C
8919a790   ti_sysbios_knl_Task_hooks__A
8919a7c4   ti_sysbios_gates_GateMutex_Module__diagsMask__C
8919a7c8   dummy_burst_tsc_mapping_A213
8919a7e4   ti_sysbios_hal_Hwi_E_stackOverflow__C
8919a7e8   GSM_DCS_TCH_AFS_RATSCCH_IM_VECTOR
8919a7f4   ti_sysbios_heaps_HeapMem_A_align__C
8919a804   ti_sysbios_heaps_HeapMem_A_heapSize__C
8919a814   ti_sysbios_heaps_HeapMem_A_invalidFree__C
8919a818   gen_matrix_ctrl
8919a824   ti_sysbios_heaps_HeapMem_A_zeroBlock__C
8919a828   extended_tail
8919a830   guard_bits
8919a838   ti_sysbios_knl_Idle_funcList__C
8919a840   ti_sysbios_knl_Task_hooks__C
8919a848   xdc_runtime_Startup_firstFxns__C
8919a850   xdc_runtime_Startup_firstFxns__A
8919a858   xdc_runtime_Startup_lastFxns__C
8919a860   ti_sysbios_heaps_HeapMem_E_memory__C
8919a864   ti_sysbios_heaps_HeapMem_Module__diagsEnabled__C
8919a868   ti_sysbios_heaps_HeapMem_Module__diagsIncluded__C
8919a86c   ti_sysbios_heaps_HeapMem_Module__diagsMask__C
8919a870   ti_sysbios_heaps_HeapMem_Module__gateObj__C
8919a874   ti_sysbios_heaps_HeapMem_Object__count__C
8919a878   ti_sysbios_heaps_HeapMem_Object__table__C
8919a87c   ti_sysbios_heaps_HeapMem_reqAlignMask__C
8919a880   ti_sysbios_heaps_HeapMem_reqAlign__C
8919a884   ti_sysbios_knl_Clock_A_badThreadType__C
8919a888   ti_sysbios_knl_Clock_LM_begin__C
8919a88c   ti_sysbios_knl_Clock_LM_tick__C
8919a890   ti_sysbios_knl_Clock_LW_delayed__C
8919a894   ti_sysbios_knl_Clock_Module_State_clockQ__O
8919a898   ti_sysbios_knl_Clock_Module__diagsEnabled__C
8919a89c   ti_sysbios_knl_Clock_Module__diagsIncluded__C
8919a8a0   ti_sysbios_knl_Clock_Module__diagsMask__C
8919a8a4   ti_sysbios_knl_Clock_Module__loggerFxn1__C
8919a8a8   ti_sysbios_knl_Clock_Module__loggerFxn2__C
8919a8ac   ti_sysbios_knl_Clock_Module__loggerObj__C
8919a8b0   ti_sysbios_knl_Clock_tickMode__C
8919a8b4   ti_sysbios_knl_Clock_tickSource__C
8919a8b8   ti_sysbios_knl_Queue_Object__count__C
8919a8bc   ti_sysbios_knl_Queue_Object__table__C
8919a8c0   ti_sysbios_knl_Idle_funcList__A
8919a8c4   ti_sysbios_knl_Semaphore_A_badContext__C
8919a8c8   ti_sysbios_knl_Semaphore_A_noEvents__C
8919a8cc   ti_sysbios_knl_Semaphore_Instance_State_pendQ__O
8919a8d0   ti_sysbios_knl_Semaphore_LM_pend__C
8919a8d4   ti_sysbios_knl_Semaphore_LM_post__C
8919a8d8   ti_sysbios_knl_Semaphore_Module__diagsEnabled__C
8919a8dc   ti_sysbios_knl_Semaphore_Module__diagsIncluded__C
8919a8e0   ti_sysbios_knl_Semaphore_Module__diagsMask__C
8919a8e4   ti_sysbios_knl_Semaphore_Module__loggerFxn2__C
8919a8e8   ti_sysbios_knl_Semaphore_Module__loggerFxn4__C
8919a8ec   ti_sysbios_knl_Semaphore_Module__loggerObj__C
8919a8f0   ti_sysbios_knl_Swi_LD_end__C
8919a8f4   ti_sysbios_knl_Swi_LM_begin__C
8919a8f8   ti_sysbios_knl_Swi_LM_post__C
8919a8fc   ti_sysbios_knl_Swi_Module__diagsEnabled__C
8919a900   ti_sysbios_knl_Swi_Module__diagsIncluded__C
8919a904   ti_sysbios_knl_Swi_Module__diagsMask__C
8919a908   ti_sysbios_knl_Swi_Module__loggerFxn1__C
8919a90c   ti_sysbios_knl_Swi_Module__loggerFxn4__C
8919a910   ti_sysbios_knl_Swi_Module__loggerObj__C
8919a914   ti_sysbios_knl_Swi_Object__count__C
8919a918   ti_sysbios_knl_Swi_Object__table__C
8919a91c   ti_sysbios_knl_Task_A_badPriority__C
8919a920   ti_sysbios_knl_Task_A_badTaskState__C
8919a924   ti_sysbios_knl_Task_A_badThreadType__C
8919a928   ti_sysbios_knl_Task_A_badTimeout__C
8919a92c   ti_sysbios_knl_Task_A_noPendElem__C
8919a930   ti_sysbios_knl_Task_E_spOutOfBounds__C
8919a934   ti_sysbios_knl_Task_E_stackOverflow__C
8919a938   ti_sysbios_knl_Task_LD_block__C
8919a93c   ti_sysbios_knl_Task_LD_exit__C
8919a940   ti_sysbios_knl_Task_LD_ready__C
8919a944   ti_sysbios_knl_Task_LM_setPri__C
8919a948   ti_sysbios_knl_Task_LM_sleep__C
8919a94c   ti_sysbios_knl_Task_LM_switch__C
8919a950   ti_sysbios_knl_Task_LM_yield__C
8919a954   ti_sysbios_knl_Task_Module_State_inactiveQ__O
8919a958   ti_sysbios_knl_Task_Module_State_terminatedQ__O
8919a95c   ti_sysbios_knl_Task_Module__diagsEnabled__C
8919a960   ti_sysbios_knl_Task_Module__diagsIncluded__C
8919a964   ti_sysbios_knl_Task_Module__diagsMask__C
8919a968   ti_sysbios_knl_Task_Module__loggerFxn2__C
8919a96c   ti_sysbios_knl_Task_Module__loggerFxn4__C
8919a970   ti_sysbios_knl_Task_Module__loggerObj__C
8919a974   ti_sysbios_knl_Task_Object__count__C
8919a978   ti_sysbios_knl_Task_Object__heap__C
8919a97c   ti_sysbios_knl_Task_Object__table__C
8919a980   ti_sysbios_knl_Task_allBlockedFunc__C
8919a984   ti_sysbios_knl_Task_defaultStackHeap__C
8919a988   ti_sysbios_knl_Task_defaultStackSize__C
8919a98c   ti_sysbios_knl_Task_numConstructedTasks__C
8919a990   ti_sysbios_knl_Task_numPriorities__C
8919a994   ti_sysbios_timers_timer64_Timer_A_notAvailable__C
8919a998   ti_sysbios_timers_timer64_Timer_E_cannotSupport__C
8919a99c   ti_sysbios_timers_timer64_Timer_Module__diagsEnabled__C
8919a9a0   ti_sysbios_timers_timer64_Timer_Module__diagsIncluded__C
8919a9a4   ti_sysbios_timers_timer64_Timer_Module__diagsMask__C
8919a9a8   ti_sysbios_timers_timer64_Timer_anyMask__C
8919a9ac   ti_sysbios_timers_timer64_Timer_freqDivisor__C
8919a9b0   ti_sysbios_timers_timer64_Timer_numLocalTimers__C
8919a9b4   ti_sysbios_timers_timer64_Timer_numTimerDevices__C
8919a9b8   xdc_runtime_Assert_E_assertFailed__C
8919a9bc   xdc_runtime_Core_A_initializedParams__C
8919a9c0   xdc_runtime_Core_Module__diagsEnabled__C
8919a9c4   xdc_runtime_Core_Module__diagsIncluded__C
8919a9c8   xdc_runtime_Core_Module__diagsMask__C
8919a9cc   xdc_runtime_Error_E_generic__C
8919a9d0   xdc_runtime_Error_E_memory__C
8919a9d4   xdc_runtime_Error_Module__diagsEnabled__C
8919a9d8   xdc_runtime_Error_Module__diagsIncluded__C
8919a9dc   xdc_runtime_Error_Module__diagsMask__C
8919a9e0   xdc_runtime_Error_Module__loggerFxn8__C
8919a9e4   xdc_runtime_Error_Module__loggerObj__C
8919a9e8   xdc_runtime_Error_policy__C
8919a9ec   xdc_runtime_Error_raiseHook__C
8919a9f0   xdc_runtime_IFilterLogger_Interface__BASE__C
8919a9f4   xdc_runtime_IGateProvider_Interface__BASE__C
8919a9f8   xdc_runtime_IHeap_Interface__BASE__C
8919a9fc   xdc_runtime_ILogger_Interface__BASE__C
8919aa00   xdc_runtime_IModule_Interface__BASE__C
8919aa04   xdc_runtime_Log_L_error__C
8919aa08   xdc_runtime_LoggerBuf_E_badLevel__C
8919aa0c   xdc_runtime_LoggerBuf_Module__gateObj__C
8919aa10   xdc_runtime_LoggerBuf_Object__count__C
8919aa14   xdc_runtime_LoggerBuf_Object__table__C
8919aa18   xdc_runtime_LoggerBuf_statusLogger__C
8919aa1c   xdc_runtime_Main_Module__diagsEnabled__C
8919aa20   xdc_runtime_Main_Module__diagsIncluded__C
8919aa24   xdc_runtime_Main_Module__diagsMask__C
8919aa28   xdc_runtime_Main_Module__loggerFxn1__C
8919aa2c   xdc_runtime_Main_Module__loggerFxn2__C
8919aa30   xdc_runtime_Main_Module__loggerFxn4__C
8919aa34   xdc_runtime_Main_Module__loggerFxn8__C
8919aa38   xdc_runtime_Main_Module__loggerObj__C
8919aa3c   xdc_runtime_Memory_defaultHeapInstance__C
8919aa40   xdc_runtime_Startup_execImpl__C
8919aa44   xdc_runtime_Startup_maxPasses__C
8919aa48   xdc_runtime_Startup_sfxnRts__C
8919aa4c   xdc_runtime_Startup_sfxnTab__C
8919aa50   xdc_runtime_Startup_lastFxns__A
8919aa54   xdc_runtime_Startup_startModsFxn__C
8919aa58   xdc_runtime_SysMin_bufSize__C
8919aa5c   xdc_runtime_SysMin_outputFunc__C
8919aa60   xdc_runtime_System_Module__gateObj__C
8919aa64   xdc_runtime_System_extendFxn__C
8919aa68   xdc_runtime_System_maxAtexitHandlers__C
8919aa6c   xdc_runtime_Text_charTab__C
8919aa70   xdc_runtime_Text_nameEmpty__C
8919aa74   xdc_runtime_Text_nameStatic__C
8919aa78   xdc_runtime_Text_nameUnknown__C
8919aa7c   xdc_runtime_Text_nodeTab__C
8919aa80   xdc_runtime_Text_visitRopeFxn__C
8919aa84   ti_sysbios_BIOS_Module__id__C
8919aa88   tail_bits
8919aa8c   ti_sysbios_family_c64p_Exception_Module__id__C
8919aa90   state_init_rach
8919aa94   ti_sysbios_family_c64p_Hwi_Module__id__C
8919aa98   state_init_sync
8919aa9c   ti_sysbios_family_c64p_Hwi_Module__loggerDefined__C
8919aaa0   ti_sysbios_gates_GateMutex_Module__id__C
8919aaa4   ti_sysbios_hal_Hwi_Module__id__C
8919aaa8   ti_sysbios_heaps_HeapMem_Module__id__C
8919aaac   ti_sysbios_knl_Clock_Module__id__C
8919aab0   ti_sysbios_knl_Clock_Module__loggerDefined__C
8919aab4   ti_sysbios_knl_Semaphore_Module__id__C
8919aab8   ti_sysbios_knl_Semaphore_Module__loggerDefined__C
8919aabc   ti_sysbios_knl_Swi_Module__id__C
8919aac0   ti_sysbios_knl_Swi_Module__loggerDefined__C
8919aac4   ti_sysbios_knl_Task_Module__id__C
8919aac8   ti_sysbios_knl_Task_Module__loggerDefined__C
8919aacc   ti_sysbios_knl_Task_deleteTerminatedTasks__C
8919aad0   ti_sysbios_knl_Task_initStackFlag__C
8919aad4   ti_sysbios_timers_timer64_Timer_Module__id__C
8919aad8   ti_sysbios_timers_timer64_Timer_startupNeeded__C
8919aadc   xdc_runtime_Core_Module__id__C
8919aae0   xdc_runtime_Error_Module__loggerDefined__C
8919aae4   xdc_runtime_Error_maxDepth__C
8919aae8   xdc_runtime_LoggerBuf_Module__id__C
8919aaec   xdc_runtime_LoggerBuf_filterByLevel__C
8919aaf0   xdc_runtime_Main_Module__id__C
8919aaf4   xdc_runtime_Main_Module__loggerDefined__C
8919aaf8   xdc_runtime_Memory_Module__id__C
8919aafc   xdc_runtime_SysMin_flushAtExit__C
8919ab00   xdc_runtime_Text_charCnt__C
8919ab04   xdc_runtime_Text_isLoaded__C
8919ab08   xdc_runtime_Text_registryModsLastId__C
8919ab0c   xdc_runtime_Text_unnamedModsLastId__C
8919ab10   Fill_frame_bcch_burst
8919ad90   gDDCMatrix
8919af98   ti_sysbios_BIOS_Module__state__V
8919afb4   ti_sysbios_family_c64p_Exception_Module__state__V
8919afe0   ti_sysbios_family_c64p_Hwi_Module__root__V
8919afe8   ti_sysbios_family_c64p_Hwi_Module__state__V
8919b04c   ti_sysbios_gates_GateHwi_Module__root__V
8919b054   ti_sysbios_gates_GateMutex_Module__root__V
8919b05c   ti_sysbios_hal_Hwi_Module__root__V
8919b064   ti_sysbios_hal_Timer_Module__root__V
8919b06c   ti_sysbios_heaps_HeapMem_Module__root__V
8919b074   ti_sysbios_knl_Clock_Module__root__V
8919b07c   ti_sysbios_knl_Clock_Module__state__V
8919b0a8   ti_sysbios_knl_Queue_Module__root__V
8919b0b0   ti_sysbios_knl_Semaphore_Module__root__V
8919b0b8   ti_sysbios_knl_Swi_Module__root__V
8919b0c0   ti_sysbios_knl_Swi_Module__state__V
8919b0dc   ti_sysbios_knl_Task_Module__root__V
8919b0e4   ti_sysbios_knl_Task_Module__state__V
8919b118   ti_sysbios_timers_timer64_Timer_Module__root__V
8919b120   ti_sysbios_timers_timer64_Timer_Module__state__V
8919b134   xdc_runtime_Error_Module__state__V
8919b138   xdc_runtime_LoggerBuf_Module__root__V
8919b140   xdc_runtime_LoggerBuf_Module__state__V
8919b148   xdc_runtime_Memory_Module__state__V
8919b14c   xdc_runtime_Registry_Module__state__V
8919b154   xdc_runtime_Startup_Module__state__V
8919b15c   xdc_runtime_SysMin_Module__state__V
8919b168   xdc_runtime_System_Module__state__V
8919b174   xdc_runtime_Text_Module__state__V
8919b17c   __xdc__init__addr
8919b180   _ftable
8919b360   ti_sysbios_timers_timer64_Timer_Module_State_0_device__A
8919b4e0   dummy_burst_tch
8919b594   _cleanup_ptr
8919b598   _dtors_ptr
8919b59c   __TI_enable_exit_profile_output
8919b640   ti_sysbios_knl_Swi_Module_State_0_readyQ__A
8919b6c0   ti_sysbios_knl_Task_Module_State_0_readyQ__A
8919b740   ti_sysbios_timers_timer64_Timer_Module_State_0_gctrl__A
8919b7c0   ti_sysbios_timers_timer64_Timer_Module_State_0_handles__A
8919b840   ti_sysbios_timers_timer64_Timer_Module_State_0_intFreqs__A
8919b938   _lock
8919b93c   _unlock
8919b940   ti_sysbios_timers_timer64_Timer_Object__table__V
8919b990   TSK_idle
8919b990   ti_sysbios_knl_Task_Object__table__V
8919b9dc   gAGC
8919b9e0   ti_sysbios_gates_GateMutex_Object__table__V
8919ba90   ti_sysbios_knl_Swi_Object__table__V
8919bac0   xdc_runtime_LoggerBuf_Object__table__V
8919bae4   MSGIndication
8919bae8   Links
8919baec   gBTS
8919baf0   gBTSSem
8919baf4   pGblTransferJob
8919baf8   gSharedL2PacketMgr
8919bafc   pEthBuff
8919bb00   pRxCalibration
8919bb10   gSACCH_TF
8919bb30   nDecodeFail_VII_DL
8919bb50   nDecodeSucess_VII_DL
8919bb70   nDecodeSucess_VII_UL
8919bb90   nDemodFail_VII_DL
8919bbb0   nDemodFail_VII_UL
8919bbd0   nDemodSucess_VII_DL
8919bbf0   nDemodTSC_NOT_FOUND_DL
8919bc10   nDemodTSC_NOT_FOUND_UL
8919bc30   nFACCH_I
8919bc50   nSACCH_V
8919bc70   nSACCH_VII_DL
8919bc90   nSACCH_VII_UL
8919bcb0   nSDCCH_V
8919bcd0   nSDCCH_VII_DL
8919bcf0   nSDCCH_VII_UL
8919bd10   nTrafficPak_DL
8919bd30   nTrafficPak_UL
8919bd8c   _ft_end
8919bdac   errno
8919bdd0   ti_sysbios_family_c64p_Hwi_Object__table__V
8919bdf0   FILL_FRAME_BCCH
8919be10   FILL_FRAME_DCCH
8919be30   ti_sysbios_heaps_HeapMem_Object__table__V
8919be50   xdc_runtime_System_Module_State_0_atexitHandlers__A
8919be70   ti_sysbios_hal_Hwi_Object__table__V
8919be80   ti_sysbios_hal_Timer_Object__table__V
8919c2d0   ti_sysbios_gates_GateHwi_Object__table__V
8919caa0   __CIOBUF_
8919cbc0   __TI_STATIC_BASE
8919cbde   theCmd
8919cbe1   PLAYBACK_MODE
8919cbe8   nSeqNum
8919cbf0   gBurstToFPGAMgr
8919cbfc   nCount_Receiver
8919cc00   nCount_StopReceiver
8919cc04   nDemodSucess_VII_UL
8919cc08   nDecodeFail_VII_UL
8919cc0c   nDemodFail_I_UL
8919cc10   nDemodSucess_I_UL
8919cc14   nDemodFail_I_DL
8919cc18   nDemodSucess_I_DL
8919cc1c   nDecodeSucess_I_DL
8919cc20   nDecodeFail_I_DL
8919cc24   nDecodeSucess_I_UL
8919cc28   nDecodeFail_I_UL
8919cc2c   flag_Config_Junk
8919cc34   pEthObj
8919cc44   nMaxRxChannel
8919cc45   nMaxTxChannel
8919cc46   nAJTxChannel
8919cc47   nCBTxChannel
8919cc48   nVBTSTxChannel
8919cc4c   gCriticalMemRefPtr
8919cc50   gFrameMicroseconds
8919d87c   __TI_Handler_Table_Base
8919d888   __TI_Handler_Table_Limit
8919dc20   __TI_CINIT_Base
8919def0   __TI_CINIT_Limit
ffffffff   __TI_pprof_out_hndl
ffffffff   __TI_prof_data_size
ffffffff   __TI_prof_data_start
ffffffff   __binit__
ffffffff   __c_args__
ffffffff   binit
UNDEFED    Intr_EnableEvent
UNDEFED    Intr_Init
UNDEFED    RxCalib_GetHwGainCorrection
UNDEFED    RxCalib_GetRfGainCorrection
UNDEFED    RxCalib_InitHwGainCorrection
UNDEFED    RxCalib_InitRfGainCorrection
UNDEFED    StatMgr_Fatal
UNDEFED    Timer_GetTicksUsec
UNDEFED    Timer_Init
UNDEFED    Timer_Start

[1218 symbols]
