******************************************************************************
               TMS320C6x Linker PC v7.4.4                      
******************************************************************************
>> Linked Thu Aug 28 11:49:47 2014

OUTPUT FILE NAME:   <TRS_appC0.out>
ENTRY POINT SYMBOL: "_c_int00"  address: 0083c220


MEMORY CONFIGURATION

         name            origin    length      used     unused   attr    fill
----------------------  --------  ---------  --------  --------  ----  --------
  L2RAM                 00800000   00080000  00059202  00026dfe  RW X
  L1P_RAM               00e00000   00008000  00000000  00008000  RW X
  L1D_RAM               00f00000   00008000  00000000  00008000  RW  
  MSMCSRAM              0c000000   00400000  003a9800  00056800  RW  
  CX_CRITICAL_SECTION   80000000   00100000  0000096c  000ff694  RW  
  CX_CRITICAL_SECTION_R 80100000   00001000  00000020  00000fe0  RW  
  CORE_HEALTH           81af1a00   0050e600  00000000  0050e600  RW  
  SM_HEAP1              82000000   00400000  00400000  00000000  RW  
  SM_HEAP2              82400000   00400000  00400000  00000000  RW  
  SM_HEAP3              82800000   00400000  00400000  00000000  RW  
  SM_HEAP4              82c00000   00400000  00400000  00000000  RW  
  C0_DATA_RAM           83000000   00400000  0014fd58  002b02a8  RW  
  C0_NON_CACHE          85000000   00400000  00027990  003d8670  RW  


SEGMENT ALLOCATION MAP

run origin  load origin   length   init length attrs members
----------  ----------- ---------- ----------- ----- -------
00800000    00800000    00050b82   00050b82    r-x
  00800000    00800000    00044060   00044060    r-x .text
  00844060    00844060    0000cb22   0000cb22    r-- .const
00850b88    00850b88    00008000   00000000    rw-
  00850b88    00850b88    00008000   00000000    rw- .stack
00858b90    00858b90    00000280   00000000    rw-
  00858b90    00858b90    00000280   00000000    rw- .dataL2
00859000    00859000    00000200   00000200    r-x
  00859000    00859000    00000200   00000200    r-x .csl_vect
00859400    00859400    00000200   00000200    r-x
  00859400    00859400    00000200   00000200    r-x .vecs
0c000000    0c000000    003a9800   00000000    rw-
  0c000000    0c000000    003a9800   00000000    rw- .SrioSlaveBuff
80000000    80000000    0000096c   0000096c    rw-
  80000000    80000000    0000096c   0000096c    rw- .critical_section
80100000    80100000    00000020   00000020    rw-
  80100000    80100000    00000020   00000020    rw- .critical_section_reference
83000000    83000000    00107562   00107562    rw-
  83000000    83000000    00107562   00107562    rw- .delcomObj
83107568    83107568    00000018   00000018    rw-
  83107568    83107568    00000018   00000018    rw- .fardata.1
83107580    83107580    00041fe0   00000000    rw-
  83107580    83107580    00040000   00000000    rw- systemheap
  83147580    83147580    00001fe0   00000000    rw- .far.1
83149560    83149560    00000020   00000020    rw-
  83149560    83149560    00000020   00000020    rw- .fardata.2
83149580    83149580    000029c0   00000000    rw-
  83149580    83149580    000029c0   00000000    rw- .far.2
8314bf40    8314bf40    0000204a   0000204a    rw-
  8314bf40    8314bf40    0000204a   0000204a    rw- .fardata.3
8314df90    8314df90    00000800   00000000    rw-
  8314df90    8314df90    00000800   00000000    rw- .far:taskStackSection
8314e790    8314e790    000002dc   000002dc    r--
  8314e790    8314e790    000002dc   000002dc    r-- .switch
8314ea70    8314ea70    000000f0   00000000    rw-
  8314ea70    8314ea70    000000f0   00000000    rw- .bss
8314eb60    8314eb60    0000012d   0000012d    rw-
  8314eb60    8314eb60    0000012d   0000012d    rw- .neardata
8314ec90    8314ec90    00000034   00000034    r--
  8314ec90    8314ec90    00000034   00000034    r-- .rodata
8314ecc8    8314ecc8    00000120   00000000    rw-
  8314ecc8    8314ecc8    00000120   00000000    rw- .cio
8314ede8    8314ede8    00000f84   00000f84    r--
  8314ede8    8314ede8    00000f84   00000f84    r-- .cinit
85000000    85000000    0000c000   00000000    rw-
  85000000    85000000    0000c000   00000000    rw- ethernetmemorybuffer
8500c000    8500c000    00019290   0000a560    rwx
  8500c000    8500c000    0000a560   0000a560    rwx .nocache
  85016560    85016560    00008530   00000000    rw- .ddrdata
  8501ea90    8501ea90    00006800   00000000    rw- .hostregion
85025300    85025300    00002700   00000000    rw-
  85025300    85025300    00002400   00000000    rw- .qmss
  85027700    85027700    00000200   00000000    rw- .cppi
  85027900    85027900    00000100   00000000    rw- .srioSharedMem


SECTION ALLOCATION MAP

 output                                  attributes/
section   page    origin      length       input sections
--------  ----  ----------  ----------   ----------------
.init_array 
*          0    83000000    00000000     UNINITIALIZED

xdc.meta   0    00800000    000000e8     COPY SECTION
                  00800000    000000e8     TRS_SYSBIOS_pe66.oe66 (xdc.meta)

.text      0    00800000    00044060     
                  00800000    00001d00     CmdIfMgr.lib : CmdRouter.obj (.text)
                  00801d00    00001360     Platformlib.lib : pa_mgmt.obj (.text)
                  00803060    00001220     ipc.ae66 : Ipc.obj (.text:ti_sdo_ipc_GateMP_Instance_init__F)
                  00804280    00001200     Platformlib.lib : cppi_qmss_mgmt.obj (.text)
                  00805480    000011c0     DataIf.lib : DDCRx.obj (.text)
                  00806640    00000ea0     CmdIfMgr.lib : CmdIf.obj (.text)
                  008074e0    00000d20     ethernet_log.obj (.text)
                  00808200    00000c60     Platformlib.lib : Srio_devconfig.obj (.text)
                  00808e60    00000a60     ipc.ae66 : Ipc.obj (.text:ti_sdo_ipc_heaps_HeapMemMP_alloc__E)
                  008098c0    00000a40     statmgr.obj (.text)
                  0080a300    00000a20     ipc.ae66 : Ipc.obj (.text:ti_sdo_ipc_heaps_HeapMemMP_free__E)
                  0080ad20    000009a0              : Ipc.obj (.text:Ipc_attach)
                  0080b6c0    00000940     Platformlib.lib : singlecore_osal.obj (.text)
                  0080c000    00000940     ti.drv.srio.ae66 : srio_drv.oe66 (.text:Srio_processDrvConfig:Srio_processDrvConfig)
                  0080c940    000008e0     ipc.ae66 : Ipc.obj (.text:ti_sdo_ipc_GateMP_Instance_finalize__F)
                  0080d220    000008c0              : Ipc.obj (.text:ti_sdo_ipc_ListMP_Instance_init__F)
                  0080dae0    000008a0     ti.targets.rts6000.ae66 : System.oe66 (.text:xdc_runtime_System_doPrint__I)
                  0080e380    00000880     Platformlib.lib : cpsw_mgmt.obj (.text)
                  0080ec00    00000840     ipc.ae66 : Ipc.obj (.text:MessageQ_put)
                  0080f440    00000800              : Ipc.obj (.text:ti_sdo_ipc_nsremote_NameServerRemoteNotify_Instance_init__F)
                  0080fc40    000007e0     ti.drv.qmss.ae66 : qmss_drv.oe66 (.text:Qmss_insertMemoryRegion)
                  00810420    000007e0     ipc.ae66 : Ipc.obj (.text:ti_sdo_ipc_heaps_HeapBufMP_Instance_init__F)
                  00810c00    000007e0              : Ipc.obj (.text:ti_sdo_ipc_heaps_HeapBufMP_postInit__I)
                  008113e0    000007c0     GenUtil.lib : IIPC.obj (.text)
                  00811ba0    000007c0     Platformlib.lib : Srio.obj (.text)
                  00812360    00000780     sysbios.ae66 : BIOS.obj (.text:ti_sysbios_family_c64p_Exception_handler__I)
                  00812ae0    00000760     ipc.ae66 : Ipc.obj (.text:ti_sdo_ipc_heaps_HeapMemMP_Instance_init__F)
                  00813240    00000740     Platformlib.lib : flash.obj (.text)
                  00813980    00000720     ti.drv.pa.ae66 : pa.oe66 (.text:Pa_addMac)
                  008140a0    000006c0                    : pa.oe66 (.text:swizStatsRep)
                  00814760    000006a0     GenUtil.lib : HashTbl.obj (.text)
                  00814e00    000006a0     ipc.ae66 : Ipc.obj (.text:NameServer_add)
                  008154a0    00000660     ti.drv.cppi.ae66 : cppi_drv.oe66 (.text:Cppi_configureRxFlow)
                  00815b00    00000660     sysbios.ae66 : BIOS.obj (.text:ti_sysbios_heaps_HeapMem_alloc__E)
                  00816160    00000640                  : BIOS.obj (.text:ti_sysbios_knl_Event_pend__E)
                  008167a0    00000620     ipc.ae66 : Ipc.obj (.text:Notify_sendEvent)
                  00816dc0    00000600              : Ipc.obj (.text:ti_sdo_ipc_SharedRegion_start__F)
                  008173c0    00000600     sysbios.ae66 : BIOS.obj (.text:ti_sysbios_knl_Semaphore_pend__E)
                  008179c0    000005e0     ipc.ae66 : Ipc.obj (.text:Notify_registerEventSingle)
                  00817fa0    000005e0              : Ipc.obj (.text:Notify_unregisterEventSingle)
                  00818580    000005e0     sysbios.ae66 : BIOS.obj (.text:ti_sysbios_heaps_HeapMem_free__E)
                  00818b60    000005c0     ipc.ae66 : Ipc.obj (.text:ListMP_getHead)
                  00819120    000005c0     rts6600_elf.lib : divd.obj (.text:__c6xabi_divd)
                  008196e0    000005c0                     : _printfi.obj (.text:_getarg_diouxp)
                  00819ca0    000005c0     ipc.ae66 : Ipc.obj (.text:ti_sdo_ipc_transports_TransportShmCirc_swiFxn__I)
                  0081a260    000005a0     sysbios.ae66 : BIOS.obj (.text:ti_sysbios_knl_Task_Instance_finalize__F)
                  0081a800    000005a0                  : BIOS.obj (.text:ti_sysbios_timers_timer64_Timer_Module_startup__F)
                  0081ada0    00000580     Platformlib.lib : spi.obj (.text)
                  0081b320    00000560     GenUtil.lib : Task.obj (.text)
                  0081b880    00000560     GsmUtil.lib : GSMTime.obj (.text)
                  0081bde0    00000540     ipc.ae66 : Ipc.obj (.text:MessageQ_free)
                  0081c320    00000540              : Ipc.obj (.text:NameServer_get)
                  0081c860    00000540              : Ipc.obj (.text:ti_sdo_ipc_Ipc_procSyncStart__I)
                  0081cda0    00000540              : Ipc.obj (.text:ti_sdo_ipc_transports_TransportShmCirc_Instance_init__F)
                  0081d2e0    00000500              : Ipc.obj (.text:ti_sdo_ipc_GateMP_setRegion0Reserved__F)
                  0081d7e0    00000500              : Ipc.obj (.text:ti_sdo_ipc_MessageQ_Instance_init__F)
                  0081dce0    00000500              : Ipc.obj (.text:ti_sdo_ipc_notifyDrivers_NotifyDriverShm_Instance_init__F)
                  0081e1e0    000004c0     ti.drv.cppi.ae66 : cppi_drv.oe66 (.text:Cppi_txChannelOpen)
                  0081e6a0    000004a0     ipc.ae66 : Ipc.obj (.text:HeapBufMP_sharedMemReq)
                  0081eb40    000004a0     ModMgr.obj (.text)
                  0081efe0    000004a0     Platformlib_sub.lib : srio_write.obj (.text)
                  0081f480    000004a0     ipc.ae66 : Ipc.obj (.text:ti_sdo_ipc_gates_GatePeterson_Instance_init__F)
                  0081f920    000004a0              : Ipc.obj (.text:ti_sdo_ipc_nsremote_NameServerRemoteNotify_get__F)
                  0081fdc0    00000480     sysbios.ae66 : BIOS.obj (.text:ti_sysbios_knl_Task_Module_startup__F)
                  00820240    00000460     ipc.ae66 : Ipc.obj (.text:ListMP_putTail)
                  008206a0    00000460     rts6600_elf.lib : _printfi.obj (.text:_printfi)
                  00820b00    00000460                     : _printfi.obj (.text:_setfield)
                  00820f60    00000460     ipc.ae66 : Ipc.obj (.text:ti_sdo_ipc_Ipc_procSyncFinish__I)
                  008213c0    00000440     ti.drv.cppi.ae66 : cppi_drv.oe66 (.text:Cppi_rxChannelOpen)
                  00821800    00000440     ipc.ae66 : Ipc.obj (.text:ti_sdo_ipc_heaps_HeapMemMP_getStats__E)
                  00821c40    00000420     CmdIfLib.lib : CmdPkt.obj (.text)
                  00822060    00000420     ti.drv.pa.ae66 : pa.oe66 (.text:pa_conv_routing_info)
                  00822480    00000420     ipc.ae66 : Ipc.obj (.text:ti_sdo_ipc_heaps_HeapMemMP_postInit__I)
                  008228a0    00000420              : Ipc.obj (.text:ti_sdo_ipc_nsremote_NameServerRemoteNotify_swiFxnRequest__I)
                  00822cc0    00000400              : Ipc.obj (.text:ti_sdo_ipc_Notify_Instance_init__F)
                  008230c0    000003e0     Platformlib.lib : Mcbsp.obj (.text)
                  008234a0    000003e0     Platformlib_sub.lib : Timer.obj (.text)
                  00823880    000003e0     sysbios.ae66 : BIOS.obj (.text:ti_sysbios_gates_GateMutexPri_enter__E)
                  00823c60    000003c0     ti.drv.cppi.ae66 : cppi_desc.oe66 (.text:Cppi_initDescriptor)
                  00824020    000003c0     GenUtil.lib : SysTime.obj (.text)
                  008243e0    000003c0     ipc.ae66 : Ipc.obj (.text:ti_sdo_ipc_SharedRegion_reserveMemory__F)
                  008247a0    000003c0     sysbios.ae66 : BIOS.obj (.text:ti_sysbios_knl_Task_Instance_init__F)
                  00824b60    000003c0                  : BIOS.obj (.text:ti_sysbios_knl_Task_setPri__E)
                  00824f20    000003a0     rts6600_elf.lib : fputs.obj (.text:fputs)
                  008252c0    00000380     DataIf.lib : DspToIpu.obj (.text)
                  00825640    00000380     ipc.ae66 : Ipc.obj (.text:HeapMemMP_sharedMemReq)
                  008259c0    00000380     Platformlib.lib : Ethernet_config.obj (.text)
                  00825d40    00000360     TRS_SYSBIOS_pe66.oe66 (.text:xdc_runtime_System_printfExtend__I)
                  008260a0    00000340     ipc.ae66 : Ipc.obj (.text:GateMP_sharedMemReq)
                  008263e0    00000340     ti.drv.pa.ae66 : painit.oe66 (.text:Pa_create)
                  00826720    00000340     ti.drv.qmss.ae66 : qmss_drv.oe66 (.text:Qmss_init)
                  00826a60    00000320     ipc.ae66 : Ipc.obj (.text:HeapBufMP_open)
                  00826d80    00000320     rts6600_elf.lib : _printfi.obj (.text:_pproc_fge)
                  008270a0    00000320     sysbios.ae66 : BIOS.obj (.text:ti_sysbios_knl_Swi_restoreHwi__E)
                  008273c0    00000300     ipc.ae66 : Ipc.obj (.text:GateMP_openByAddr)
                  008276c0    00000300     ti.drv.srio.ae66 : srio_drv.oe66 (.text:Srio_start:Srio_start)
                  008279c0    00000300     ipc.ae66 : Ipc.obj (.text:ti_sdo_ipc_heaps_HeapBufMP_free__E)
                  00827cc0    00000300     sysbios.ae66 : BIOS.obj (.text:ti_sysbios_knl_Swi_runLoop__I)
                  00827fc0    000002e0     ipc.ae66 : Ipc.obj (.text:MessageQ_alloc)
                  008282a0    000002e0     ti.drv.pa.ae66 : pa.oe66 (.text:Pa_forwardResult)
                  00828580    000002e0     ipc.ae66 : Ipc.obj (.text:SharedRegion_getEntry)
                  00828860    000002e0              : Ipc.obj (.text:SharedRegion_getPtr)
                  00828b40    000002e0     rts6600_elf.lib : _printfi.obj (.text:_pproc_fwp)
                  00828e20    000002e0     ipc.ae66 : Ipc.obj (.text:ti_sdo_ipc_notifyDrivers_NotifyDriverShm_isr__I)
                  00829100    000002e0     sysbios.ae66 : BIOS.obj (.text:ti_sysbios_heaps_HeapMem_Instance_init__F)
                  008293e0    000002e0                  : BIOS.obj (.text:ti_sysbios_knl_Event_post__E)
                  008296c0    000002c0     ipc.ae66 : Ipc.obj (.text:MessageQ_open)
                  00829980    000002c0              : Ipc.obj (.text:ti_sdo_ipc_transports_TransportShmCirc_put__E)
                  00829c40    000002c0     sysbios.ae66 : BIOS.obj (.text:ti_sysbios_family_c66_tci66xx_CpIntc_Module_startup__F)
                  00829f00    000002a0     ipc.ae66 : Ipc.obj (.text:NameServer_getLocal)
                  0082a1a0    000002a0     ti.drv.srio.ae66 : srio_drv.oe66 (.text:Srio_init:Srio_init)
                  0082a440    000002a0                      : srio_drv.oe66 (.text:Srio_processAppConfig:Srio_processAppConfig)
                  0082a6e0    000002a0     rts6600_elf.lib : _printfi.obj (.text:fcvt)
                  0082a980    000002a0     ipc.ae66 : Ipc.obj (.text:ti_sdo_ipc_heaps_HeapBufMP_Instance_finalize__F)
                  0082ac20    00000280              : Ipc.obj (.text:Ipc_start)
                  0082aea0    00000280              : Ipc.obj (.text:SharedRegion_getSRPtr)
                  0082b120    00000280     rts6600_elf.lib : _printfi.obj (.text:ecvt)
                  0082b3a0    00000280     ipc.ae66 : Ipc.obj (.text:ti_sdo_ipc_transports_TransportShmCirc_sharedMemReq__F)
                  0082b620    00000280     sysbios.ae66 : BIOS.obj (.text:ti_sysbios_timers_timer64_Timer_deviceConfig__I)
                  0082b8a0    00000280     ti.targets.rts6000.ae66 : Error.oe66 (.text:xdc_runtime_Error_raiseX__F)
                  0082bb20    00000260     ipc.ae66 : Ipc.obj (.text:ListMP_sharedMemReq)
                  0082bd80    00000260              : Ipc.obj (.text:ti_sdo_ipc_ListMP_Instance_finalize__F)
                  0082bfe0    00000260              : Ipc.obj (.text:ti_sdo_ipc_heaps_HeapMemMP_Instance_finalize__F)
                  0082c240    00000260              : Ipc.obj (.text:ti_sdo_ipc_notifyDrivers_NotifyDriverShm_disableEvent__E)
                  0082c4a0    00000260              : Ipc.obj (.text:ti_sdo_ipc_notifyDrivers_NotifyDriverShm_sharedMemReq__F)
                  0082c700    00000260     sysbios.ae66 : BIOS.obj (.text:ti_sysbios_family_c64p_Hwi_dispatchCore__I)
                  0082c960    00000260                  : BIOS.obj (.text:ti_sysbios_family_c64p_Hwi_reconfig__E)
                  0082cbc0    00000260     ti.targets.rts6000.ae66 : Startup.oe66 (.text:xdc_runtime_Startup_startMods__I)
                  0082ce20    00000240     ti.drv.cppi.ae66 : cppi_drv.oe66 (.text:Cppi_open)
                  0082d060    00000240     ti.drv.pa.ae66 : pa.oe66 (.text:Pa_resetControl)
                  0082d2a0    00000240     rts6600_elf.lib : imath64.obj (.text:__c6xabi_divull)
                  0082d4e0    00000240                     : _printfi.obj (.text:_pconv_e)
                  0082d720    00000240                     : _printfi.obj (.text:_pproc_diouxp)
                  0082d960    00000240     ipc.ae66 : Ipc.obj (.text:ti_sdo_ipc_MessageQ_Instance_finalize__F)
                  0082dba0    00000240     sysbios.ae66 : BIOS.obj (.text:ti_sysbios_family_c64p_Exception_internalHandler__I)
                  0082dde0    00000240                  : BIOS.obj (.text:ti_sysbios_knl_Semaphore_post__E)
                  0082e020    00000220     GenUtil.lib : FIFO.obj (.text)
                  0082e240    00000220     ipc.ae66 : Ipc.obj (.text:MessageQ_get)
                  0082e460    00000220     Platformlib.lib : uart.obj (.text)
                  0082e680    00000220     rts6600_elf.lib : _printfi.obj (.text:_pproc_str)
                  0082e8a0    00000220                     : fputc.obj (.text:fputc)
                  0082eac0    00000220     sysbios.ae66 : BIOS.obj (.text:ti_sysbios_knl_Task_exit__E)
                  0082ece0    00000220                  : BIOS.obj (.text:ti_sysbios_knl_Task_schedule__I)
                  0082ef00    00000220                  : BIOS.obj (.text:ti_sysbios_knl_Task_startCore__E)
                  0082f120    00000220     ti.targets.rts6000.ae66 : Core-mem.oe66 (.text:xdc_runtime_Core_createObject__I)
                  0082f340    00000200     ipc.ae66 : Ipc.obj (.text:GateMP_enter)
                  0082f540    00000200              : Ipc.obj (.text:GateMP_leave)
                  0082f740    00000200              : Ipc.obj (.text:ListMP_openByAddr)
                  0082f940    00000200     ti.drv.qmss.ae66 : qmss_drv.oe66 (.text:Qmss_internalQueueOpen)
                  0082fb40    00000200                      : qmss_acc.oe66 (.text:Qmss_programAccumulator)
                  0082fd40    00000200     Timestamp.obj (.text)
                  0082ff40    00000200     rts6600_elf.lib : _printfi.obj (.text:_pconv_g)
                  00830140    00000200     sysbios.ae66 : c64p_Hwi_disp_always.obj (.text:_ti_sysbios_family_c64p_Hwi_dispatchAlways)
                  00830340    00000200     ti.drv.cppi.ae66 : cppi_heap.oe66 (.text:cppi_internal_heap_add)
                  00830540    00000200     rts6600_elf.lib : setvbuf.obj (.text:setvbuf)
                  00830740    00000200     ipc.ae66 : Ipc.obj (.text:ti_sdo_ipc_notifyDrivers_NotifyDriverShm_sendEvent__E)
                  00830940    000001e0     Platformlib_sub.lib : Intr.obj (.text)
                  00830b20    000001e0     ipc.ae66 : Ipc.obj (.text:ti_sdo_ipc_GateMP_attach__F)
                  00830d00    000001e0              : Ipc.obj (.text:ti_sdo_ipc_GateMP_getFreeResource__I)
                  00830ee0    000001e0              : Ipc.obj (.text:ti_sdo_ipc_heaps_HeapBufMP_alloc__E)
                  008310c0    000001e0     sysbios.ae66 : BIOS.obj (.text:ti_sysbios_knl_Task_postInit__I)
                  008312a0    000001e0                  : BIOS.obj (.text:ti_sysbios_timers_timer64_Timer_getFreq__E)
                  00831480    000001c0     ti.drv.cppi.ae66 : cppi_drv.oe66 (.text:Cppi_initCfg)
                  00831640    000001c0     ti.drv.qmss.ae66 : qmss_drv.oe66 (.text:Qmss_internaldownloadFirmware)
                  00831800    000001c0     rts6600_elf.lib : _printfi.obj (.text:_mcpy)
                  008319c0    000001c0     ipc.ae66 : Ipc.obj (.text:ti_sdo_ipc_notifyDrivers_NotifyDriverShm_registerEvent__E)
                  00831b80    000001c0     sysbios.ae66 : BIOS.obj (.text:ti_sysbios_knl_Task_checkStacks__E)
                  00831d40    000001c0                  : BIOS.obj (.text:ti_sysbios_timers_timer64_Timer_setPeriodMicroSecs__E)
                  00831f00    000001c0     ti.targets.rts6000.ae66 : Text.oe66 (.text:xdc_runtime_Text_putSite__F)
                  008320c0    000001a0     GenUtil.lib : Hsem.obj (.text)
                  00832260    000001a0     rts6600_elf.lib : trgdrv.obj (.text:HOSTrename)
                  00832400    000001a0     ipc.ae66 : Ipc.obj (.text:HeapBufMP_openByAddr)
                  008325a0    000001a0              : Ipc.obj (.text:HeapMemMP_openByAddr)
                  00832740    000001a0     ti.drv.pa.ae66 : pa.oe66 (.text:Pa_downloadImage)
                  008328e0    000001a0     ipc.ae66 : Ipc.obj (.text:SharedRegion_getCacheLineSize)
                  00832a80    000001a0              : Ipc.obj (.text:SharedRegion_getHeap)
                  00832c20    000001a0              : Ipc.obj (.text:SharedRegion_isCacheEnabled)
                  00832dc0    000001a0     rts6600_elf.lib : imath40.obj (.text:__c6xabi_divul)
                  00832f60    000001a0     ipc.ae66 : Ipc.obj (.text:ti_sdo_ipc_GateMP_openRegion0Reserved__F)
                  00833100    000001a0              : Ipc.obj (.text:ti_sdo_ipc_notifyDrivers_NotifyDriverShm_enableEvent__E)
                  008332a0    000001a0              : Ipc.obj (.text:ti_sdo_ipc_nsremote_NameServerRemoteNotify_attach__E)
                  00833440    000001a0     sysbios.ae66 : BIOS.obj (.text:ti_sysbios_family_c66_Cache_block__I)
                  008335e0    000001a0                  : BIOS.obj (.text:ti_sysbios_family_c66_tci66xx_CpIntc_dispatch__F)
                  00833780    000001a0                  : BIOS.obj (.text:ti_sysbios_gates_GateMutex_enter__E)
                  00833920    000001a0                  : BIOS.obj (.text:ti_sysbios_knl_Swi_Instance_init__F)
                  00833ac0    000001a0                  : BIOS.obj (.text:ti_sysbios_knl_Task_unblockI__E)
                  00833c60    000001a0                  : BIOS.obj (.text:ti_sysbios_timers_timer64_Timer_start__E)
                  00833e00    00000180     ipc.ae66 : Ipc.obj (.text:Notify_intLineRegistered)
                  00833f80    00000180     Platformlib.lib : Gpi.obj (.text)
                  00834100    00000180     rts6600_elf.lib : copy_decompress_rle.obj (.text:__TI_decompress_rle_core)
                  00834280    00000180     ti.csl.ae66 : csl_timerGetBaseAddress.oe66 (.text:csl_section:tmr:CSL_tmrGetBaseAddress)
                  00834400    00000180                 : csl_tmrHwSetup.oe66 (.text:csl_section:tmr:CSL_tmrHwSetup)
                  00834580    00000180     sysbios.ae66 : c64p_Exception_asm.obj (.text)
                  00834700    00000180     ipc.ae66 : Ipc.obj (.text:ti_sdo_ipc_MessageQ_registerTransport__F)
                  00834880    00000180              : Ipc.obj (.text:ti_sdo_ipc_MessageQ_unregisterTransport__F)
                  00834a00    00000180              : Ipc.obj (.text:ti_sdo_ipc_Notify_Module_startup__F)
                  00834b80    00000180              : Ipc.obj (.text:ti_sdo_ipc_gates_GatePeterson_enter__E)
                  00834d00    00000180              : Ipc.obj (.text:ti_sdo_ipc_notifyDrivers_NotifyDriverShm_unregisterEvent__E)
                  00834e80    00000180              : Ipc.obj (.text:ti_sdo_utils_NameServer_Module_startup__F)
                  00835000    00000180     sysbios.ae66 : BIOS.obj (.text:ti_sysbios_syncs_SyncSem_Instance_init__F)
                  00835180    00000160     DataIf.lib : QueDeque.obj (.text)
                  008352e0    00000160     ipc.ae66 : Ipc.obj (.text:Notify_attach)
                  00835440    00000160     Platformlib_sub.lib : uart_write.obj (.text)
                  008355a0    00000160     ti.drv.qmss.ae66 : qmss_drv.oe66 (.text:Qmss_getMemoryRegionCfg)
                  00835700    00000160     ipc.ae66 : Ipc.obj (.text:ti_sdo_ipc_GateMP_createLocal__F)
                  00835860    00000160              : Ipc.obj (.text:ti_sdo_ipc_gates_GateHWSem_Instance_init__F)
                  008359c0    00000160              : Ipc.obj (.text:ti_sdo_utils_NameServer_isRegistered__E)
                  00835b20    00000160              : Ipc.obj (.text:ti_sdo_utils_NameServer_registerRemoteDriver__E)
                  00835c80    00000160              : Ipc.obj (.text:ti_sdo_utils_NameServer_unregisterRemoteDriver__E)
                  00835de0    00000160     sysbios.ae66 : BIOS.obj (.text:ti_sysbios_BIOS_rtsUnlock__I)
                  00835f40    00000160                  : BIOS.obj (.text:ti_sysbios_knl_Task_yield__E)
                  008360a0    00000140     ti.csl.ae66 : csl_chip.oe66 (.text:CSL_chipReadReg)
                  008361e0    00000140     ipc.ae66 : Ipc.obj (.text:GateMP_close)
                  00836320    00000140              : Ipc.obj (.text:MessageQ_registerHeap)
                  00836460    00000140     Platformlib.lib : Gpo.obj (.text)
                  008365a0    00000140     boot.ae66 : autoinit.oe66 (.text:_auto_init_elf)
                  008366e0    00000140     rts6600_elf.lib : _printfi.obj (.text:_pproc_fflags)
                  00836820    00000140     ti.csl.intc.ae66 : _csl_intcIntrEnDisRes.oe66 (.text:csl_section:intc)
                  00836960    00000140     rts6600_elf.lib : lowlev.obj (.text:getdevice)
                  00836aa0    00000140     ipc.ae66 : Ipc.obj (.text:ti_sdo_ipc_Notify_exec__F)
                  00836be0    00000140              : Ipc.obj (.text:ti_sdo_ipc_nsremote_NameServerRemoteNotify_Instance_finalize__F)
                  00836d20    00000140     sysbios.ae66 : BIOS.obj (.text:ti_sysbios_family_c64p_Hwi_Module_startup__F)
                  00836e60    00000140                  : BIOS.obj (.text:ti_sysbios_family_c66_Cache_Module_startup__F)
                  00836fa0    00000140                  : BIOS.obj (.text:ti_sysbios_gates_GateSwi_enter__E)
                  008370e0    00000140                  : BIOS.obj (.text:ti_sysbios_knl_Semaphore_Instance_init__F)
                  00837220    00000140                  : BIOS.obj (.text:ti_sysbios_knl_Swi_post__E)
                  00837360    00000140                  : BIOS.obj (.text:ti_sysbios_knl_Task_blockI__E)
                  008374a0    00000140     ti.targets.rts6000.ae66 : Text.oe66 (.text:xdc_runtime_Text_putLab__F)
                  008375e0    00000120     MemMgr.obj (.text)
                  00837700    00000120     ti.drv.qmss.ae66 : qmss_acc.oe66 (.text:Qmss_disableAccumulator)
                  00837820    00000120     rts6600_elf.lib : fclose.obj (.text:_closefile)
                  00837940    00000120                     : _printfi.obj (.text:_ltostr)
                  00837a60    00000120                     : fseek.obj (.text:fseek)
                  00837b80    00000120     ipc.ae66 : Ipc.obj (.text:ti_sdo_ipc_GateMP_start__F)
                  00837ca0    00000120              : Ipc.obj (.text:ti_sdo_ipc_MessageQ_Module_startup__F)
                  00837dc0    00000120              : Ipc.obj (.text:ti_sdo_ipc_family_c647x_Interrupt_intRegister__E)
                  00837ee0    00000120     sysbios.ae66 : BIOS.obj (.text:ti_sysbios_xdcruntime_GateThreadSupport_leave__F)
                  00838000    00000120     ti.targets.rts6000.ae66 : Text.oe66 (.text:xdc_runtime_Text_putMod__F)
                  00838120    00000100     EthBuff.obj (.text)
                  00838220    00000100     rts6600_elf.lib : trgdrv.obj (.text:HOSTlseek)
                  00838320    00000100                     : _io_perm.obj (.text:_wrt_ok)
                  00838420    00000100     ipc.ae66 : Ipc.obj (.text:ti_sdo_ipc_Notify_Instance_finalize__F)
                  00838520    00000100              : Ipc.obj (.text:ti_sdo_ipc_SharedRegion_attach__F)
                  00838620    00000100              : Ipc.obj (.text:ti_sdo_ipc_SharedRegion_clearReservedMemory__F)
                  00838720    00000100              : Ipc.obj (.text:ti_sdo_ipc_family_c647x_Interrupt_Module_startup__F)
                  00838820    00000100              : Ipc.obj (.text:ti_sdo_ipc_gates_GateHWSem_Module_startup__F)
                  00838920    00000100              : Ipc.obj (.text:ti_sdo_ipc_gates_GateMPSupportNull_enter__E)
                  00838a20    00000100              : Ipc.obj (.text:ti_sdo_ipc_gates_GateMPSupportNull_leave__E)
                  00838b20    00000100     sysbios.ae66 : BIOS.obj (.text:ti_sysbios_gates_GateMutexPri_leave__E)
                  00838c20    00000100                  : BIOS.obj (.text:ti_sysbios_timers_timer64_Timer_initDevice__I)
                  00838d20    00000100     ti.targets.rts6000.ae66 : Core-mem.oe66 (.text:xdc_runtime_Core_deleteObject__I)
                  00838e20    00000100                             : Startup.oe66 (.text:xdc_runtime_Startup_exec__F)
                  00838f20    00000100                             : Text.oe66 (.text:xdc_runtime_Text_visitRope2__I)
                  00839020    000000e0     rts6600_elf.lib : trgdrv.obj (.text:HOSTopen)
                  00839100    000000e0     ipc.ae66 : Ipc.obj (.text:HeapBufMP_create)
                  008391e0    000000e0     rts6600_elf.lib : _printfi.obj (.text:_div)
                  008392c0    000000e0                     : atoi.obj (.text:atoi)
                  008393a0    000000e0                     : lowlev.obj (.text:close)
                  00839480    000000e0                     : ltoa.obj (.text:ltoa)
                  00839560    000000e0                     : memset.obj (.text:memset)
                  00839640    000000e0                     : printf.obj (.text:printf)
                  00839720    000000e0     TRS_SYSBIOS_pe66.oe66 (.text:ti_sdo_ipc_Notify_Object__create__S)
                  00839800    000000e0     ipc.ae66 : Ipc.obj (.text:ti_sdo_ipc_family_c647x_Interrupt_intShmStub__I)
                  008398e0    000000e0              : Ipc.obj (.text:ti_sdo_ipc_family_c647x_NotifySetup_attach__E)
                  008399c0    000000e0              : Ipc.obj (.text:ti_sdo_ipc_gates_GateHWSem_enter__E)
                  00839aa0    000000e0              : Ipc.obj (.text:ti_sdo_ipc_heaps_HeapBufMP_getStats__F)
                  00839b80    000000e0     sysbios.ae66 : BIOS.obj (.text:ti_sysbios_family_c64p_Hwi_Instance_finalize__F)
                  00839c60    000000e0                  : BIOS.obj (.text:ti_sysbios_family_c64p_Hwi_Instance_init__F)
                  00839d40    000000e0     TRS_SYSBIOS_pe66.oe66 (.text:ti_sysbios_family_c64p_Hwi_Object__create__S)
                  00839e20    000000e0     TRS_SYSBIOS_pe66.oe66 (.text:ti_sysbios_hal_Hwi_Object__create__S)
                  00839f00    000000e0     sysbios.ae66 : BIOS.obj (.text:ti_sysbios_knl_Swi_Instance_finalize__F)
                  00839fe0    000000e0                  : BIOS.obj (.text:ti_sysbios_timers_timer64_Timer_startup__E)
                  0083a0c0    000000e0     ti.targets.rts6000.ae66 : Error.oe66 (.text:xdc_runtime_Error_print__F)
                  0083a1a0    000000e0                             : Memory.oe66 (.text:xdc_runtime_Memory_alloc__F)
                  0083a280    000000c0     rts6600_elf.lib : trgdrv.obj (.text:HOSTread)
                  0083a340    000000c0                     : trgdrv.obj (.text:HOSTunlink)
                  0083a400    000000c0                     : trgdrv.obj (.text:HOSTwrite)
                  0083a4c0    000000c0     ipc.ae66 : Ipc.obj (.text:HeapMemMP_create)
                  0083a580    000000c0              : Ipc.obj (.text:ListMP_create)
                  0083a640    000000c0              : Ipc.obj (.text:MessageQ_create2)
                  0083a700    000000c0     ti.drv.qmss.ae66 : qmss_drv.oe66 (.text:Qmss_setEoiVector)
                  0083a7c0    000000c0                      : qmss_drv.oe66 (.text:Qmss_setQueueThreshold)
                  0083a880    000000c0     ti.drv.srio.ae66 : srio_drv.oe66 (.text:Srio_getDescSize:Srio_getDescSize)
                  0083a940    000000c0     rts6600_elf.lib : dtor_list.obj (.text:_Z11__TI_atexitPFYvPvES_S_)
                  0083aa00    000000c0                     : dtor_list.obj (.text:__cxa_finalize)
                  0083aac0    000000c0                     : divu.obj (.text:__divu)
                  0083ab80    000000c0                     : fflush.obj (.text:_doflush)
                  0083ac40    000000c0     ti.csl.ae66 : csl_tmrOpen.oe66 (.text:csl_section:tmr:CSL_tmrOpen)
                  0083ad00    000000c0     rts6600_elf.lib : exit.obj (.text:exit)
                  0083adc0    000000c0     ti.drv.pa.ae66 : pa.oe66 (.text:pa_format_stats_request)
                  0083ae80    000000c0     TRS_SYSBIOS_pe66.oe66 (.text:ti_sdo_ipc_GateMP_Object__create__S)
                  0083af40    000000c0     ipc.ae66 : Ipc.obj (.text:ti_sdo_ipc_GateMP_getRegion0ReservedSize__F)
                  0083b000    000000c0     TRS_SYSBIOS_pe66.oe66 (.text:ti_sdo_ipc_ListMP_Object__create__S)
                  0083b0c0    000000c0     TRS_SYSBIOS_pe66.oe66 (.text:ti_sdo_ipc_MessageQ_Object__create__S)
                  0083b180    000000c0     TRS_SYSBIOS_pe66.oe66 (.text:ti_sdo_ipc_gates_GatePeterson_Object__create__S)
                  0083b240    000000c0     TRS_SYSBIOS_pe66.oe66 (.text:ti_sdo_ipc_heaps_HeapBufMP_Object__create__S)
                  0083b300    000000c0     TRS_SYSBIOS_pe66.oe66 (.text:ti_sdo_ipc_heaps_HeapMemMP_Object__create__S)
                  0083b3c0    000000c0     TRS_SYSBIOS_pe66.oe66 (.text:ti_sdo_ipc_notifyDrivers_NotifyDriverShm_Object__create__S)
                  0083b480    000000c0     TRS_SYSBIOS_pe66.oe66 (.text:ti_sdo_ipc_nsremote_NameServerRemoteNotify_Object__create__S)
                  0083b540    000000c0     ipc.ae66 : Ipc.obj (.text:ti_sdo_ipc_transports_TransportShmCircSetup_attach__E)
                  0083b600    000000c0     TRS_SYSBIOS_pe66.oe66 (.text:ti_sdo_ipc_transports_TransportShmCirc_Object__create__S)
                  0083b6c0    000000c0     sysbios.ae66 : BIOS.obj (.text:ti_sysbios_BIOS_errorRaiseHook__I)
                  0083b780    000000c0                  : BIOS.obj (.text:ti_sysbios_gates_GateAll_leave__E)
                  0083b840    000000c0                  : BIOS.obj (.text:ti_sysbios_heaps_HeapMem_getStats__E)
                  0083b900    000000c0     TRS_SYSBIOS_pe66.oe66 (.text:ti_sysbios_knl_Swi_Object__create__S)
                  0083b9c0    000000c0     sysbios.ae66 : BIOS.obj (.text:ti_sysbios_knl_Swi_schedule__I)
                  0083ba80    000000c0     TRS_SYSBIOS_pe66.oe66 (.text:ti_sysbios_knl_Task_Object__create__S)
                  0083bb40    000000c0     sysbios.ae66 : BIOS.obj (.text:ti_sysbios_knl_Task_allBlockedFunction__I)
                  0083bc00    000000c0     TRS_SYSBIOS_pe66.oe66 (.text:ti_sysbios_syncs_SyncSem_Object__create__S)
                  0083bcc0    000000c0     sysbios.ae66 : BIOS.obj (.text:ti_sysbios_timers_timer64_Timer_stop__E)
                  0083bd80    000000c0     ti.targets.rts6000.ae66 : System.oe66 (.text:xdc_runtime_System_formatNum__I)
                  0083be40    000000c0     TRS_SYSBIOS_pe66.oe66 (.text:xdc_runtime_knl_GateThread_Object__create__S)
                  0083bf00    000000a0     ti.drv.cppi.ae66 : cppi_drv.oe66 (.text:Cppi_channelEnable)
                  0083bfa0    000000a0     rts6600_elf.lib : trgdrv.obj (.text:HOSTclose)
                  0083c040    000000a0     ti.drv.qmss.ae66 : qmss_drv.oe66 (.text:Qmss_queueClose)
                  0083c0e0    000000a0                      : qmss_drv.oe66 (.text:Qmss_startCfg)
                  0083c180    000000a0     rts6600_elf.lib : remu.obj (.text:__remu)
                  0083c220    000000a0     boot.ae66 : boot.oe66 (.text:_c_int00)
                  0083c2c0    000000a0     rts6600_elf.lib : fopen.obj (.text:_cleanup)
                  0083c360    000000a0                     : _printfi.obj (.text:_ecpy)
                  0083c400    000000a0                     : _printfi.obj (.text:_fcpy)
                  0083c4a0    000000a0                     : _printfi.obj (.text:_pconv_f)
                  0083c540    000000a0     sysbios.ae66 : c64p_Hwi_asm.obj (.text:_ti_sysbios_family_c64p_Hwi_plug__E)
                  0083c5e0    000000a0     ti.drv.cppi.ae66 : cppi_heap.oe66 (.text:cppi_internal_heap_malloc)
                  0083c680    000000a0                      : cppi_listlib.oe66 (.text:cppi_list_cat)
                  0083c720    000000a0     rts6600_elf.lib : lowlev.obj (.text:finddevice)
                  0083c7c0    000000a0                     : lowlev.obj (.text:lseek)
                  0083c860    000000a0                     : memcpy64.obj (.text:memcpy)
                  0083c900    000000a0     ti.drv.pa.ae66 : pa.oe66 (.text:pa_format_fcmd_header)
                  0083c9a0    000000a0                    : pa.oe66 (.text:pa_pdsp_run)
                  0083ca40    000000a0     ipc.ae66 : Ipc.obj (.text:ti_sdo_ipc_family_c647x_Interrupt_intUnregister__E)
                  0083cae0    000000a0              : Ipc.obj (.text:ti_sdo_ipc_gates_GatePeterson_leave__E)
                  0083cb80    000000a0     sysbios.ae66 : BIOS.obj (.text:ti_sysbios_family_c64p_Exception_Module_startup__F)
                  0083cc20    000000a0                  : BIOS.obj (.text:ti_sysbios_family_c66_tci66xx_CpIntc_mapSysIntToHostInt__F)
                  0083ccc0    000000a0                  : BIOS.obj (.text:ti_sysbios_heaps_HeapMem_init__I)
                  0083cd60    000000a0                  : BIOS.obj (.text:ti_sysbios_knl_Idle_run__E)
                  0083ce00    000000a0                  : BIOS.obj (.text:ti_sysbios_syncs_SyncSem_wait__F)
                  0083cea0    000000a0     rts6600_elf.lib : lowlev.obj (.text:write)
                  0083cf40    000000a0     ti.targets.rts6000.ae66 : Assert.oe66 (.text:xdc_runtime_Assert_raise__I)
                  0083cfe0    000000a0                             : SysMin.oe66 (.text:xdc_runtime_SysMin_abort__F)
                  0083d080    000000a0                             : SysMin.oe66 (.text:xdc_runtime_SysMin_flush__F)
                  0083d120    000000a0                             : SysMin.oe66 (.text:xdc_runtime_SysMin_putch__F)
                  0083d1c0    000000a0                             : Text.oe66 (.text:xdc_runtime_Text_xprintf__I)
                  0083d260    00000080     ti.drv.cppi.ae66 : cppi_drv.oe66 (.text:Cppi_setCpdmaLoopback)
                  0083d2e0    00000080     ipc.ae66 : Ipc.obj (.text:GateMP_create)
                  0083d360    00000080              : Ipc.obj (.text:HeapBufMP_Params_init)
                  0083d3e0    00000080     ti.drv.pa.ae66 : painit.oe66 (.text:Pa_getBufferReq)
                  0083d460    00000080     ti.drv.qmss.ae66 : qmss_drv.oe66 (.text:Qmss_getMemRegQueueHandle)
                  0083d4e0    00000080                      : qmss_drv.oe66 (.text:Qmss_queueOpen)
                  0083d560    00000080     rts6600_elf.lib : fixdu.obj (.text:__c6xabi_fixdu)
                  0083d5e0    00000080                     : llshift.obj (.text:__c6xabi_llshl)
                  0083d660    00000080     sysbios.ae66 : c62_TaskSupport_asm.obj (.text:_ti_sysbios_family_c62_TaskSupport_swap__E)
                  0083d6e0    00000080     ti.drv.cppi.ae66 : cppi_heap.oe66 (.text:cppi_internal_heap_cache_begin)
                  0083d760    00000080                      : cppi_listlib.oe66 (.text:cppi_list_remove)
                  0083d7e0    00000080     debug_spurious_intr.obj (.text)
                  0083d860    00000080     TRS_SYSBIOS_pe66.oe66 (.text:malloc)
                  0083d8e0    00000080     ti.drv.pa.ae66 : pa.oe66 (.text:pa_uint8_match)
                  0083d960    00000080     rts6600_elf.lib : trgmsg.obj (.text:readmsg)
                  0083d9e0    00000080     ti.drv.pa.ae66 : pa.oe66 (.text:swizFcmd)
                  0083da60    00000080     TRS_SYSBIOS_pe66.oe66 (.text:ti_sdo_ipc_gates_GateHWSem_Object__create__S)
                  0083dae0    00000080     TRS_SYSBIOS_pe66.oe66 (.text:ti_sdo_ipc_gates_GateMPSupportNull_Object__create__S)
                  0083db60    00000080     ipc.ae66 : Ipc.obj (.text:ti_sdo_ipc_notifyDrivers_NotifyDriverShm_Instance_finalize__F)
                  0083dbe0    00000080              : Ipc.obj (.text:ti_sdo_ipc_nsremote_NameServerRemoteNotify_detach__E)
                  0083dc60    00000080              : Ipc.obj (.text:ti_sdo_ipc_transports_TransportShmCirc_Instance_finalize__F)
                  0083dce0    00000080     TRS_SYSBIOS_pe66.oe66 (.text:ti_sdo_utils_List_Object__create__S)
                  0083dd60    00000080     sysbios.ae66 : BIOS.obj (.text:ti_sysbios_BIOS_exit__E)
                  0083dde0    00000080                  : BIOS.obj (.text:ti_sysbios_family_c62_TaskSupport_start__E)
                  0083de60    00000080                  : BIOS.obj (.text:ti_sysbios_family_c64p_Hwi_dispatchC__I)
                  0083dee0    00000080                  : BIOS.obj (.text:ti_sysbios_family_c64p_Hwi_getStackInfo__E)
                  0083df60    00000080                  : BIOS.obj (.text:ti_sysbios_family_c66_Cache_invL1pAll__E)
                  0083dfe0    00000080                  : BIOS.obj (.text:ti_sysbios_family_c66_tci66xx_CpIntc_getEventId__F)
                  0083e060    00000080     TRS_SYSBIOS_pe66.oe66 (.text:ti_sysbios_gates_GateAll_Object__create__S)
                  0083e0e0    00000080     TRS_SYSBIOS_pe66.oe66 (.text:ti_sysbios_gates_GateHwi_Object__create__S)
                  0083e160    00000080     TRS_SYSBIOS_pe66.oe66 (.text:ti_sysbios_gates_GateMutexPri_Object__create__S)
                  0083e1e0    00000080     TRS_SYSBIOS_pe66.oe66 (.text:ti_sysbios_gates_GateMutex_Object__create__S)
                  0083e260    00000080     TRS_SYSBIOS_pe66.oe66 (.text:ti_sysbios_gates_GateSwi_Object__create__S)
                  0083e2e0    00000080     sysbios.ae66 : BIOS.obj (.text:ti_sysbios_gates_GateSwi_leave__E)
                  0083e360    00000080                  : BIOS.obj (.text:ti_sysbios_hal_Hwi_checkStack:ti_sysbios_hal_Hwi_checkStack)
                  0083e3e0    00000080                  : BIOS.obj (.text:ti_sysbios_hal_Hwi_initStack:ti_sysbios_hal_Hwi_initStack)
                  0083e460    00000080     TRS_SYSBIOS_pe66.oe66 (.text:ti_sysbios_heaps_HeapMem_Object__create__S)
                  0083e4e0    00000080     TRS_SYSBIOS_pe66.oe66 (.text:ti_sysbios_knl_Event_Object__create__S)
                  0083e560    00000080     TRS_SYSBIOS_pe66.oe66 (.text:ti_sysbios_knl_Queue_Object__create__S)
                  0083e5e0    00000080     TRS_SYSBIOS_pe66.oe66 (.text:ti_sysbios_knl_Semaphore_Object__create__S)
                  0083e660    00000080     sysbios.ae66 : BIOS.obj (.text:ti_sysbios_knl_Swi_startup__E)
                  0083e6e0    00000080                  : BIOS.obj (.text:ti_sysbios_knl_Task_restore__E)
                  0083e760    00000080     TRS_SYSBIOS_pe66.oe66 (.text:ti_sysbios_xdcruntime_GateThreadSupport_Object__create__S)
                  0083e7e0    00000080     rts6600_elf.lib : lowlev.obj (.text:unlink)
                  0083e860    00000080     ti.targets.rts6000.ae66 : Core-label.oe66 (.text:xdc_runtime_Core_assignLabel__I)
                  0083e8e0    00000080                             : Core-params.oe66 (.text:xdc_runtime_Core_assignParams__I)
                  0083e960    00000080                             : System.oe66 (.text:xdc_runtime_System_atexit__F)
                  0083e9e0    00000080                             : System.oe66 (.text:xdc_runtime_System_putchar__I)
                  0083ea60    00000080                             : System.oe66 (.text:xdc_runtime_System_rtsExit__I)
                  0083eae0    00000080                             : Text.oe66 (.text:xdc_runtime_Text_printVisFxn__I)
                  0083eb60    00000060     ipc.ae66 : Ipc.obj (.text:GateMP_Params_init)
                  0083ebc0    00000060              : Ipc.obj (.text:HeapMemMP_Params_init)
                  0083ec20    00000060     ti.drv.pa.ae66 : pa.oe66 (.text:Pa_formatStatsReply)
                  0083ec80    00000060     Platformlib.lib : Gpio.obj (.text)
                  0083ece0    00000060     rts6600_elf.lib : frcmpyd_div.obj (.text:__c6xabi_frcmpyd_div)
                  0083ed40    00000060                     : llshift.obj (.text:__c6xabi_llshru)
                  0083eda0    00000060                     : imath64.obj (.text:__c6xabi_remull)
                  0083ee00    00000060                     : imath64.obj (.text:_subcull)
                  0083ee60    00000060     sysbios.ae66 : c64p_Hwi_asm_switch.obj (.text:_ti_sysbios_family_c64p_Hwi_switchAndDispatch__I)
                  0083eec0    00000060                  : c64p_Hwi_asm_switch.obj (.text:_ti_sysbios_family_xxx_Hwi_switchAndRunFunc)
                  0083ef20    00000060     ti.drv.cppi.ae66 : cppi_listlib.oe66 (.text:cppi_list_add)
                  0083ef80    00000060                      : cppi_listlib.oe66 (.text:cppi_list_cache_invalidate)
                  0083efe0    00000060     rts6600_elf.lib : memccpy.obj (.text:memccpy)
                  0083f040    00000060     ti.drv.pa.ae66 : painit.oe66 (.text:pa_init_global_cfg)
                  0083f0a0    00000060                    : pa.oe66 (.text:pa_uint8_zero)
                  0083f100    00000060     rts6600_elf.lib : sprintf.obj (.text:sprintf)
                  0083f160    00000060     TRS_SYSBIOS_pe66.oe66 (.text:ti_sdo_ipc_MessageQ_Object__get__S)
                  0083f1c0    00000060     ipc.ae66 : Ipc.obj (.text:ti_sdo_ipc_family_c647x_NotifySetup_sharedMemReq__E)
                  0083f220    00000060              : Ipc.obj (.text:ti_sdo_ipc_gates_GatePeterson_Instance_finalize__F)
                  0083f280    00000060              : Ipc.obj (.text:ti_sdo_ipc_notifyDrivers_NotifyDriverShm_setNotifyHandle__E)
                  0083f2e0    00000060              : Ipc.obj (.text:ti_sdo_ipc_nsremote_NameServerRemoteNotify_cbFxn__I)
                  0083f340    00000060              : Ipc.obj (.text:ti_sdo_ipc_transports_TransportShmCircSetup_sharedMemReq__E)
                  0083f3a0    00000060     TRS_SYSBIOS_pe66.oe66 (.text:ti_sdo_utils_List_Object__get__S)
                  0083f400    00000060     TRS_SYSBIOS_pe66.oe66 (.text:ti_sdo_utils_NameServer_Object__get__S)
                  0083f460    00000060     TRS_SYSBIOS_pe66.oe66 (.text:ti_sysbios_BIOS_exitFunc__I)
                  0083f4c0    00000060     sysbios.ae66 : BIOS.obj (.text:ti_sysbios_BIOS_registerRTSLock__I)
                  0083f520    00000060                  : BIOS.obj (.text:ti_sysbios_gates_GateAll_enter__E)
                  0083f580    00000060                  : BIOS.obj (.text:ti_sysbios_gates_GateMutex_Instance_init__F)
                  0083f5e0    00000060                  : BIOS.obj (.text:ti_sysbios_hal_Hwi_Instance_init__F)
                  0083f640    00000060     TRS_SYSBIOS_pe66.oe66 (.text:ti_sysbios_heaps_HeapMem_Object__get__S)
                  0083f6a0    00000060     TRS_SYSBIOS_pe66.oe66 (.text:ti_sysbios_knl_Queue_Object__get__S)
                  0083f700    00000060     sysbios.ae66 : BIOS.obj (.text:ti_sysbios_knl_Swi_Module_startup__F)
                  0083f760    00000060     TRS_SYSBIOS_pe66.oe66 (.text:ti_sysbios_knl_Swi_Object__get__S)
                  0083f7c0    00000060     TRS_SYSBIOS_pe66.oe66 (.text:ti_sysbios_knl_Task_Object__get__S)
                  0083f820    00000060     sysbios.ae66 : BIOS.obj (.text:ti_sysbios_knl_Task_enter__I)
                  0083f880    00000060     rts6600_elf.lib : vsprintf.obj (.text:vsprintf)
                  0083f8e0    00000060                     : trgmsg.obj (.text:writemsg)
                  0083f940    00000060     TRS_SYSBIOS_pe66.oe66 (.text:xdc_runtime_GateNull_Object__create__S)
                  0083f9a0    00000060     ti.targets.rts6000.ae66 : Memory.oe66 (.text:xdc_runtime_Memory_calloc__F)
                  0083fa00    00000060                             : Memory.oe66 (.text:xdc_runtime_Memory_valloc__F)
                  0083fa60    00000060                             : SysMin.oe66 (.text:xdc_runtime_SysMin_Module_startup__F)
                  0083fac0    00000060                             : SysMin.oe66 (.text:xdc_runtime_SysMin_exit__F)
                  0083fb20    00000060     TRS_SYSBIOS_pe66.oe66 (.text:xdc_runtime_SysMin_output__I)
                  0083fb80    00000060     ti.targets.rts6000.ae66 : System.oe66 (.text:xdc_runtime_System_avprintf__F)
                  0083fbe0    00000060                             : System.oe66 (.text:xdc_runtime_System_vprintf__F)
                  0083fc40    00000060                             : Text.oe66 (.text:xdc_runtime_Text_cordText__F)
                  0083fca0    00000040     ipc.ae66 : Ipc.obj (.text:MessageQ_create)
                  0083fce0    00000040     Platformlib_sub.lib : IntrDB.obj (.text)
                  0083fd20    00000040                         : delay.obj (.text)
                  0083fd60    00000040     ti.drv.qmss.ae66 : qmss_drv.oe66 (.text:Qmss_ackInterrupt)
                  0083fda0    00000040                      : qmss_drv.oe66 (.text:Qmss_getMemRegDescSize)
                  0083fde0    00000040     rts6600_elf.lib : isinf.obj (.text:__c6xabi_isinf)
                  0083fe20    00000040                     : _printfi.obj (.text:__c6xabi_isnan)
                  0083fe60    00000040                     : strasg.obj (.text:__strasgi_64plus)
                  0083fea0    00000040                     : args_main.obj (.text:_args_main)
                  0083fee0    00000040                     : sprintf.obj (.text:_outs)
                  0083ff20    00000040                     : vsprintf.obj (.text:_outs)
                  0083ff60    00000040     sysbios.ae66 : c62_TaskSupport_asm.obj (.text:_ti_sysbios_family_c62_TaskSupport_buildTaskStack)
                  0083ffa0    00000040                  : c64p_Hwi_asm_switch.obj (.text:_ti_sysbios_family_xxx_Hwi_switchToIsrStack)
                  0083ffe0    00000040     TRS_SYSBIOS_pe66.oe66 (.text:free)
                  00840020    00000040     ti.drv.pa.ae66 : pa.oe66 (.text:pa_mac_match)
                  00840060    00000040     TRS_SYSBIOS_pe66.oe66 (.text:ti_sdo_ipc_GateMP_Object__delete__S)
                  008400a0    00000040     TRS_SYSBIOS_pe66.oe66 (.text:ti_sdo_ipc_GateMP_Params__init__S)
                  008400e0    00000040     TRS_SYSBIOS_pe66.oe66 (.text:ti_sdo_ipc_GateMP_RemoteCustom1Proxy_Object__create__S)
                  00840120    00000040     TRS_SYSBIOS_pe66.oe66 (.text:ti_sdo_ipc_GateMP_RemoteCustom2Proxy_Object__create__S)
                  00840160    00000040     TRS_SYSBIOS_pe66.oe66 (.text:ti_sdo_ipc_GateMP_RemoteSystemProxy_Object__create__S)
                  008401a0    00000040     TRS_SYSBIOS_pe66.oe66 (.text:ti_sdo_ipc_ListMP_Object__delete__S)
                  008401e0    00000040     TRS_SYSBIOS_pe66.oe66 (.text:ti_sdo_ipc_ListMP_Params__init__S)
                  00840220    00000040     TRS_SYSBIOS_pe66.oe66 (.text:ti_sdo_ipc_MessageQ_Params__init__S)
                  00840260    00000040     TRS_SYSBIOS_pe66.oe66 (.text:ti_sdo_ipc_MessageQ_registerTransport__E)
                  008402a0    00000040     ipc.ae66 : Ipc.obj (.text:ti_sdo_ipc_family_c647x_Interrupt_intClear__E)
                  008402e0    00000040              : Ipc.obj (.text:ti_sdo_ipc_family_c647x_Interrupt_intSend__E)
                  00840320    00000040     TRS_SYSBIOS_pe66.oe66 (.text:ti_sdo_ipc_gates_GateHWSem_Handle__label__S)
                  00840360    00000040     TRS_SYSBIOS_pe66.oe66 (.text:ti_sdo_ipc_gates_GateHWSem_Object__delete__S)
                  008403a0    00000040     TRS_SYSBIOS_pe66.oe66 (.text:ti_sdo_ipc_gates_GateHWSem_Params__init__S)
                  008403e0    00000040     ipc.ae66 : Ipc.obj (.text:ti_sdo_ipc_gates_GateHWSem_leave__E)
                  00840420    00000040     TRS_SYSBIOS_pe66.oe66 (.text:ti_sdo_ipc_gates_GateMPSupportNull_Handle__label__S)
                  00840460    00000040     TRS_SYSBIOS_pe66.oe66 (.text:ti_sdo_ipc_gates_GateMPSupportNull_Object__delete__S)
                  008404a0    00000040     TRS_SYSBIOS_pe66.oe66 (.text:ti_sdo_ipc_gates_GateMPSupportNull_Params__init__S)
                  008404e0    00000040     TRS_SYSBIOS_pe66.oe66 (.text:ti_sdo_ipc_gates_GatePeterson_Handle__label__S)
                  00840520    00000040     TRS_SYSBIOS_pe66.oe66 (.text:ti_sdo_ipc_gates_GatePeterson_Object__delete__S)
                  00840560    00000040     TRS_SYSBIOS_pe66.oe66 (.text:ti_sdo_ipc_gates_GatePeterson_Params__init__S)
                  008405a0    00000040     ipc.ae66 : Ipc.obj (.text:ti_sdo_ipc_gates_GatePeterson_sharedMemReq__E)
                  008405e0    00000040     TRS_SYSBIOS_pe66.oe66 (.text:ti_sdo_ipc_heaps_HeapBufMP_Handle__label__S)
                  00840620    00000040     TRS_SYSBIOS_pe66.oe66 (.text:ti_sdo_ipc_heaps_HeapBufMP_Object__delete__S)
                  00840660    00000040     TRS_SYSBIOS_pe66.oe66 (.text:ti_sdo_ipc_heaps_HeapBufMP_Params__init__S)
                  008406a0    00000040     TRS_SYSBIOS_pe66.oe66 (.text:ti_sdo_ipc_heaps_HeapMemMP_Handle__label__S)
                  008406e0    00000040     TRS_SYSBIOS_pe66.oe66 (.text:ti_sdo_ipc_heaps_HeapMemMP_Object__delete__S)
                  00840720    00000040     TRS_SYSBIOS_pe66.oe66 (.text:ti_sdo_ipc_heaps_HeapMemMP_Params__init__S)
                  00840760    00000040     TRS_SYSBIOS_pe66.oe66 (.text:ti_sdo_ipc_notifyDrivers_NotifyDriverShm_Handle__label__S)
                  008407a0    00000040     TRS_SYSBIOS_pe66.oe66 (.text:ti_sdo_ipc_notifyDrivers_NotifyDriverShm_InterruptProxy_intRegister__E)
                  008407e0    00000040     TRS_SYSBIOS_pe66.oe66 (.text:ti_sdo_ipc_notifyDrivers_NotifyDriverShm_Object__delete__S)
                  00840820    00000040     TRS_SYSBIOS_pe66.oe66 (.text:ti_sdo_ipc_notifyDrivers_NotifyDriverShm_Params__init__S)
                  00840860    00000040     TRS_SYSBIOS_pe66.oe66 (.text:ti_sdo_ipc_nsremote_NameServerRemoteNotify_Handle__label__S)
                  008408a0    00000040     TRS_SYSBIOS_pe66.oe66 (.text:ti_sdo_ipc_nsremote_NameServerRemoteNotify_Object__delete__S)
                  008408e0    00000040     TRS_SYSBIOS_pe66.oe66 (.text:ti_sdo_ipc_nsremote_NameServerRemoteNotify_Object__first__S)
                  00840920    00000040     TRS_SYSBIOS_pe66.oe66 (.text:ti_sdo_ipc_nsremote_NameServerRemoteNotify_Object__next__S)
                  00840960    00000040     TRS_SYSBIOS_pe66.oe66 (.text:ti_sdo_ipc_nsremote_NameServerRemoteNotify_Params__init__S)
                  008409a0    00000040     TRS_SYSBIOS_pe66.oe66 (.text:ti_sdo_ipc_nsremote_NameServerRemoteNotify_get__E)
                  008409e0    00000040     ipc.ae66 : Ipc.obj (.text:ti_sdo_ipc_nsremote_NameServerRemoteNotify_sharedMemReq__E)
                  00840a20    00000040     TRS_SYSBIOS_pe66.oe66 (.text:ti_sdo_ipc_transports_TransportShmCirc_Handle__label__S)
                  00840a60    00000040     TRS_SYSBIOS_pe66.oe66 (.text:ti_sdo_ipc_transports_TransportShmCirc_Object__delete__S)
                  00840aa0    00000040     TRS_SYSBIOS_pe66.oe66 (.text:ti_sdo_ipc_transports_TransportShmCirc_Params__init__S)
                  00840ae0    00000040     TRS_SYSBIOS_pe66.oe66 (.text:ti_sdo_utils_List_Object__destruct__S)
                  00840b20    00000040     TRS_SYSBIOS_pe66.oe66 (.text:ti_sdo_utils_NameServer_Module__startupDone__F)
                  00840b60    00000040     TRS_SYSBIOS_pe66.oe66 (.text:ti_sdo_utils_NameServer_Object__first__S)
                  00840ba0    00000040     TRS_SYSBIOS_pe66.oe66 (.text:ti_sdo_utils_NameServer_Object__next__S)
                  00840be0    00000040     sysbios.ae66 : BIOS.obj (.text:ti_sysbios_BIOS_rtsLock__I)
                  00840c20    00000040     TRS_SYSBIOS_pe66.oe66 (.text:ti_sysbios_BIOS_startFunc__I)
                  00840c60    00000040     TRS_SYSBIOS_pe66.oe66 (.text:ti_sysbios_family_c64p_Hwi_Module__startupDone__F)
                  00840ca0    00000040     TRS_SYSBIOS_pe66.oe66 (.text:ti_sysbios_family_c64p_Hwi_Object__delete__S)
                  00840ce0    00000040     TRS_SYSBIOS_pe66.oe66 (.text:ti_sysbios_family_c64p_Hwi_Params__init__S)
                  00840d20    00000040     sysbios.ae66 : BIOS.obj (.text:ti_sysbios_family_c64p_Hwi_disableInterrupt__E)
                  00840d60    00000040                  : BIOS.obj (.text:ti_sysbios_family_c64p_Hwi_enableInterrupt__E)
                  00840da0    00000040     TRS_SYSBIOS_pe66.oe66 (.text:ti_sysbios_family_c66_tci66xx_CpIntc_dispatchPlug__E)
                  00840de0    00000040     sysbios.ae66 : BIOS.obj (.text:ti_sysbios_family_c66_tci66xx_CpIntc_dispatchPlug__F)
                  00840e20    00000040                  : BIOS.obj (.text:ti_sysbios_family_c66_tci66xx_CpIntc_unused__F)
                  00840e60    00000040     TRS_SYSBIOS_pe66.oe66 (.text:ti_sysbios_gates_GateAll_Handle__label__S)
                  00840ea0    00000040     TRS_SYSBIOS_pe66.oe66 (.text:ti_sysbios_gates_GateAll_Object__delete__S)
                  00840ee0    00000040     TRS_SYSBIOS_pe66.oe66 (.text:ti_sysbios_gates_GateHwi_Handle__label__S)
                  00840f20    00000040     TRS_SYSBIOS_pe66.oe66 (.text:ti_sysbios_gates_GateHwi_Object__delete__S)
                  00840f60    00000040     TRS_SYSBIOS_pe66.oe66 (.text:ti_sysbios_gates_GateMutexPri_Handle__label__S)
                  00840fa0    00000040     sysbios.ae66 : BIOS.obj (.text:ti_sysbios_gates_GateMutexPri_Instance_init__F)
                  00840fe0    00000040     TRS_SYSBIOS_pe66.oe66 (.text:ti_sysbios_gates_GateMutexPri_Object__delete__S)
                  00841020    00000040     TRS_SYSBIOS_pe66.oe66 (.text:ti_sysbios_gates_GateMutexPri_Object__destruct__S)
                  00841060    00000040     TRS_SYSBIOS_pe66.oe66 (.text:ti_sysbios_gates_GateMutex_Handle__label__S)
                  008410a0    00000040     TRS_SYSBIOS_pe66.oe66 (.text:ti_sysbios_gates_GateMutex_Object__delete__S)
                  008410e0    00000040     sysbios.ae66 : BIOS.obj (.text:ti_sysbios_gates_GateMutex_leave__E)
                  00841120    00000040     TRS_SYSBIOS_pe66.oe66 (.text:ti_sysbios_gates_GateSwi_Handle__label__S)
                  00841160    00000040     TRS_SYSBIOS_pe66.oe66 (.text:ti_sysbios_gates_GateSwi_Object__delete__S)
                  008411a0    00000040     TRS_SYSBIOS_pe66.oe66 (.text:ti_sysbios_hal_Cache_CacheProxy_inv__E)
                  008411e0    00000040     TRS_SYSBIOS_pe66.oe66 (.text:ti_sysbios_hal_Cache_CacheProxy_wbInv__E)
                  00841220    00000040     TRS_SYSBIOS_pe66.oe66 (.text:ti_sysbios_hal_Cache_CacheProxy_wb__E)
                  00841260    00000040     TRS_SYSBIOS_pe66.oe66 (.text:ti_sysbios_hal_Hwi_HwiProxy_Object__create__S)
                  008412a0    00000040     sysbios.ae66 : BIOS.obj (.text:ti_sysbios_hal_Hwi_Instance_finalize__F)
                  008412e0    00000040     TRS_SYSBIOS_pe66.oe66 (.text:ti_sysbios_hal_Hwi_Params__init__S)
                  00841320    00000040     TRS_SYSBIOS_pe66.oe66 (.text:ti_sysbios_hal_Timer_Module__startupDone__F)
                  00841360    00000040     TRS_SYSBIOS_pe66.oe66 (.text:ti_sysbios_heaps_HeapMem_Handle__label__S)
                  008413a0    00000040     TRS_SYSBIOS_pe66.oe66 (.text:ti_sysbios_heaps_HeapMem_Object__delete__S)
                  008413e0    00000040     sysbios.ae66 : BIOS.obj (.text:ti_sysbios_knl_Event_Instance_init__F)
                  00841420    00000040     TRS_SYSBIOS_pe66.oe66 (.text:ti_sysbios_knl_Queue_Object__destruct__S)
                  00841460    00000040     TRS_SYSBIOS_pe66.oe66 (.text:ti_sysbios_knl_Semaphore_Object__delete__S)
                  008414a0    00000040     TRS_SYSBIOS_pe66.oe66 (.text:ti_sysbios_knl_Semaphore_Object__destruct__S)
                  008414e0    00000040     TRS_SYSBIOS_pe66.oe66 (.text:ti_sysbios_knl_Semaphore_Params__init__S)
                  00841520    00000040     TRS_SYSBIOS_pe66.oe66 (.text:ti_sysbios_knl_Swi_Object__destruct__S)
                  00841560    00000040     TRS_SYSBIOS_pe66.oe66 (.text:ti_sysbios_knl_Swi_Params__init__S)
                  008415a0    00000040     TRS_SYSBIOS_pe66.oe66 (.text:ti_sysbios_knl_Task_Params__init__S)
                  008415e0    00000040     TRS_SYSBIOS_pe66.oe66 (.text:ti_sysbios_syncs_SyncSem_Handle__label__S)
                  00841620    00000040     sysbios.ae66 : BIOS.obj (.text:ti_sysbios_syncs_SyncSem_Instance_finalize__F)
                  00841660    00000040     TRS_SYSBIOS_pe66.oe66 (.text:ti_sysbios_syncs_SyncSem_Object__delete__S)
                  008416a0    00000040     TRS_SYSBIOS_pe66.oe66 (.text:ti_sysbios_timers_timer64_Timer_Module__startupDone__F)
                  008416e0    00000040     sysbios.ae66 : BIOS.obj (.text:ti_sysbios_xdcruntime_GateThreadSupport_Instance_init__F)
                  00841720    00000040     TRS_SYSBIOS_pe66.oe66 (.text:ti_sysbios_xdcruntime_GateThreadSupport_Object__delete__S)
                  00841760    00000040     ti.targets.rts6000.ae66 : Error.oe66 (.text:xdc_runtime_Error_check__F)
                  008417a0    00000040                             : Error.oe66 (.text:xdc_runtime_Error_init__F)
                  008417e0    00000040     TRS_SYSBIOS_pe66.oe66 (.text:xdc_runtime_Error_raiseX__E)
                  00841820    00000040     TRS_SYSBIOS_pe66.oe66 (.text:xdc_runtime_GateNull_Handle__label__S)
                  00841860    00000040     TRS_SYSBIOS_pe66.oe66 (.text:xdc_runtime_GateNull_Object__delete__S)
                  008418a0    00000040     ti.targets.rts6000.ae66 : Gate.oe66 (.text:xdc_runtime_Gate_leaveSystem__F)
                  008418e0    00000040     TRS_SYSBIOS_pe66.oe66 (.text:xdc_runtime_IHeap_alloc)
                  00841920    00000040     TRS_SYSBIOS_pe66.oe66 (.text:xdc_runtime_IHeap_free)
                  00841960    00000040     ti.targets.rts6000.ae66 : Memory.oe66 (.text:xdc_runtime_Memory_free__F)
                  008419a0    00000040     TRS_SYSBIOS_pe66.oe66 (.text:xdc_runtime_Memory_valloc__E)
                  008419e0    00000040     ti.targets.rts6000.ae66 : Registry.oe66 (.text:xdc_runtime_Registry_findById__F)
                  00841a20    00000040     TRS_SYSBIOS_pe66.oe66 (.text:xdc_runtime_Startup_exec__I)
                  00841a60    00000040     ti.targets.rts6000.ae66 : System.oe66 (.text:xdc_runtime_System_abort__F)
                  00841aa0    00000040     TRS_SYSBIOS_pe66.oe66 (.text:xdc_runtime_System_aprintf__E)
                  00841ae0    00000040     TRS_SYSBIOS_pe66.oe66 (.text:xdc_runtime_System_printf__E)
                  00841b20    00000040     ti.targets.rts6000.ae66 : Text.oe66 (.text:xdc_runtime_Text_ropeText__F)
                  00841b60    00000040     TRS_SYSBIOS_pe66.oe66 (.text:xdc_runtime_Text_visitRope__I)
                  00841ba0    00000040     TRS_SYSBIOS_pe66.oe66 (.text:xdc_runtime_knl_GateThread_Handle__label__S)
                  00841be0    00000040     ti.targets.rts6000.ae66 : GateThread.oe66 (.text:xdc_runtime_knl_GateThread_Instance_finalize__F)
                  00841c20    00000040                             : GateThread.oe66 (.text:xdc_runtime_knl_GateThread_Instance_init__F)
                  00841c60    00000040     TRS_SYSBIOS_pe66.oe66 (.text:xdc_runtime_knl_GateThread_Object__delete__S)
                  00841ca0    00000040     TRS_SYSBIOS_pe66.oe66 (.text:xdc_runtime_knl_GateThread_Proxy_Object__create__S)
                  00841ce0    00000020     ti.csl.ae66 : csl_gpioGetBaseAddress.oe66 (.text:CSL_GPIO_open)
                  00841d00    00000020                 : csl_srioGetBaseAddress.oe66 (.text:CSL_SRIO_Open)
                  00841d20    00000020     ti.drv.cppi.ae66 : cppi_drv.oe66 (.text:Cppi_getFlowId)
                  00841d40    00000020                      : cppi_drv.oe66 (.text:Cppi_init)
                  00841d60    00000020     ipc.ae66 : Ipc.obj (.text:MultiProc_self)
                  00841d80    00000020     ti.drv.pa.ae66 : pa.oe66 (.text:Pa_requestStats)
                  00841da0    00000020     ti.drv.qmss.ae66 : qmss_drv.oe66 (.text:Qmss_getQueueHandle)
                  00841dc0    00000020                      : qmss_drv.oe66 (.text:Qmss_getQueueNumber)
                  00841de0    00000020                      : qmss_drv.oe66 (.text:Qmss_start)
                  00841e00    00000020     rts6600_elf.lib : negll.obj (.text:__c6xabi_negll)
                  00841e20    00000020                     : dtor_list.obj (.text:__cxa_atexit)
                  00841e40    00000020                     : dtor_list.obj (.text:__cxa_ia64_exit)
                  00841e60    00000020                     : push.obj (.text:__pop_rts)
                  00841e80    00000020                     : push.obj (.text:__push_rts)
                  00841ea0    00000020     ti.targets.rts6000.ae66 : xdc_noinit.oe66 (.text:__xdc__init)
                  00841ec0    00000020     rts6600_elf.lib : _lock.obj (.text:_nop)
                  00841ee0    00000020                     : printf.obj (.text:_outc)
                  00841f00    00000020                     : sprintf.obj (.text:_outc)
                  00841f20    00000020                     : vsprintf.obj (.text:_outc)
                  00841f40    00000020                     : printf.obj (.text:_outs)
                  00841f60    00000020                     : _lock.obj (.text:_register_lock)
                  00841f80    00000020                     : _lock.obj (.text:_register_unlock)
                  00841fa0    00000020     sysbios.ae66 : c62_TaskSupport_asm.obj (.text:_ti_sysbios_family_c62_TaskSupport_glue)
                  00841fc0    00000020                  : c64p_Hwi_asm_switch.obj (.text:_ti_sysbios_family_xxx_Hwi_switchToTaskStack)
                  00841fe0    00000020     rts6600_elf.lib : exit.obj (.text:abort)
                  00842000    00000020                     : dtor_list.obj (.text:atexit)
                  00842020    00000020     ti.drv.cppi.ae66 : cppi_listlib.oe66 (.text:cppi_list_get_head)
                  00842040    00000020                      : cppi_listlib.oe66 (.text:cppi_list_get_next)
                  00842060    00000020     ti.csl.ae66 : csl_tmrInit.oe66 (.text:csl_section:tmr:CSL_tmrInit)
                  00842080    00000020                 : csl_tsc.oe66 (.text:cslsys_section:tsc)
                  008420a0    00000020     rts6600_elf.lib : copy_decompress_none.obj (.text:decompress:none:__TI_decompress_none)
                  008420c0    00000020                     : copy_decompress_rle.obj (.text:decompress:rle24:__TI_decompress_rle24)
                  008420e0    00000020     main.obj (.text)
                  00842100    00000020     ti.drv.pa.ae66 : pa.oe66 (.text:pa_u16_match)
                  00842120    00000020                    : pa.oe66 (.text:pa_u32_match)
                  00842140    00000020     TRS_SYSBIOS_pe66.oe66 (.text:ti_sdo_ipc_GateMP_RemoteCustom1Proxy_Object__delete__S)
                  00842160    00000020     TRS_SYSBIOS_pe66.oe66 (.text:ti_sdo_ipc_GateMP_RemoteCustom1Proxy_Params__init__S)
                  00842180    00000020     TRS_SYSBIOS_pe66.oe66 (.text:ti_sdo_ipc_GateMP_RemoteCustom1Proxy_Proxy__abstract__S)
                  008421a0    00000020     TRS_SYSBIOS_pe66.oe66 (.text:ti_sdo_ipc_GateMP_RemoteCustom1Proxy_Proxy__delegate__S)
                  008421c0    00000020     TRS_SYSBIOS_pe66.oe66 (.text:ti_sdo_ipc_GateMP_RemoteCustom1Proxy_getReservedMask__E)
                  008421e0    00000020     TRS_SYSBIOS_pe66.oe66 (.text:ti_sdo_ipc_GateMP_RemoteCustom1Proxy_sharedMemReq__E)
                  00842200    00000020     TRS_SYSBIOS_pe66.oe66 (.text:ti_sdo_ipc_GateMP_RemoteCustom2Proxy_Object__delete__S)
                  00842220    00000020     TRS_SYSBIOS_pe66.oe66 (.text:ti_sdo_ipc_GateMP_RemoteCustom2Proxy_Params__init__S)
                  00842240    00000020     TRS_SYSBIOS_pe66.oe66 (.text:ti_sdo_ipc_GateMP_RemoteCustom2Proxy_Proxy__abstract__S)
                  00842260    00000020     TRS_SYSBIOS_pe66.oe66 (.text:ti_sdo_ipc_GateMP_RemoteCustom2Proxy_Proxy__delegate__S)
                  00842280    00000020     TRS_SYSBIOS_pe66.oe66 (.text:ti_sdo_ipc_GateMP_RemoteCustom2Proxy_getReservedMask__E)
                  008422a0    00000020     TRS_SYSBIOS_pe66.oe66 (.text:ti_sdo_ipc_GateMP_RemoteCustom2Proxy_sharedMemReq__E)
                  008422c0    00000020     TRS_SYSBIOS_pe66.oe66 (.text:ti_sdo_ipc_GateMP_RemoteSystemProxy_Object__delete__S)
                  008422e0    00000020     TRS_SYSBIOS_pe66.oe66 (.text:ti_sdo_ipc_GateMP_RemoteSystemProxy_Params__init__S)
                  00842300    00000020     TRS_SYSBIOS_pe66.oe66 (.text:ti_sdo_ipc_GateMP_RemoteSystemProxy_Proxy__abstract__S)
                  00842320    00000020     TRS_SYSBIOS_pe66.oe66 (.text:ti_sdo_ipc_GateMP_RemoteSystemProxy_Proxy__delegate__S)
                  00842340    00000020     TRS_SYSBIOS_pe66.oe66 (.text:ti_sdo_ipc_GateMP_RemoteSystemProxy_getReservedMask__E)
                  00842360    00000020     TRS_SYSBIOS_pe66.oe66 (.text:ti_sdo_ipc_GateMP_RemoteSystemProxy_sharedMemReq__E)
                  00842380    00000020     TRS_SYSBIOS_pe66.oe66 (.text:ti_sdo_ipc_GateMP_attach__E)
                  008423a0    00000020     TRS_SYSBIOS_pe66.oe66 (.text:ti_sdo_ipc_GateMP_getRegion0ReservedSize__E)
                  008423c0    00000020     TRS_SYSBIOS_pe66.oe66 (.text:ti_sdo_ipc_GateMP_getSharedAddr__E)
                  008423e0    00000020     ipc.ae66 : Ipc.obj (.text:ti_sdo_ipc_GateMP_getSharedAddr__F)
                  00842400    00000020     TRS_SYSBIOS_pe66.oe66 (.text:ti_sdo_ipc_GateMP_start__E)
                  00842420    00000020     TRS_SYSBIOS_pe66.oe66 (.text:ti_sdo_ipc_MessageQ_Module_startup__E)
                  00842440    00000020     TRS_SYSBIOS_pe66.oe66 (.text:ti_sdo_ipc_MessageQ_SetupTransportProxy_attach__E)
                  00842460    00000020     TRS_SYSBIOS_pe66.oe66 (.text:ti_sdo_ipc_MessageQ_SetupTransportProxy_isRegistered__E)
                  00842480    00000020     TRS_SYSBIOS_pe66.oe66 (.text:ti_sdo_ipc_MessageQ_SetupTransportProxy_sharedMemReq__E)
                  008424a0    00000020     TRS_SYSBIOS_pe66.oe66 (.text:ti_sdo_ipc_MessageQ_unregisterTransport__E)
                  008424c0    00000020     TRS_SYSBIOS_pe66.oe66 (.text:ti_sdo_ipc_Notify_Module_GateProxy_enter__E)
                  008424e0    00000020     TRS_SYSBIOS_pe66.oe66 (.text:ti_sdo_ipc_Notify_Module_GateProxy_leave__E)
                  00842500    00000020     TRS_SYSBIOS_pe66.oe66 (.text:ti_sdo_ipc_Notify_Module_startup__E)
                  00842520    00000020     TRS_SYSBIOS_pe66.oe66 (.text:ti_sdo_ipc_Notify_SetupProxy_attach__E)
                  00842540    00000020     TRS_SYSBIOS_pe66.oe66 (.text:ti_sdo_ipc_Notify_SetupProxy_numIntLines__E)
                  00842560    00000020     TRS_SYSBIOS_pe66.oe66 (.text:ti_sdo_ipc_Notify_SetupProxy_sharedMemReq__E)
                  00842580    00000020     TRS_SYSBIOS_pe66.oe66 (.text:ti_sdo_ipc_Notify_exec__E)
                  008425a0    00000020     TRS_SYSBIOS_pe66.oe66 (.text:ti_sdo_ipc_SharedRegion_attach__E)
                  008425c0    00000020     TRS_SYSBIOS_pe66.oe66 (.text:ti_sdo_ipc_SharedRegion_clearReservedMemory__E)
                  008425e0    00000020     TRS_SYSBIOS_pe66.oe66 (.text:ti_sdo_ipc_SharedRegion_reserveMemory__E)
                  00842600    00000020     TRS_SYSBIOS_pe66.oe66 (.text:ti_sdo_ipc_SharedRegion_start__E)
                  00842620    00000020     TRS_SYSBIOS_pe66.oe66 (.text:ti_sdo_ipc_family_c647x_Interrupt_Module_startup__E)
                  00842640    00000020     ipc.ae66 : Ipc.obj (.text:ti_sdo_ipc_family_c647x_Interrupt_intDisable__E)
                  00842660    00000020              : Ipc.obj (.text:ti_sdo_ipc_family_c647x_Interrupt_intEnable__E)
                  00842680    00000020              : Ipc.obj (.text:ti_sdo_ipc_family_c647x_NotifySetup_numIntLines__E)
                  008426a0    00000020     TRS_SYSBIOS_pe66.oe66 (.text:ti_sdo_ipc_gates_GateHWSem_Module_startup__E)
                  008426c0    00000020     ipc.ae66 : Ipc.obj (.text:ti_sdo_ipc_gates_GateHWSem_getReservedMask__E)
                  008426e0    00000020     TRS_SYSBIOS_pe66.oe66 (.text:ti_sdo_ipc_gates_GateHWSem_query__E)
                  00842700    00000020     ipc.ae66 : Ipc.obj (.text:ti_sdo_ipc_gates_GateHWSem_query__F)
                  00842720    00000020              : Ipc.obj (.text:ti_sdo_ipc_gates_GateHWSem_sharedMemReq__E)
                  00842740    00000020              : Ipc.obj (.text:ti_sdo_ipc_gates_GateMPSupportNull_Instance_init__F)
                  00842760    00000020              : Ipc.obj (.text:ti_sdo_ipc_gates_GateMPSupportNull_getReservedMask__E)
                  00842780    00000020     TRS_SYSBIOS_pe66.oe66 (.text:ti_sdo_ipc_gates_GateMPSupportNull_query__E)
                  008427a0    00000020     ipc.ae66 : Ipc.obj (.text:ti_sdo_ipc_gates_GateMPSupportNull_query__F)
                  008427c0    00000020              : Ipc.obj (.text:ti_sdo_ipc_gates_GateMPSupportNull_sharedMemReq__E)
                  008427e0    00000020              : Ipc.obj (.text:ti_sdo_ipc_gates_GatePeterson_getReservedMask__E)
                  00842800    00000020     TRS_SYSBIOS_pe66.oe66 (.text:ti_sdo_ipc_gates_GatePeterson_query__E)
                  00842820    00000020     ipc.ae66 : Ipc.obj (.text:ti_sdo_ipc_gates_GatePeterson_query__F)
                  00842840    00000020     TRS_SYSBIOS_pe66.oe66 (.text:ti_sdo_ipc_heaps_HeapBufMP_getStats__E)
                  00842860    00000020     TRS_SYSBIOS_pe66.oe66 (.text:ti_sdo_ipc_heaps_HeapBufMP_isBlocking__E)
                  00842880    00000020     ipc.ae66 : Ipc.obj (.text:ti_sdo_ipc_heaps_HeapBufMP_isBlocking__F)
                  008428a0    00000020     TRS_SYSBIOS_pe66.oe66 (.text:ti_sdo_ipc_heaps_HeapMemMP_isBlocking__E)
                  008428c0    00000020     ipc.ae66 : Ipc.obj (.text:ti_sdo_ipc_heaps_HeapMemMP_isBlocking__F)
                  008428e0    00000020     TRS_SYSBIOS_pe66.oe66 (.text:ti_sdo_ipc_notifyDrivers_NotifyDriverShm_InterruptProxy_intClear__E)
                  00842900    00000020     TRS_SYSBIOS_pe66.oe66 (.text:ti_sdo_ipc_notifyDrivers_NotifyDriverShm_InterruptProxy_intDisable__E)
                  00842920    00000020     TRS_SYSBIOS_pe66.oe66 (.text:ti_sdo_ipc_notifyDrivers_NotifyDriverShm_InterruptProxy_intEnable__E)
                  00842940    00000020     TRS_SYSBIOS_pe66.oe66 (.text:ti_sdo_ipc_notifyDrivers_NotifyDriverShm_InterruptProxy_intSend__E)
                  00842960    00000020     TRS_SYSBIOS_pe66.oe66 (.text:ti_sdo_ipc_notifyDrivers_NotifyDriverShm_InterruptProxy_intUnregister__E)
                  00842980    00000020     ipc.ae66 : Ipc.obj (.text:ti_sdo_ipc_notifyDrivers_NotifyDriverShm_disable__E)
                  008429a0    00000020              : Ipc.obj (.text:ti_sdo_ipc_notifyDrivers_NotifyDriverShm_enable__E)
                  008429c0    00000020     TRS_SYSBIOS_pe66.oe66 (.text:ti_sdo_ipc_notifyDrivers_NotifyDriverShm_sharedMemReq__E)
                  008429e0    00000020     ipc.ae66 : Ipc.obj (.text:ti_sdo_ipc_nsremote_NameServerRemoteNotify_swiFxnResponse__I)
                  00842a00    00000020              : Ipc.obj (.text:ti_sdo_ipc_transports_TransportShmCircSetup_isRegistered__E)
                  00842a20    00000020              : Ipc.obj (.text:ti_sdo_ipc_transports_TransportShmCirc_control__E)
                  00842a40    00000020              : Ipc.obj (.text:ti_sdo_ipc_transports_TransportShmCirc_getStatus__E)
                  00842a60    00000020              : Ipc.obj (.text:ti_sdo_ipc_transports_TransportShmCirc_notifyFxn__I)
                  00842a80    00000020     TRS_SYSBIOS_pe66.oe66 (.text:ti_sdo_ipc_transports_TransportShmCirc_setErrFxn__E)
                  00842aa0    00000020     ipc.ae66 : Ipc.obj (.text:ti_sdo_ipc_transports_TransportShmCirc_setErrFxn__F)
                  00842ac0    00000020     TRS_SYSBIOS_pe66.oe66 (.text:ti_sdo_ipc_transports_TransportShmCirc_sharedMemReq__E)
                  00842ae0    00000020     ipc.ae66 : Ipc.obj (.text:ti_sdo_utils_List_Instance_init__F)
                  00842b00    00000020     TRS_SYSBIOS_pe66.oe66 (.text:ti_sdo_utils_MultiProc_getClusterId__E)
                  00842b20    00000020     ipc.ae66 : Ipc.obj (.text:ti_sdo_utils_MultiProc_getClusterId__F)
                  00842b40    00000020     TRS_SYSBIOS_pe66.oe66 (.text:ti_sdo_utils_NameServer_Module__startupDone__S)
                  00842b60    00000020     TRS_SYSBIOS_pe66.oe66 (.text:ti_sdo_utils_NameServer_Module_startup__E)
                  00842b80    00000020     TRS_SYSBIOS_pe66.oe66 (.text:ti_sdo_utils_NameServer_SetupProxy_attach__E)
                  00842ba0    00000020     TRS_SYSBIOS_pe66.oe66 (.text:ti_sdo_utils_NameServer_SetupProxy_sharedMemReq__E)
                  00842bc0    00000020     TRS_SYSBIOS_pe66.oe66 (.text:ti_sysbios_BIOS_RtsGateProxy_enter__E)
                  00842be0    00000020     TRS_SYSBIOS_pe66.oe66 (.text:ti_sysbios_BIOS_RtsGateProxy_leave__E)
                  00842c00    00000020     sysbios.ae66 : BIOS.obj (.text:ti_sysbios_BIOS_getThreadType__E)
                  00842c20    00000020                  : BIOS.obj (.text:ti_sysbios_BIOS_nullFunc__I)
                  00842c40    00000020                  : BIOS.obj (.text:ti_sysbios_BIOS_setThreadType__E)
                  00842c60    00000020                  : BIOS.obj (.text:ti_sysbios_BIOS_start__E)
                  00842c80    00000020     TRS_SYSBIOS_pe66.oe66 (.text:ti_sysbios_family_c62_TaskSupport_Module__startupDone__S)
                  00842ca0    00000020     sysbios.ae66 : BIOS.obj (.text:ti_sysbios_family_c62_TaskSupport_checkStack__E)
                  00842cc0    00000020                  : BIOS.obj (.text:ti_sysbios_family_c62_TaskSupport_getStackAlignment__E)
                  00842ce0    00000020     TRS_SYSBIOS_pe66.oe66 (.text:ti_sysbios_family_c64p_Exception_Module_startup__E)
                  00842d00    00000020     TRS_SYSBIOS_pe66.oe66 (.text:ti_sysbios_family_c64p_Hwi_Module__startupDone__S)
                  00842d20    00000020     TRS_SYSBIOS_pe66.oe66 (.text:ti_sysbios_family_c64p_Hwi_Module_startup__E)
                  00842d40    00000020     sysbios.ae66 : BIOS.obj (.text:ti_sysbios_family_c64p_Hwi_clearInterrupt__E)
                  00842d60    00000020                  : BIOS.obj (.text:ti_sysbios_family_c64p_Hwi_getHandle__E)
                  00842d80    00000020                  : BIOS.obj (.text:ti_sysbios_family_c64p_Hwi_startup__E)
                  00842da0    00000020                  : BIOS.obj (.text:ti_sysbios_family_c64p_Hwi_switchFromBootStack__E)
                  00842dc0    00000020                  : BIOS.obj (.text:ti_sysbios_family_c64p_Hwi_unPluggedInterrupt__I)
                  00842de0    00000020                  : BIOS.obj (.text:ti_sysbios_family_c64p_tci6488_TimerSupport_enable__E)
                  00842e00    00000020     TRS_SYSBIOS_pe66.oe66 (.text:ti_sysbios_family_c66_Cache_Module_startup__E)
                  00842e20    00000020     sysbios.ae66 : BIOS.obj (.text:ti_sysbios_family_c66_Cache_inv__E)
                  00842e40    00000020                  : BIOS.obj (.text:ti_sysbios_family_c66_Cache_wbInv__E)
                  00842e60    00000020                  : BIOS.obj (.text:ti_sysbios_family_c66_Cache_wb__E)
                  00842e80    00000020     TRS_SYSBIOS_pe66.oe66 (.text:ti_sysbios_family_c66_tci66xx_CpIntc_Module_startup__E)
                  00842ea0    00000020     TRS_SYSBIOS_pe66.oe66 (.text:ti_sysbios_family_c66_tci66xx_CpIntc_disableHostInt__E)
                  00842ec0    00000020     sysbios.ae66 : BIOS.obj (.text:ti_sysbios_family_c66_tci66xx_CpIntc_disableHostInt__F)
                  00842ee0    00000020     TRS_SYSBIOS_pe66.oe66 (.text:ti_sysbios_family_c66_tci66xx_CpIntc_disableSysInt__E)
                  00842f00    00000020     sysbios.ae66 : BIOS.obj (.text:ti_sysbios_family_c66_tci66xx_CpIntc_disableSysInt__F)
                  00842f20    00000020     TRS_SYSBIOS_pe66.oe66 (.text:ti_sysbios_family_c66_tci66xx_CpIntc_dispatch__E)
                  00842f40    00000020     TRS_SYSBIOS_pe66.oe66 (.text:ti_sysbios_family_c66_tci66xx_CpIntc_enableHostInt__E)
                  00842f60    00000020     sysbios.ae66 : BIOS.obj (.text:ti_sysbios_family_c66_tci66xx_CpIntc_enableHostInt__F)
                  00842f80    00000020     TRS_SYSBIOS_pe66.oe66 (.text:ti_sysbios_family_c66_tci66xx_CpIntc_enableSysInt__E)
                  00842fa0    00000020     sysbios.ae66 : BIOS.obj (.text:ti_sysbios_family_c66_tci66xx_CpIntc_enableSysInt__F)
                  00842fc0    00000020     TRS_SYSBIOS_pe66.oe66 (.text:ti_sysbios_family_c66_tci66xx_CpIntc_getEventId__E)
                  00842fe0    00000020     TRS_SYSBIOS_pe66.oe66 (.text:ti_sysbios_family_c66_tci66xx_CpIntc_mapSysIntToHostInt__E)
                  00843000    00000020     TRS_SYSBIOS_pe66.oe66 (.text:ti_sysbios_family_c66_tci66xx_CpIntc_unused__E)
                  00843020    00000020     sysbios.ae66 : BIOS.obj (.text:ti_sysbios_gates_GateAll_Instance_init__F)
                  00843040    00000020     TRS_SYSBIOS_pe66.oe66 (.text:ti_sysbios_gates_GateAll_query__E)
                  00843060    00000020     sysbios.ae66 : BIOS.obj (.text:ti_sysbios_gates_GateAll_query__F)
                  00843080    00000020                  : BIOS.obj (.text:ti_sysbios_gates_GateHwi_Instance_init__F)
                  008430a0    00000020                  : BIOS.obj (.text:ti_sysbios_gates_GateHwi_enter__E)
                  008430c0    00000020                  : BIOS.obj (.text:ti_sysbios_gates_GateHwi_leave__E)
                  008430e0    00000020     TRS_SYSBIOS_pe66.oe66 (.text:ti_sysbios_gates_GateHwi_query__E)
                  00843100    00000020     sysbios.ae66 : BIOS.obj (.text:ti_sysbios_gates_GateHwi_query__F)
                  00843120    00000020                  : BIOS.obj (.text:ti_sysbios_gates_GateMutexPri_Instance_finalize__F)
                  00843140    00000020     TRS_SYSBIOS_pe66.oe66 (.text:ti_sysbios_gates_GateMutexPri_query__E)
                  00843160    00000020     sysbios.ae66 : BIOS.obj (.text:ti_sysbios_gates_GateMutexPri_query__F)
                  00843180    00000020                  : BIOS.obj (.text:ti_sysbios_gates_GateMutex_Instance_finalize__F)
                  008431a0    00000020     TRS_SYSBIOS_pe66.oe66 (.text:ti_sysbios_gates_GateMutex_query__E)
                  008431c0    00000020     sysbios.ae66 : BIOS.obj (.text:ti_sysbios_gates_GateMutex_query__F)
                  008431e0    00000020                  : BIOS.obj (.text:ti_sysbios_gates_GateSwi_Instance_init__F)
                  00843200    00000020     TRS_SYSBIOS_pe66.oe66 (.text:ti_sysbios_gates_GateSwi_query__E)
                  00843220    00000020     sysbios.ae66 : BIOS.obj (.text:ti_sysbios_gates_GateSwi_query__F)
                  00843240    00000020     TRS_SYSBIOS_pe66.oe66 (.text:ti_sysbios_hal_Hwi_HwiProxy_Module__startupDone__S)
                  00843260    00000020     TRS_SYSBIOS_pe66.oe66 (.text:ti_sysbios_hal_Hwi_HwiProxy_Object__delete__S)
                  00843280    00000020     TRS_SYSBIOS_pe66.oe66 (.text:ti_sysbios_hal_Hwi_HwiProxy_clearInterrupt__E)
                  008432a0    00000020     TRS_SYSBIOS_pe66.oe66 (.text:ti_sysbios_hal_Hwi_HwiProxy_disableInterrupt__E)
                  008432c0    00000020     TRS_SYSBIOS_pe66.oe66 (.text:ti_sysbios_hal_Hwi_HwiProxy_enableInterrupt__E)
                  008432e0    00000020     TRS_SYSBIOS_pe66.oe66 (.text:ti_sysbios_hal_Hwi_HwiProxy_getStackInfo__E)
                  00843300    00000020     TRS_SYSBIOS_pe66.oe66 (.text:ti_sysbios_hal_Hwi_HwiProxy_startup__E)
                  00843320    00000020     TRS_SYSBIOS_pe66.oe66 (.text:ti_sysbios_hal_Hwi_HwiProxy_switchFromBootStack__E)
                  00843340    00000020     TRS_SYSBIOS_pe66.oe66 (.text:ti_sysbios_hal_Hwi_Module_startup__E)
                  00843360    00000020     sysbios.ae66 : BIOS.obj (.text:ti_sysbios_hal_Hwi_Module_startup__F)
                  00843380    00000020     TRS_SYSBIOS_pe66.oe66 (.text:ti_sysbios_hal_Timer_Module__startupDone__S)
                  008433a0    00000020     TRS_SYSBIOS_pe66.oe66 (.text:ti_sysbios_hal_Timer_Module_startup__E)
                  008433c0    00000020     sysbios.ae66 : BIOS.obj (.text:ti_sysbios_hal_Timer_Module_startup__F)
                  008433e0    00000020     TRS_SYSBIOS_pe66.oe66 (.text:ti_sysbios_hal_Timer_TimerProxy_Module__startupDone__S)
                  00843400    00000020     TRS_SYSBIOS_pe66.oe66 (.text:ti_sysbios_hal_Timer_TimerProxy_startup__E)
                  00843420    00000020     TRS_SYSBIOS_pe66.oe66 (.text:ti_sysbios_heaps_HeapMem_Module_GateProxy_enter__E)
                  00843440    00000020     TRS_SYSBIOS_pe66.oe66 (.text:ti_sysbios_heaps_HeapMem_Module_GateProxy_leave__E)
                  00843460    00000020     TRS_SYSBIOS_pe66.oe66 (.text:ti_sysbios_heaps_HeapMem_Module_GateProxy_query__E)
                  00843480    00000020     sysbios.ae66 : BIOS.obj (.text:ti_sysbios_heaps_HeapMem_isBlocking__E)
                  008434a0    00000020     TRS_SYSBIOS_pe66.oe66 (.text:ti_sysbios_knl_Clock_Module_startup__E)
                  008434c0    00000020     sysbios.ae66 : BIOS.obj (.text:ti_sysbios_knl_Clock_Module_startup__F)
                  008434e0    00000020                  : BIOS.obj (.text:ti_sysbios_knl_Idle_loop__E)
                  00843500    00000020                  : BIOS.obj (.text:ti_sysbios_knl_Queue_Instance_init__F)
                  00843520    00000020                  : BIOS.obj (.text:ti_sysbios_knl_Semaphore_Instance_finalize__F)
                  00843540    00000020                  : BIOS.obj (.text:ti_sysbios_knl_Semaphore_reset__E)
                  00843560    00000020     TRS_SYSBIOS_pe66.oe66 (.text:ti_sysbios_knl_Swi_Module_startup__E)
                  00843580    00000020     sysbios.ae66 : BIOS.obj (.text:ti_sysbios_knl_Swi_disable__E)
                  008435a0    00000020     TRS_SYSBIOS_pe66.oe66 (.text:ti_sysbios_knl_Task_Module_startup__E)
                  008435c0    00000020     TRS_SYSBIOS_pe66.oe66 (.text:ti_sysbios_knl_Task_SupportProxy_Module__startupDone__S)
                  008435e0    00000020     TRS_SYSBIOS_pe66.oe66 (.text:ti_sysbios_knl_Task_SupportProxy_checkStack__E)
                  00843600    00000020     TRS_SYSBIOS_pe66.oe66 (.text:ti_sysbios_knl_Task_SupportProxy_getStackAlignment__E)
                  00843620    00000020     TRS_SYSBIOS_pe66.oe66 (.text:ti_sysbios_knl_Task_SupportProxy_start__E)
                  00843640    00000020     TRS_SYSBIOS_pe66.oe66 (.text:ti_sysbios_knl_Task_SupportProxy_swap__E)
                  00843660    00000020     sysbios.ae66 : BIOS.obj (.text:ti_sysbios_knl_Task_disable__E)
                  00843680    00000020                  : BIOS.obj (.text:ti_sysbios_knl_Task_getPri__E)
                  008436a0    00000020                  : BIOS.obj (.text:ti_sysbios_knl_Task_self__E)
                  008436c0    00000020                  : BIOS.obj (.text:ti_sysbios_knl_Task_startup__E)
                  008436e0    00000020     TRS_SYSBIOS_pe66.oe66 (.text:ti_sysbios_syncs_SyncSem_query__E)
                  00843700    00000020     sysbios.ae66 : BIOS.obj (.text:ti_sysbios_syncs_SyncSem_query__F)
                  00843720    00000020     TRS_SYSBIOS_pe66.oe66 (.text:ti_sysbios_syncs_SyncSem_signal__E)
                  00843740    00000020     sysbios.ae66 : BIOS.obj (.text:ti_sysbios_syncs_SyncSem_signal__F)
                  00843760    00000020     TRS_SYSBIOS_pe66.oe66 (.text:ti_sysbios_syncs_SyncSem_wait__E)
                  00843780    00000020     TRS_SYSBIOS_pe66.oe66 (.text:ti_sysbios_timers_timer64_Timer_Module__startupDone__S)
                  008437a0    00000020     TRS_SYSBIOS_pe66.oe66 (.text:ti_sysbios_timers_timer64_Timer_Module_startup__E)
                  008437c0    00000020     TRS_SYSBIOS_pe66.oe66 (.text:ti_sysbios_timers_timer64_Timer_TimerSupportProxy_enable__E)
                  008437e0    00000020     sysbios.ae66 : BIOS.obj (.text:ti_sysbios_xdcruntime_GateThreadSupport_Instance_finalize__F)
                  00843800    00000020     TRS_SYSBIOS_pe66.oe66 (.text:ti_sysbios_xdcruntime_GateThreadSupport_enter__E)
                  00843820    00000020     sysbios.ae66 : BIOS.obj (.text:ti_sysbios_xdcruntime_GateThreadSupport_enter__F)
                  00843840    00000020     TRS_SYSBIOS_pe66.oe66 (.text:ti_sysbios_xdcruntime_GateThreadSupport_leave__E)
                  00843860    00000020     TRS_SYSBIOS_pe66.oe66 (.text:ti_sysbios_xdcruntime_GateThreadSupport_query__E)
                  00843880    00000020     TRS_SYSBIOS_pe66.oe66 (.text:xdc_iargToPtr)
                  008438a0    00000020     TRS_SYSBIOS_pe66.oe66 (.text:xdc_runtime_Error_check__E)
                  008438c0    00000020     TRS_SYSBIOS_pe66.oe66 (.text:xdc_runtime_Error_init__E)
                  008438e0    00000020     TRS_SYSBIOS_pe66.oe66 (.text:xdc_runtime_Error_print__E)
                  00843900    00000020     TRS_SYSBIOS_pe66.oe66 (.text:xdc_runtime_GateNull_enter__E)
                  00843920    00000020     ti.targets.rts6000.ae66 : GateNull.oe66 (.text:xdc_runtime_GateNull_enter__F)
                  00843940    00000020     TRS_SYSBIOS_pe66.oe66 (.text:xdc_runtime_GateNull_leave__E)
                  00843960    00000020     ti.targets.rts6000.ae66 : GateNull.oe66 (.text:xdc_runtime_GateNull_leave__F)
                  00843980    00000020     TRS_SYSBIOS_pe66.oe66 (.text:xdc_runtime_GateNull_query__E)
                  008439a0    00000020     ti.targets.rts6000.ae66 : GateNull.oe66 (.text:xdc_runtime_GateNull_query__F)
                  008439c0    00000020     TRS_SYSBIOS_pe66.oe66 (.text:xdc_runtime_Gate_enterSystem__E)
                  008439e0    00000020     ti.targets.rts6000.ae66 : Gate.oe66 (.text:xdc_runtime_Gate_enterSystem__F)
                  00843a00    00000020     TRS_SYSBIOS_pe66.oe66 (.text:xdc_runtime_Gate_leaveSystem__E)
                  00843a20    00000020     TRS_SYSBIOS_pe66.oe66 (.text:xdc_runtime_Memory_HeapProxy_alloc__E)
                  00843a40    00000020     TRS_SYSBIOS_pe66.oe66 (.text:xdc_runtime_Memory_HeapProxy_free__E)
                  00843a60    00000020     TRS_SYSBIOS_pe66.oe66 (.text:xdc_runtime_Memory_alloc__E)
                  00843a80    00000020     TRS_SYSBIOS_pe66.oe66 (.text:xdc_runtime_Memory_calloc__E)
                  00843aa0    00000020     TRS_SYSBIOS_pe66.oe66 (.text:xdc_runtime_Memory_free__E)
                  00843ac0    00000020     TRS_SYSBIOS_pe66.oe66 (.text:xdc_runtime_Memory_getMaxDefaultTypeAlign__E)
                  00843ae0    00000020     ti.targets.rts6000.ae66 : Memory.oe66 (.text:xdc_runtime_Memory_getMaxDefaultTypeAlign__F)
                  00843b00    00000020     TRS_SYSBIOS_pe66.oe66 (.text:xdc_runtime_Registry_findById__E)
                  00843b20    00000020     TRS_SYSBIOS_pe66.oe66 (.text:xdc_runtime_Startup_Module__startupDone__S)
                  00843b40    00000020     TRS_SYSBIOS_pe66.oe66 (.text:xdc_runtime_Startup_exec__E)
                  00843b60    00000020     TRS_SYSBIOS_pe66.oe66 (.text:xdc_runtime_Startup_reset__I)
                  00843b80    00000020     TRS_SYSBIOS_pe66.oe66 (.text:xdc_runtime_SysMin_Module_startup__E)
                  00843ba0    00000020     TRS_SYSBIOS_pe66.oe66 (.text:xdc_runtime_SysMin_abort__E)
                  00843bc0    00000020     TRS_SYSBIOS_pe66.oe66 (.text:xdc_runtime_SysMin_exit__E)
                  00843be0    00000020     TRS_SYSBIOS_pe66.oe66 (.text:xdc_runtime_SysMin_flush__E)
                  00843c00    00000020     TRS_SYSBIOS_pe66.oe66 (.text:xdc_runtime_SysMin_putch__E)
                  00843c20    00000020     TRS_SYSBIOS_pe66.oe66 (.text:xdc_runtime_SysMin_ready__E)
                  00843c40    00000020     ti.targets.rts6000.ae66 : SysMin.oe66 (.text:xdc_runtime_SysMin_ready__F)
                  00843c60    00000020     TRS_SYSBIOS_pe66.oe66 (.text:xdc_runtime_System_Module_GateProxy_enter__E)
                  00843c80    00000020     TRS_SYSBIOS_pe66.oe66 (.text:xdc_runtime_System_Module_GateProxy_leave__E)
                  00843ca0    00000020     TRS_SYSBIOS_pe66.oe66 (.text:xdc_runtime_System_Module_startup__E)
                  00843cc0    00000020     ti.targets.rts6000.ae66 : System.oe66 (.text:xdc_runtime_System_Module_startup__F)
                  00843ce0    00000020     TRS_SYSBIOS_pe66.oe66 (.text:xdc_runtime_System_SupportProxy_abort__E)
                  00843d00    00000020     TRS_SYSBIOS_pe66.oe66 (.text:xdc_runtime_System_SupportProxy_exit__E)
                  00843d20    00000020     TRS_SYSBIOS_pe66.oe66 (.text:xdc_runtime_System_SupportProxy_flush__E)
                  00843d40    00000020     TRS_SYSBIOS_pe66.oe66 (.text:xdc_runtime_System_SupportProxy_putch__E)
                  00843d60    00000020     TRS_SYSBIOS_pe66.oe66 (.text:xdc_runtime_System_SupportProxy_ready__E)
                  00843d80    00000020     TRS_SYSBIOS_pe66.oe66 (.text:xdc_runtime_System_abort__E)
                  00843da0    00000020     TRS_SYSBIOS_pe66.oe66 (.text:xdc_runtime_System_atexit__E)
                  00843dc0    00000020     TRS_SYSBIOS_pe66.oe66 (.text:xdc_runtime_System_exit__E)
                  00843de0    00000020     ti.targets.rts6000.ae66 : System.oe66 (.text:xdc_runtime_System_exit__F)
                  00843e00    00000020     TRS_SYSBIOS_pe66.oe66 (.text:xdc_runtime_System_flush__E)
                  00843e20    00000020     ti.targets.rts6000.ae66 : System.oe66 (.text:xdc_runtime_System_lastFxn__I)
                  00843e40    00000020     TRS_SYSBIOS_pe66.oe66 (.text:xdc_runtime_System_vsnprintf__E)
                  00843e60    00000020     ti.targets.rts6000.ae66 : System.oe66 (.text:xdc_runtime_System_vsnprintf__F)
                  00843e80    00000020     TRS_SYSBIOS_pe66.oe66 (.text:xdc_runtime_Text_cordText__E)
                  00843ea0    00000020     TRS_SYSBIOS_pe66.oe66 (.text:xdc_runtime_Text_putLab__E)
                  00843ec0    00000020     TRS_SYSBIOS_pe66.oe66 (.text:xdc_runtime_Text_putSite__E)
                  00843ee0    00000020     TRS_SYSBIOS_pe66.oe66 (.text:xdc_runtime_Text_ropeText__E)
                  00843f00    00000020     TRS_SYSBIOS_pe66.oe66 (.text:xdc_runtime_knl_GateThread_Module__startupDone__S)
                  00843f20    00000020     TRS_SYSBIOS_pe66.oe66 (.text:xdc_runtime_knl_GateThread_Proxy_Object__delete__S)
                  00843f40    00000020     TRS_SYSBIOS_pe66.oe66 (.text:xdc_runtime_knl_GateThread_Proxy_enter__E)
                  00843f60    00000020     TRS_SYSBIOS_pe66.oe66 (.text:xdc_runtime_knl_GateThread_Proxy_leave__E)
                  00843f80    00000020     TRS_SYSBIOS_pe66.oe66 (.text:xdc_runtime_knl_GateThread_Proxy_query__E)
                  00843fa0    00000020     TRS_SYSBIOS_pe66.oe66 (.text:xdc_runtime_knl_GateThread_enter__E)
                  00843fc0    00000020     ti.targets.rts6000.ae66 : GateThread.oe66 (.text:xdc_runtime_knl_GateThread_enter__F)
                  00843fe0    00000020     TRS_SYSBIOS_pe66.oe66 (.text:xdc_runtime_knl_GateThread_leave__E)
                  00844000    00000020     ti.targets.rts6000.ae66 : GateThread.oe66 (.text:xdc_runtime_knl_GateThread_leave__F)
                  00844020    00000020     TRS_SYSBIOS_pe66.oe66 (.text:xdc_runtime_knl_GateThread_query__E)
                  00844040    00000010     Platformlib.lib : phy.obj ($Tramp$S$$Check_for_phy_status)
                  00844050    00000010                     : phy.obj ($Tramp$S$$phy_read_write)

.const     0    00844060    0000cb22     
                  00844060    00002bdf     TRS_SYSBIOS_pe66.oe66 (.const:xdc_runtime_Text_charTab__A)
                  00846c3f    00000001     --HOLE-- [fill = 0]
                  00846c40    00001dc8     Platformlib.lib : classify1_bin.obj (.const:c1)
                  00848a08    000018ac                     : pam_bin.obj (.const:m)
                  0084a2b4    00000004     ti.targets.rts6000.ae66 : Assert.oe66 (.const:.string)
                  0084a2b8    0000118c     Platformlib.lib : classify2_bin.obj (.const:c2)
                  0084b444    000008a0                     : pa_mgmt.obj (.const:.string)
                  0084bce4    0000064c                     : cppi_qmss_mgmt.obj (.const:.string)
                  0084c330    00000630                     : cppi_qmss_mgmt.obj (.const:acc48_le)
                  0084c960    00000538     CmdIfMgr.lib : CmdRouter.obj (.const:.string)
                  0084ce98    00000518     sysbios.ae66 : BIOS.obj (.const:.string)
                  0084d3b0    000004d9     ti.drv.srio.ae66 : srio_drv.oe66 (.const:.string)
                  0084d889    00000001     --HOLE-- [fill = 0]
                  0084d88a    00000002     TRS_SYSBIOS_pe66.oe66 (.const:ti_sdo_ipc_GateMP_Module__id__C)
                  0084d88c    00000004     ModMgr.obj (.const)
                  0084d890    00000400     TRS_SYSBIOS_pe66.oe66 (.const:ti_sysbios_family_c66_Cache_marvalues__C)
                  0084dc90    000002c8     Platformlib.lib : flash.obj (.const:.string)
                  0084df58    00000224     CmdIfMgr.lib : CmdIf.obj (.const:.string)
                  0084e17c    00000220     ethernet_log.obj (.const:.string)
                  0084e39c    000001a8     GenUtil.lib : IIPC.obj (.const:.string)
                  0084e544    00000004     TRS_SYSBIOS_pe66.oe66 (.const:ti_sdo_ipc_GateMP_A_invalidClose__C)
                  0084e548    00000184     TRS_SYSBIOS_pe66.oe66 (.const:xdc_runtime_Text_nodeTab__A)
                  0084e6cc    00000164     DataIf.lib : DDCRx.obj (.const:.string)
                  0084e830    00000160     Platformlib.lib : Ethernet_config.obj (.const:.string)
                  0084e990    00000158     ModMgr.obj (.const:.string)
                  0084eae8    00000140     statmgr.obj (.const:.string)
                  0084ec28    00000140     TRS_SYSBIOS_pe66.oe66 (.const:ti_sysbios_family_c66_tci66xx_CpIntc_sysIntToHostInt__A)
                  0084ed68    00000130     Platformlib.lib : Srio.obj (.const:.string)
                  0084ee98    00000110                     : spi.obj (.const:.string)
                  0084efa8    00000101     rts6600_elf.lib : ctype.obj (.const:.string:_ctypes_)
                  0084f0a9    00000001     --HOLE-- [fill = 0]
                  0084f0aa    00000002     TRS_SYSBIOS_pe66.oe66 (.const:ti_sdo_ipc_GateMP_Module__loggerDefined__C)
                  0084f0ac    000000dc     TRS_SYSBIOS_pe66.oe66 (.const:.string)
                  0084f188    000000d4     Platformlib.lib : pa_mgmt.obj (.const)
                  0084f25c    000000d0     DataIf.lib : DspToIpu.obj (.const:.string)
                  0084f32c    000000b0     Platformlib.lib : Srio_devconfig.obj (.const:.string)
                  0084f3dc    00000090     Platformlib_sub.lib : Timer.obj (.const)
                  0084f46c    00000088     Platformlib.lib : cpsw_mgmt.obj (.const:.string)
                  0084f4f4    00000084     Timestamp.obj (.const:.string)
                  0084f578    0000006c     Platformlib.lib : phy.obj (.const:.string)
                  0084f5e4    00000004     TRS_SYSBIOS_pe66.oe66 (.const:ti_sdo_ipc_GateMP_A_invalidDelete__C)
                  0084f5e8    00000060     ti.drv.pa.ae66 : pa.oe66 (.const:pap_pdsp_const_reg_map)
                  0084f648    00000058     ti.targets.rts6000.ae66 : Error.oe66 (.const:.string)
                  0084f6a0    0000004c     GenUtil.lib : HashTbl.obj (.const:.string)
                  0084f6ec    00000004     TRS_SYSBIOS_pe66.oe66 (.const:ti_sdo_ipc_GateMP_E_gateUnavailable__C)
                  0084f6f0    00000044     TRS_SYSBIOS_pe66.oe66 (.const:xdc_runtime_Startup_sfxnTab__A)
                  0084f734    00000040     ti.targets.rts6000.ae66 : Text.oe66 (.const:.string)
                  0084f774    0000003c     GenUtil.lib : Task.obj (.const:.string)
                  0084f7b0    0000003c     TRS_SYSBIOS_pe66.oe66 (.const:ti_sysbios_knl_Task_Object__PARAMS__C)
                  0084f7ec    00000038     GsmUtil.lib : GSMTime.obj (.const:.string)
                  0084f824    00000038     TRS_SYSBIOS_pe66.oe66 (.const:ti_sdo_ipc_heaps_HeapBufMP_Object__PARAMS__C)
                  0084f85c    00000038     TRS_SYSBIOS_pe66.oe66 (.const:ti_sdo_ipc_notifyDrivers_NotifyDriverShm_Module__FXNS__C)
                  0084f894    00000034     TRS_SYSBIOS_pe66.oe66 (.const:ti_sdo_ipc_GateMP_Object__PARAMS__C)
                  0084f8c8    00000034     TRS_SYSBIOS_pe66.oe66 (.const:ti_sdo_ipc_notifyDrivers_NotifyDriverShm_Object__PARAMS__C)
                  0084f8fc    00000030     DataIf.lib : QueDeque.obj (.const:.string)
                  0084f92c    00000030     Platformlib.lib : singlecore_osal.obj (.const:.string)
                  0084f95c    00000030     TRS_SYSBIOS_pe66.oe66 (.const:ti_sdo_ipc_heaps_HeapMemMP_Object__PARAMS__C)
                  0084f98c    00000030     TRS_SYSBIOS_pe66.oe66 (.const:ti_sysbios_family_c64p_Hwi_Object__PARAMS__C)
                  0084f9bc    0000002c     ti.targets.rts6000.ae66 : Startup.oe66 (.const:.string)
                  0084f9e8    0000002c     TRS_SYSBIOS_pe66.oe66 (.const:ti_sdo_ipc_ListMP_Object__PARAMS__C)
                  0084fa14    0000002c     TRS_SYSBIOS_pe66.oe66 (.const:ti_sdo_ipc_gates_GateHWSem_Module__FXNS__C)
                  0084fa40    0000002c     TRS_SYSBIOS_pe66.oe66 (.const:ti_sdo_ipc_gates_GateMPSupportNull_Module__FXNS__C)
                  0084fa6c    0000002c     TRS_SYSBIOS_pe66.oe66 (.const:ti_sdo_ipc_gates_GatePeterson_Module__FXNS__C)
                  0084fa98    0000002c     TRS_SYSBIOS_pe66.oe66 (.const:ti_sysbios_hal_Hwi_Object__PARAMS__C)
                  0084fac4    00000028     TRS_SYSBIOS_pe66.oe66 (.const:ti_sdo_ipc_heaps_HeapBufMP_Module__FXNS__C)
                  0084faec    00000028     TRS_SYSBIOS_pe66.oe66 (.const:ti_sdo_ipc_heaps_HeapMemMP_Module__FXNS__C)
                  0084fb14    00000028     TRS_SYSBIOS_pe66.oe66 (.const:ti_sdo_ipc_nsremote_NameServerRemoteNotify_Module__FXNS__C)
                  0084fb3c    00000028     TRS_SYSBIOS_pe66.oe66 (.const:ti_sdo_ipc_transports_TransportShmCirc_Module__FXNS__C)
                  0084fb64    00000028     TRS_SYSBIOS_pe66.oe66 (.const:ti_sysbios_heaps_HeapMem_Module__FXNS__C)
                  0084fb8c    00000028     TRS_SYSBIOS_pe66.oe66 (.const:ti_sysbios_knl_Swi_Object__PARAMS__C)
                  0084fbb4    00000024     ipc.ae66 : Ipc.obj (.const:.string)
                  0084fbd8    00000024     TRS_SYSBIOS_pe66.oe66 (.const:ti_sdo_ipc_gates_GateHWSem_Object__PARAMS__C)
                  0084fbfc    00000024     TRS_SYSBIOS_pe66.oe66 (.const:ti_sdo_ipc_gates_GateMPSupportNull_Object__PARAMS__C)
                  0084fc20    00000024     TRS_SYSBIOS_pe66.oe66 (.const:ti_sdo_ipc_gates_GatePeterson_Object__PARAMS__C)
                  0084fc44    00000024     TRS_SYSBIOS_pe66.oe66 (.const:ti_sysbios_gates_GateAll_Module__FXNS__C)
                  0084fc68    00000024     TRS_SYSBIOS_pe66.oe66 (.const:ti_sysbios_gates_GateHwi_Module__FXNS__C)
                  0084fc8c    00000024     TRS_SYSBIOS_pe66.oe66 (.const:ti_sysbios_gates_GateMutexPri_Module__FXNS__C)
                  0084fcb0    00000024     TRS_SYSBIOS_pe66.oe66 (.const:ti_sysbios_gates_GateMutex_Module__FXNS__C)
                  0084fcd4    00000024     TRS_SYSBIOS_pe66.oe66 (.const:ti_sysbios_gates_GateSwi_Module__FXNS__C)
                  0084fcf8    00000024     TRS_SYSBIOS_pe66.oe66 (.const:ti_sysbios_heaps_HeapMem_Object__PARAMS__C)
                  0084fd1c    00000024     TRS_SYSBIOS_pe66.oe66 (.const:ti_sysbios_knl_Semaphore_Object__PARAMS__C)
                  0084fd40    00000024     TRS_SYSBIOS_pe66.oe66 (.const:ti_sysbios_syncs_SyncSem_Module__FXNS__C)
                  0084fd64    00000024     TRS_SYSBIOS_pe66.oe66 (.const:xdc_runtime_GateNull_Module__FXNS__C)
                  0084fd88    00000024     TRS_SYSBIOS_pe66.oe66 (.const:xdc_runtime_knl_GateThread_Module__FXNS__C)
                  0084fdac    00000023     rts6600_elf.lib : _printfi.obj (.const:.string)
                  0084fdcf    00000001     --HOLE-- [fill = 0]
                  0084fdd0    00000022     TRS_SYSBIOS_pe66.oe66 (.const:xdc_runtime_Startup_sfxnRts__A)
                  0084fdf2    00000002     TRS_SYSBIOS_pe66.oe66 (.const:ti_sdo_ipc_Ipc_Module__id__C)
                  0084fdf4    00000020     TRS_SYSBIOS_pe66.oe66 (.const:ti_sdo_ipc_GateMP_Object__DESC__C)
                  0084fe14    00000020     TRS_SYSBIOS_pe66.oe66 (.const:ti_sdo_ipc_ListMP_Object__DESC__C)
                  0084fe34    00000020     TRS_SYSBIOS_pe66.oe66 (.const:ti_sdo_ipc_MessageQ_Object__DESC__C)
                  0084fe54    00000020     TRS_SYSBIOS_pe66.oe66 (.const:ti_sdo_ipc_MessageQ_Object__PARAMS__C)
                  0084fe74    00000020     TRS_SYSBIOS_pe66.oe66 (.const:ti_sdo_ipc_Notify_Object__DESC__C)
                  0084fe94    00000020     TRS_SYSBIOS_pe66.oe66 (.const:ti_sdo_ipc_gates_GateHWSem_Object__DESC__C)
                  0084feb4    00000020     TRS_SYSBIOS_pe66.oe66 (.const:ti_sdo_ipc_gates_GateMPSupportNull_Object__DESC__C)
                  0084fed4    00000020     TRS_SYSBIOS_pe66.oe66 (.const:ti_sdo_ipc_gates_GatePeterson_Object__DESC__C)
                  0084fef4    00000020     TRS_SYSBIOS_pe66.oe66 (.const:ti_sdo_ipc_heaps_HeapBufMP_Object__DESC__C)
                  0084ff14    00000020     TRS_SYSBIOS_pe66.oe66 (.const:ti_sdo_ipc_heaps_HeapMemMP_Object__DESC__C)
                  0084ff34    00000020     TRS_SYSBIOS_pe66.oe66 (.const:ti_sdo_ipc_notifyDrivers_NotifyDriverShm_Object__DESC__C)
                  0084ff54    00000020     TRS_SYSBIOS_pe66.oe66 (.const:ti_sdo_ipc_nsremote_NameServerRemoteNotify_Object__DESC__C)
                  0084ff74    00000020     TRS_SYSBIOS_pe66.oe66 (.const:ti_sdo_ipc_nsremote_NameServerRemoteNotify_Object__PARAMS__C)
                  0084ff94    00000020     TRS_SYSBIOS_pe66.oe66 (.const:ti_sdo_ipc_transports_TransportShmCirc_Object__DESC__C)
                  0084ffb4    00000020     TRS_SYSBIOS_pe66.oe66 (.const:ti_sdo_ipc_transports_TransportShmCirc_Object__PARAMS__C)
                  0084ffd4    00000020     TRS_SYSBIOS_pe66.oe66 (.const:ti_sdo_utils_List_Object__DESC__C)
                  0084fff4    00000020     TRS_SYSBIOS_pe66.oe66 (.const:ti_sysbios_family_c64p_Hwi_Object__DESC__C)
                  00850014    00000004     TRS_SYSBIOS_pe66.oe66 (.const:ti_sdo_ipc_GateMP_E_localGate__C)
                  00850018    00000020     TRS_SYSBIOS_pe66.oe66 (.const:ti_sysbios_family_c66_tci66xx_CpIntc_hostIntToEventId__A)
                  00850038    00000020     TRS_SYSBIOS_pe66.oe66 (.const:ti_sysbios_gates_GateAll_Object__DESC__C)
                  00850058    00000020     TRS_SYSBIOS_pe66.oe66 (.const:ti_sysbios_gates_GateHwi_Object__DESC__C)
                  00850078    00000020     TRS_SYSBIOS_pe66.oe66 (.const:ti_sysbios_gates_GateMutexPri_Object__DESC__C)
                  00850098    00000020     TRS_SYSBIOS_pe66.oe66 (.const:ti_sysbios_gates_GateMutex_Object__DESC__C)
                  008500b8    00000020     TRS_SYSBIOS_pe66.oe66 (.const:ti_sysbios_gates_GateSwi_Object__DESC__C)
                  008500d8    00000020     TRS_SYSBIOS_pe66.oe66 (.const:ti_sysbios_hal_Hwi_Object__DESC__C)
                  008500f8    00000020     TRS_SYSBIOS_pe66.oe66 (.const:ti_sysbios_heaps_HeapMem_Object__DESC__C)
                  00850118    00000020     TRS_SYSBIOS_pe66.oe66 (.const:ti_sysbios_knl_Event_Object__DESC__C)
                  00850138    00000020     TRS_SYSBIOS_pe66.oe66 (.const:ti_sysbios_knl_Queue_Object__DESC__C)
                  00850158    00000020     TRS_SYSBIOS_pe66.oe66 (.const:ti_sysbios_knl_Semaphore_Object__DESC__C)
                  00850178    00000020     TRS_SYSBIOS_pe66.oe66 (.const:ti_sysbios_knl_Swi_Object__DESC__C)
                  00850198    00000020     TRS_SYSBIOS_pe66.oe66 (.const:ti_sysbios_knl_Task_Object__DESC__C)
                  008501b8    00000020     TRS_SYSBIOS_pe66.oe66 (.const:ti_sysbios_syncs_SyncSem_Object__DESC__C)
                  008501d8    00000020     TRS_SYSBIOS_pe66.oe66 (.const:ti_sysbios_xdcruntime_GateThreadSupport_Object__DESC__C)
                  008501f8    00000020     TRS_SYSBIOS_pe66.oe66 (.const:xdc_runtime_GateNull_Object__DESC__C)
                  00850218    00000020     TRS_SYSBIOS_pe66.oe66 (.const:xdc_runtime_knl_GateThread_Object__DESC__C)
                  00850238    0000001c     GenUtil.lib : FIFO.obj (.const:.string)
                  00850254    0000001c                 : SysTime.obj (.const:.string)
                  00850270    0000001c     TRS_SYSBIOS_pe66.oe66 (.const:ti_sysbios_syncs_SyncSem_Object__PARAMS__C)
                  0085028c    00000004     TRS_SYSBIOS_pe66.oe66 (.const:ti_sdo_ipc_GateMP_LM_create__C)
                  00850290    00000019     TRS_SYSBIOS_pe66.oe66 (.const:ti_sysbios_family_c66_tci66xx_CpIntc_eventId__A)
                  008502a9    00000001     --HOLE-- [fill = 0]
                  008502aa    00000002     TRS_SYSBIOS_pe66.oe66 (.const:ti_sdo_ipc_Ipc_generateSlaveDataForHost__C)
                  008502ac    00000004     TRS_SYSBIOS_pe66.oe66 (.const:ti_sdo_ipc_GateMP_LM_delete__C)
                  008502b0    00000019     TRS_SYSBIOS_pe66.oe66 (.const:ti_sysbios_family_c66_tci66xx_CpIntc_hostIntToEventId_0__A)
                  008502c9    00000001     --HOLE-- [fill = 0]
                  008502ca    00000002     TRS_SYSBIOS_pe66.oe66 (.const:ti_sdo_ipc_ListMP_Module__id__C)
                  008502cc    00000004     TRS_SYSBIOS_pe66.oe66 (.const:ti_sdo_ipc_GateMP_LM_enter__C)
                  008502d0    00000019     TRS_SYSBIOS_pe66.oe66 (.const:ti_sysbios_family_c66_tci66xx_CpIntc_hostIntToEventId_1__A)
                  008502e9    00000001     --HOLE-- [fill = 0]
                  008502ea    00000002     TRS_SYSBIOS_pe66.oe66 (.const:ti_sdo_ipc_MessageQ_Module__id__C)
                  008502ec    00000004     TRS_SYSBIOS_pe66.oe66 (.const:ti_sdo_ipc_GateMP_LM_leave__C)
                  008502f0    00000019     TRS_SYSBIOS_pe66.oe66 (.const:ti_sysbios_family_c66_tci66xx_CpIntc_hostIntToEventId_2__A)
                  00850309    00000001     --HOLE-- [fill = 0]
                  0085030a    00000002     TRS_SYSBIOS_pe66.oe66 (.const:ti_sdo_ipc_MessageQ_Module__loggerDefined__C)
                  0085030c    00000004     TRS_SYSBIOS_pe66.oe66 (.const:ti_sdo_ipc_GateMP_LM_open__C)
                  00850310    00000019     TRS_SYSBIOS_pe66.oe66 (.const:ti_sysbios_family_c66_tci66xx_CpIntc_hostIntToEventId_3__A)
                  00850329    00000001     --HOLE-- [fill = 0]
                  0085032a    00000002     TRS_SYSBIOS_pe66.oe66 (.const:ti_sdo_ipc_Notify_Module__id__C)
                  0085032c    00000004     TRS_SYSBIOS_pe66.oe66 (.const:ti_sdo_ipc_GateMP_Module__diagsEnabled__C)
                  00850330    00000019     TRS_SYSBIOS_pe66.oe66 (.const:ti_sysbios_family_c66_tci66xx_CpIntc_hostIntToEventId_4__A)
                  00850349    00000001     --HOLE-- [fill = 0]
                  0085034a    00000002     TRS_SYSBIOS_pe66.oe66 (.const:ti_sdo_ipc_Notify_numLines__C)
                  0085034c    00000004     TRS_SYSBIOS_pe66.oe66 (.const:ti_sdo_ipc_GateMP_Module__diagsIncluded__C)
                  00850350    00000019     TRS_SYSBIOS_pe66.oe66 (.const:ti_sysbios_family_c66_tci66xx_CpIntc_hostIntToEventId_5__A)
                  00850369    00000001     --HOLE-- [fill = 0]
                  0085036a    00000002     TRS_SYSBIOS_pe66.oe66 (.const:ti_sdo_ipc_Notify_reservedEvents__C)
                  0085036c    00000004     TRS_SYSBIOS_pe66.oe66 (.const:ti_sdo_ipc_GateMP_Module__diagsMask__C)
                  00850370    00000019     TRS_SYSBIOS_pe66.oe66 (.const:ti_sysbios_family_c66_tci66xx_CpIntc_hostIntToEventId_6__A)
                  00850389    00000001     --HOLE-- [fill = 0]
                  0085038a    00000002     TRS_SYSBIOS_pe66.oe66 (.const:ti_sdo_ipc_SharedRegion_Module__id__C)
                  0085038c    00000004     TRS_SYSBIOS_pe66.oe66 (.const:ti_sdo_ipc_GateMP_Module__loggerFxn2__C)
                  00850390    00000019     TRS_SYSBIOS_pe66.oe66 (.const:ti_sysbios_family_c66_tci66xx_CpIntc_hostIntToEventId_7__A)
                  008503a9    00000001     --HOLE-- [fill = 0]
                  008503aa    00000002     TRS_SYSBIOS_pe66.oe66 (.const:ti_sdo_ipc_SharedRegion_numEntries__C)
                  008503ac    00000004     TRS_SYSBIOS_pe66.oe66 (.const:ti_sdo_ipc_GateMP_Module__loggerFxn4__C)
                  008503b0    00000018     Platformlib.lib : Srio_devconfig.obj (.const:$P$T0$1)
                  008503c8    00000018     EthBuff.obj (.const:.string)
                  008503e0    00000018     TRS_SYSBIOS_pe66.oe66 (.const:ti_sdo_ipc_Notify_Object__PARAMS__C)
                  008503f8    00000018     TRS_SYSBIOS_pe66.oe66 (.const:ti_sdo_utils_List_Object__PARAMS__C)
                  00850410    00000018     TRS_SYSBIOS_pe66.oe66 (.const:ti_sysbios_gates_GateAll_Object__PARAMS__C)
                  00850428    00000018     TRS_SYSBIOS_pe66.oe66 (.const:ti_sysbios_gates_GateHwi_Object__PARAMS__C)
                  00850440    00000018     TRS_SYSBIOS_pe66.oe66 (.const:ti_sysbios_gates_GateMutexPri_Object__PARAMS__C)
                  00850458    00000018     TRS_SYSBIOS_pe66.oe66 (.const:ti_sysbios_gates_GateMutex_Object__PARAMS__C)
                  00850470    00000018     TRS_SYSBIOS_pe66.oe66 (.const:ti_sysbios_gates_GateSwi_Object__PARAMS__C)
                  00850488    00000018     TRS_SYSBIOS_pe66.oe66 (.const:ti_sysbios_knl_Event_Object__PARAMS__C)
                  008504a0    00000018     TRS_SYSBIOS_pe66.oe66 (.const:ti_sysbios_knl_Queue_Object__PARAMS__C)
                  008504b8    00000018     TRS_SYSBIOS_pe66.oe66 (.const:ti_sysbios_knl_Task_hooks__A)
                  008504d0    00000018     TRS_SYSBIOS_pe66.oe66 (.const:ti_sysbios_xdcruntime_GateThreadSupport_Object__PARAMS__C)
                  008504e8    00000018     TRS_SYSBIOS_pe66.oe66 (.const:xdc_runtime_GateNull_Object__PARAMS__C)
                  00850500    00000018     TRS_SYSBIOS_pe66.oe66 (.const:xdc_runtime_knl_GateThread_Object__PARAMS__C)
                  00850518    00000008     Platformlib.lib : cppi_qmss_mgmt.obj (.const:$P$T0$1)
                  00850520    00000011     ti.targets.rts6000.ae66 : System.oe66 (.const:digtohex)
                  00850531    00000001     --HOLE-- [fill = 0]
                  00850532    00000002     TRS_SYSBIOS_pe66.oe66 (.const:ti_sdo_ipc_SharedRegion_translate__C)
                  00850534    00000004     TRS_SYSBIOS_pe66.oe66 (.const:ti_sdo_ipc_GateMP_Module__loggerObj__C)
                  00850538    00000010     ti.drv.pa.ae66 : painit.oe66 (.const:paMemAligns)
                  00850548    00000010     TRS_SYSBIOS_pe66.oe66 (.const:ti_sdo_ipc_family_c647x_MultiProcSetup_procMap__A)
                  00850558    00000010     TRS_SYSBIOS_pe66.oe66 (.const:ti_sdo_utils_MultiProc_procIdList__A)
                  00850568    0000000c     Platformlib.lib : cpsw_mgmt.obj (.const:$P$T0$1)
                  00850574    0000000c     TRS_SYSBIOS_pe66.oe66 (.const:ti_sysbios_family_c66_Cache_initSize__C)
                  00850580    00000008     Platformlib.lib : pa_mgmt.obj (.const:$P$T11$12)
                  00850588    00000008                     : pa_mgmt.obj (.const:$P$T4$5)
                  00850590    00000008                     : pa_mgmt.obj (.const:$P$T9$10)
                  00850598    00000008     ti.targets.rts6000.ae66 : System.oe66 (.const:.string)
                  008505a0    00000008     TRS_SYSBIOS_pe66.oe66 (.const:ti_sysbios_knl_Idle_coreList__C)
                  008505a8    00000008     TRS_SYSBIOS_pe66.oe66 (.const:ti_sysbios_knl_Idle_funcList__C)
                  008505b0    00000008     TRS_SYSBIOS_pe66.oe66 (.const:ti_sysbios_knl_Task_hooks__C)
                  008505b8    00000008     TRS_SYSBIOS_pe66.oe66 (.const:xdc_runtime_Startup_firstFxns__A)
                  008505c0    00000008     TRS_SYSBIOS_pe66.oe66 (.const:xdc_runtime_Startup_firstFxns__C)
                  008505c8    00000008     TRS_SYSBIOS_pe66.oe66 (.const:xdc_runtime_Startup_lastFxns__C)
                  008505d0    00000006     Platformlib.lib : cpsw_mgmt.obj (.const:.string:$P$T1$2)
                  008505d6    00000002     TRS_SYSBIOS_pe66.oe66 (.const:ti_sdo_ipc_family_c647x_Interrupt_enableKick__C)
                  008505d8    00000006     Platformlib.lib : cpsw_mgmt.obj (.const:.string:$P$T2$3)
                  008505de    00000002     TRS_SYSBIOS_pe66.oe66 (.const:ti_sdo_ipc_gates_GateHWSem_Module__id__C)
                  008505e0    00000006     Platformlib.lib : cpsw_mgmt.obj (.const:.string:$P$T3$4)
                  008505e6    00000002     TRS_SYSBIOS_pe66.oe66 (.const:ti_sdo_ipc_gates_GateMPSupportNull_Module__id__C)
                  008505e8    00000004     TRS_SYSBIOS_pe66.oe66 (.const:ti_sdo_ipc_Ipc_A_addrNotCacheAligned__C)
                  008505ec    00000004     TRS_SYSBIOS_pe66.oe66 (.const:ti_sdo_ipc_Ipc_A_addrNotInSharedRegion__C)
                  008505f0    00000004     TRS_SYSBIOS_pe66.oe66 (.const:ti_sdo_ipc_Ipc_A_internal__C)
                  008505f4    00000004     TRS_SYSBIOS_pe66.oe66 (.const:ti_sdo_ipc_Ipc_A_invArgument__C)
                  008505f8    00000004     TRS_SYSBIOS_pe66.oe66 (.const:ti_sdo_ipc_Ipc_A_invParam__C)
                  008505fc    00000004     TRS_SYSBIOS_pe66.oe66 (.const:ti_sdo_ipc_Ipc_A_nullArgument__C)
                  00850600    00000004     TRS_SYSBIOS_pe66.oe66 (.const:ti_sdo_ipc_Ipc_A_nullPointer__C)
                  00850604    00000004     TRS_SYSBIOS_pe66.oe66 (.const:ti_sdo_ipc_Ipc_E_internal__C)
                  00850608    00000004     TRS_SYSBIOS_pe66.oe66 (.const:ti_sdo_ipc_Ipc_E_nameFailed__C)
                  0085060c    00000004     TRS_SYSBIOS_pe66.oe66 (.const:ti_sdo_ipc_Ipc_E_versionMismatch__C)
                  00850610    00000004     TRS_SYSBIOS_pe66.oe66 (.const:ti_sdo_ipc_Ipc_Module__diagsEnabled__C)
                  00850614    00000004     TRS_SYSBIOS_pe66.oe66 (.const:ti_sdo_ipc_Ipc_Module__diagsIncluded__C)
                  00850618    00000004     TRS_SYSBIOS_pe66.oe66 (.const:ti_sdo_ipc_Ipc_Module__diagsMask__C)
                  0085061c    00000004     TRS_SYSBIOS_pe66.oe66 (.const:ti_sdo_ipc_Ipc_numUserFxns__C)
                  00850620    00000004     TRS_SYSBIOS_pe66.oe66 (.const:ti_sdo_ipc_Ipc_procSync__C)
                  00850624    00000004     TRS_SYSBIOS_pe66.oe66 (.const:ti_sdo_ipc_Ipc_userFxns__C)
                  00850628    00000004     TRS_SYSBIOS_pe66.oe66 (.const:ti_sdo_ipc_ListMP_Module__diagsEnabled__C)
                  0085062c    00000004     TRS_SYSBIOS_pe66.oe66 (.const:ti_sdo_ipc_ListMP_Module__diagsIncluded__C)
                  00850630    00000004     TRS_SYSBIOS_pe66.oe66 (.const:ti_sdo_ipc_ListMP_Module__diagsMask__C)
                  00850634    00000004     TRS_SYSBIOS_pe66.oe66 (.const:ti_sdo_ipc_MessageQ_A_cannotFreeStaticMsg__C)
                  00850638    00000004     TRS_SYSBIOS_pe66.oe66 (.const:ti_sdo_ipc_MessageQ_A_heapIdInvalid__C)
                  0085063c    00000004     TRS_SYSBIOS_pe66.oe66 (.const:ti_sdo_ipc_MessageQ_A_invalidMsg__C)
                  00850640    00000004     TRS_SYSBIOS_pe66.oe66 (.const:ti_sdo_ipc_MessageQ_A_invalidObj__C)
                  00850644    00000004     TRS_SYSBIOS_pe66.oe66 (.const:ti_sdo_ipc_MessageQ_A_invalidParam__C)
                  00850648    00000004     TRS_SYSBIOS_pe66.oe66 (.const:ti_sdo_ipc_MessageQ_A_invalidQueueId__C)
                  0085064c    00000004     TRS_SYSBIOS_pe66.oe66 (.const:ti_sdo_ipc_MessageQ_A_procIdInvalid__C)
                  00850650    00000004     TRS_SYSBIOS_pe66.oe66 (.const:ti_sdo_ipc_MessageQ_A_unregisteredTransport__C)
                  00850654    00000004     TRS_SYSBIOS_pe66.oe66 (.const:ti_sdo_ipc_MessageQ_E_indexNotAvailable__C)
                  00850658    00000004     TRS_SYSBIOS_pe66.oe66 (.const:ti_sdo_ipc_MessageQ_E_maxReached__C)
                  0085065c    00000004     TRS_SYSBIOS_pe66.oe66 (.const:ti_sdo_ipc_MessageQ_E_nameFailed__C)
                  00850660    00000004     TRS_SYSBIOS_pe66.oe66 (.const:ti_sdo_ipc_MessageQ_Instance_State_highList__O)
                  00850664    00000004     TRS_SYSBIOS_pe66.oe66 (.const:ti_sdo_ipc_MessageQ_Instance_State_normalList__O)
                  00850668    00000004     TRS_SYSBIOS_pe66.oe66 (.const:ti_sdo_ipc_MessageQ_LM_free__C)
                  0085066c    00000004     TRS_SYSBIOS_pe66.oe66 (.const:ti_sdo_ipc_MessageQ_LM_get__C)
                  00850670    00000004     TRS_SYSBIOS_pe66.oe66 (.const:ti_sdo_ipc_MessageQ_LM_putLocal__C)
                  00850674    00000004     TRS_SYSBIOS_pe66.oe66 (.const:ti_sdo_ipc_MessageQ_Module__diagsEnabled__C)
                  00850678    00000004     TRS_SYSBIOS_pe66.oe66 (.const:ti_sdo_ipc_MessageQ_Module__diagsIncluded__C)
                  0085067c    00000004     TRS_SYSBIOS_pe66.oe66 (.const:ti_sdo_ipc_MessageQ_Module__diagsMask__C)
                  00850680    00000004     TRS_SYSBIOS_pe66.oe66 (.const:ti_sdo_ipc_MessageQ_Module__loggerFxn4__C)
                  00850684    00000004     TRS_SYSBIOS_pe66.oe66 (.const:ti_sdo_ipc_MessageQ_Module__loggerObj__C)
                  00850688    00000004     TRS_SYSBIOS_pe66.oe66 (.const:ti_sdo_ipc_MessageQ_Object__count__C)
                  0085068c    00000004     TRS_SYSBIOS_pe66.oe66 (.const:ti_sdo_ipc_MessageQ_Object__heap__C)
                  00850690    00000004     TRS_SYSBIOS_pe66.oe66 (.const:ti_sdo_ipc_MessageQ_Object__table__C)
                  00850694    00000004     TRS_SYSBIOS_pe66.oe66 (.const:ti_sdo_ipc_MessageQ_maxRuntimeEntries__C)
                  00850698    00000004     TRS_SYSBIOS_pe66.oe66 (.const:ti_sdo_ipc_MessageQ_numReservedEntries__C)
                  0085069c    00000004     TRS_SYSBIOS_pe66.oe66 (.const:ti_sdo_ipc_Notify_A_alreadyRegistered__C)
                  008506a0    00000004     TRS_SYSBIOS_pe66.oe66 (.const:ti_sdo_ipc_Notify_A_internal__C)
                  008506a4    00000004     TRS_SYSBIOS_pe66.oe66 (.const:ti_sdo_ipc_Notify_A_invArgument__C)
                  008506a8    00000004     TRS_SYSBIOS_pe66.oe66 (.const:ti_sdo_ipc_Notify_A_notRegistered__C)
                  008506ac    00000004     TRS_SYSBIOS_pe66.oe66 (.const:ti_sdo_ipc_Notify_A_reservedEvent__C)
                  008506b0    00000004     TRS_SYSBIOS_pe66.oe66 (.const:ti_sdo_ipc_Notify_Module__diagsEnabled__C)
                  008506b4    00000004     TRS_SYSBIOS_pe66.oe66 (.const:ti_sdo_ipc_Notify_Module__diagsIncluded__C)
                  008506b8    00000004     TRS_SYSBIOS_pe66.oe66 (.const:ti_sdo_ipc_Notify_Module__diagsMask__C)
                  008506bc    00000004     TRS_SYSBIOS_pe66.oe66 (.const:ti_sdo_ipc_Notify_Module__gateObj__C)
                  008506c0    00000004     TRS_SYSBIOS_pe66.oe66 (.const:ti_sdo_ipc_Notify_Object__heap__C)
                  008506c4    00000004     TRS_SYSBIOS_pe66.oe66 (.const:ti_sdo_ipc_Notify_numEvents__C)
                  008506c8    00000004     TRS_SYSBIOS_pe66.oe66 (.const:ti_sdo_ipc_Notify_sendEventPollCount__C)
                  008506cc    00000004     TRS_SYSBIOS_pe66.oe66 (.const:ti_sdo_ipc_SharedRegion_A_addrOutOfRange__C)
                  008506d0    00000004     TRS_SYSBIOS_pe66.oe66 (.const:ti_sdo_ipc_SharedRegion_A_idTooLarge__C)
                  008506d4    00000004     TRS_SYSBIOS_pe66.oe66 (.const:ti_sdo_ipc_SharedRegion_A_noHeap__C)
                  008506d8    00000004     TRS_SYSBIOS_pe66.oe66 (.const:ti_sdo_ipc_SharedRegion_A_region0Invalid__C)
                  008506dc    00000004     TRS_SYSBIOS_pe66.oe66 (.const:ti_sdo_ipc_SharedRegion_A_regionInvalid__C)
                  008506e0    00000004     TRS_SYSBIOS_pe66.oe66 (.const:ti_sdo_ipc_SharedRegion_A_reserveTooMuch__C)
                  008506e4    00000004     TRS_SYSBIOS_pe66.oe66 (.const:ti_sdo_ipc_SharedRegion_INVALIDSRPTR__C)
                  008506e8    00000004     TRS_SYSBIOS_pe66.oe66 (.const:ti_sdo_ipc_SharedRegion_Module__diagsEnabled__C)
                  008506ec    00000004     TRS_SYSBIOS_pe66.oe66 (.const:ti_sdo_ipc_SharedRegion_Module__diagsIncluded__C)
                  008506f0    00000004     TRS_SYSBIOS_pe66.oe66 (.const:ti_sdo_ipc_SharedRegion_Module__diagsMask__C)
                  008506f4    00000004     TRS_SYSBIOS_pe66.oe66 (.const:ti_sdo_ipc_SharedRegion_numOffsetBits__C)
                  008506f8    00000004     TRS_SYSBIOS_pe66.oe66 (.const:ti_sdo_ipc_SharedRegion_offsetMask__C)
                  008506fc    00000004     TRS_SYSBIOS_pe66.oe66 (.const:ti_sdo_ipc_family_c647x_Interrupt_INTERDSPINT__C)
                  00850700    00000004     TRS_SYSBIOS_pe66.oe66 (.const:ti_sdo_ipc_family_c647x_Interrupt_IPCAR0__C)
                  00850704    00000004     TRS_SYSBIOS_pe66.oe66 (.const:ti_sdo_ipc_family_c647x_Interrupt_IPCGR0__C)
                  00850708    00000004     TRS_SYSBIOS_pe66.oe66 (.const:ti_sdo_ipc_family_c647x_Interrupt_KICK0__C)
                  0085070c    00000004     TRS_SYSBIOS_pe66.oe66 (.const:ti_sdo_ipc_family_c647x_Interrupt_KICK1__C)
                  00850710    00000004     TRS_SYSBIOS_pe66.oe66 (.const:ti_sdo_ipc_family_c647x_MultiProcSetup_procMap__C)
                  00850714    00000004     TRS_SYSBIOS_pe66.oe66 (.const:ti_sdo_ipc_family_c647x_NotifySetup_dspIntVectId__C)
                  00850718    00000004     TRS_SYSBIOS_pe66.oe66 (.const:ti_sdo_ipc_gates_GateHWSem_A_invSemNum__C)
                  0085071c    00000004     TRS_SYSBIOS_pe66.oe66 (.const:ti_sdo_ipc_gates_GateHWSem_Module__diagsEnabled__C)
                  00850720    00000004     TRS_SYSBIOS_pe66.oe66 (.const:ti_sdo_ipc_gates_GateHWSem_Module__diagsIncluded__C)
                  00850724    00000004     TRS_SYSBIOS_pe66.oe66 (.const:ti_sdo_ipc_gates_GateHWSem_Module__diagsMask__C)
                  00850728    00000004     TRS_SYSBIOS_pe66.oe66 (.const:ti_sdo_ipc_gates_GateHWSem_baseAddr__C)
                  0085072c    00000004     TRS_SYSBIOS_pe66.oe66 (.const:ti_sdo_ipc_gates_GateHWSem_numSems__C)
                  00850730    00000004     TRS_SYSBIOS_pe66.oe66 (.const:ti_sdo_ipc_gates_GateHWSem_reservedMaskArr__A)
                  00850734    00000004     TRS_SYSBIOS_pe66.oe66 (.const:ti_sdo_ipc_gates_GateHWSem_reservedMaskArr__C)
                  00850738    00000004     TRS_SYSBIOS_pe66.oe66 (.const:ti_sdo_ipc_gates_GateMPSupportNull_A_invalidAction__C)
                  0085073c    00000004     TRS_SYSBIOS_pe66.oe66 (.const:ti_sdo_ipc_gates_GateMPSupportNull_Module__diagsEnabled__C)
                  00850740    00000004     TRS_SYSBIOS_pe66.oe66 (.const:ti_sdo_ipc_gates_GateMPSupportNull_Module__diagsIncluded__C)
                  00850744    00000004     TRS_SYSBIOS_pe66.oe66 (.const:ti_sdo_ipc_gates_GateMPSupportNull_Module__diagsMask__C)
                  00850748    00000004     TRS_SYSBIOS_pe66.oe66 (.const:ti_sdo_ipc_gates_GateMPSupportNull_action__C)
                  0085074c    00000004     TRS_SYSBIOS_pe66.oe66 (.const:ti_sdo_ipc_gates_GatePeterson_E_gateRemotelyOpened__C)
                  00850750    00000004     TRS_SYSBIOS_pe66.oe66 (.const:ti_sdo_ipc_gates_GatePeterson_Module__diagsEnabled__C)
                  00850754    00000004     TRS_SYSBIOS_pe66.oe66 (.const:ti_sdo_ipc_gates_GatePeterson_Module__diagsIncluded__C)
                  00850758    00000004     TRS_SYSBIOS_pe66.oe66 (.const:ti_sdo_ipc_gates_GatePeterson_Module__diagsMask__C)
                  0085075c    00000004     TRS_SYSBIOS_pe66.oe66 (.const:ti_sdo_ipc_gates_GatePeterson_numInstances__C)
                  00850760    00000004     TRS_SYSBIOS_pe66.oe66 (.const:ti_sdo_ipc_heaps_HeapBufMP_A_badAlignment__C)
                  00850764    00000004     TRS_SYSBIOS_pe66.oe66 (.const:ti_sdo_ipc_heaps_HeapBufMP_A_invBlockFreed__C)
                  00850768    00000004     TRS_SYSBIOS_pe66.oe66 (.const:ti_sdo_ipc_heaps_HeapBufMP_E_alignTooLarge__C)
                  0085076c    00000004     TRS_SYSBIOS_pe66.oe66 (.const:ti_sdo_ipc_heaps_HeapBufMP_E_exactFail__C)
                  00850770    00000004     TRS_SYSBIOS_pe66.oe66 (.const:ti_sdo_ipc_heaps_HeapBufMP_E_noBlocksLeft__C)
                  00850774    00000004     TRS_SYSBIOS_pe66.oe66 (.const:ti_sdo_ipc_heaps_HeapBufMP_E_sizeTooLarge__C)
                  00850778    00000004     TRS_SYSBIOS_pe66.oe66 (.const:ti_sdo_ipc_heaps_HeapBufMP_Module__diagsEnabled__C)
                  0085077c    00000004     TRS_SYSBIOS_pe66.oe66 (.const:ti_sdo_ipc_heaps_HeapBufMP_Module__diagsIncluded__C)
                  00850780    00000004     TRS_SYSBIOS_pe66.oe66 (.const:ti_sdo_ipc_heaps_HeapBufMP_Module__diagsMask__C)
                  00850784    00000004     TRS_SYSBIOS_pe66.oe66 (.const:ti_sdo_ipc_heaps_HeapMemMP_A_align__C)
                  00850788    00000004     TRS_SYSBIOS_pe66.oe66 (.const:ti_sdo_ipc_heaps_HeapMemMP_A_heapSize__C)
                  0085078c    00000004     TRS_SYSBIOS_pe66.oe66 (.const:ti_sdo_ipc_heaps_HeapMemMP_A_invalidFree__C)
                  00850790    00000004     TRS_SYSBIOS_pe66.oe66 (.const:ti_sdo_ipc_heaps_HeapMemMP_A_zeroBlock__C)
                  00850794    00000004     TRS_SYSBIOS_pe66.oe66 (.const:ti_sdo_ipc_heaps_HeapMemMP_E_memory__C)
                  00850798    00000004     TRS_SYSBIOS_pe66.oe66 (.const:ti_sdo_ipc_heaps_HeapMemMP_Module__diagsEnabled__C)
                  0085079c    00000004     TRS_SYSBIOS_pe66.oe66 (.const:ti_sdo_ipc_heaps_HeapMemMP_Module__diagsIncluded__C)
                  008507a0    00000004     TRS_SYSBIOS_pe66.oe66 (.const:ti_sdo_ipc_heaps_HeapMemMP_Module__diagsMask__C)
                  008507a4    00000004     TRS_SYSBIOS_pe66.oe66 (.const:ti_sdo_ipc_interfaces_IGateMPSupport_Interface__BASE__C)
                  008507a8    00000004     TRS_SYSBIOS_pe66.oe66 (.const:ti_sdo_ipc_interfaces_IMessageQTransport_Interface__BASE__C)
                  008507ac    00000004     TRS_SYSBIOS_pe66.oe66 (.const:ti_sdo_ipc_interfaces_INotifyDriver_Interface__BASE__C)
                  008507b0    00000004     TRS_SYSBIOS_pe66.oe66 (.const:ti_sdo_ipc_notifyDrivers_NotifyDriverShm_Module__diagsEnabled__C)
                  008507b4    00000004     TRS_SYSBIOS_pe66.oe66 (.const:ti_sdo_ipc_notifyDrivers_NotifyDriverShm_Module__diagsIncluded__C)
                  008507b8    00000004     TRS_SYSBIOS_pe66.oe66 (.const:ti_sdo_ipc_notifyDrivers_NotifyDriverShm_Module__diagsMask__C)
                  008507bc    00000004     TRS_SYSBIOS_pe66.oe66 (.const:ti_sdo_ipc_notifyDrivers_NotifyDriverShm_Object__heap__C)
                  008507c0    00000004     TRS_SYSBIOS_pe66.oe66 (.const:ti_sdo_ipc_nsremote_NameServerRemoteNotify_A_invalidValueLen__C)
                  008507c4    00000004     TRS_SYSBIOS_pe66.oe66 (.const:ti_sdo_ipc_nsremote_NameServerRemoteNotify_A_messageSize__C)
                  008507c8    00000004     TRS_SYSBIOS_pe66.oe66 (.const:ti_sdo_ipc_nsremote_NameServerRemoteNotify_Instance_State_semMultiBlock__O)
                  008507cc    00000004     TRS_SYSBIOS_pe66.oe66 (.const:ti_sdo_ipc_nsremote_NameServerRemoteNotify_Instance_State_semRemoteWait__O)
                  008507d0    00000004     TRS_SYSBIOS_pe66.oe66 (.const:ti_sdo_ipc_nsremote_NameServerRemoteNotify_Instance_State_swiRequest__O)
                  008507d4    00000004     TRS_SYSBIOS_pe66.oe66 (.const:ti_sdo_ipc_nsremote_NameServerRemoteNotify_Instance_State_swiResponse__O)
                  008507d8    00000004     TRS_SYSBIOS_pe66.oe66 (.const:ti_sdo_ipc_nsremote_NameServerRemoteNotify_Module__diagsEnabled__C)
                  008507dc    00000004     TRS_SYSBIOS_pe66.oe66 (.const:ti_sdo_ipc_nsremote_NameServerRemoteNotify_Module__diagsIncluded__C)
                  008507e0    00000004     TRS_SYSBIOS_pe66.oe66 (.const:ti_sdo_ipc_nsremote_NameServerRemoteNotify_Module__diagsMask__C)
                  008507e4    00000004     TRS_SYSBIOS_pe66.oe66 (.const:ti_sdo_ipc_nsremote_NameServerRemoteNotify_notifyEventId__C)
                  008507e8    00000004     TRS_SYSBIOS_pe66.oe66 (.const:ti_sdo_ipc_nsremote_NameServerRemoteNotify_timeout__C)
                  008507ec    00000004     TRS_SYSBIOS_pe66.oe66 (.const:ti_sdo_ipc_transports_TransportShmCircSetup_priority__C)
                  008507f0    00000004     TRS_SYSBIOS_pe66.oe66 (.const:ti_sdo_ipc_transports_TransportShmCirc_Instance_State_swiObj__O)
                  008507f4    00000004     TRS_SYSBIOS_pe66.oe66 (.const:ti_sdo_ipc_transports_TransportShmCirc_Module__diagsEnabled__C)
                  008507f8    00000004     TRS_SYSBIOS_pe66.oe66 (.const:ti_sdo_ipc_transports_TransportShmCirc_Module__diagsIncluded__C)
                  008507fc    00000004     TRS_SYSBIOS_pe66.oe66 (.const:ti_sdo_ipc_transports_TransportShmCirc_Module__diagsMask__C)
                  00850800    00000004     TRS_SYSBIOS_pe66.oe66 (.const:ti_sdo_ipc_transports_TransportShmCirc_maxIndex__C)
                  00850804    00000004     TRS_SYSBIOS_pe66.oe66 (.const:ti_sdo_ipc_transports_TransportShmCirc_modIndex__C)
                  00850808    00000004     TRS_SYSBIOS_pe66.oe66 (.const:ti_sdo_ipc_transports_TransportShmCirc_numMsgs__C)
                  0085080c    00000004     TRS_SYSBIOS_pe66.oe66 (.const:ti_sdo_utils_INameServerRemote_Interface__BASE__C)
                  00850810    00000004     TRS_SYSBIOS_pe66.oe66 (.const:ti_sdo_utils_List_Object__count__C)
                  00850814    00000004     TRS_SYSBIOS_pe66.oe66 (.const:ti_sdo_utils_List_Object__table__C)
                  00850818    00000004     TRS_SYSBIOS_pe66.oe66 (.const:ti_sdo_utils_MultiProc_A_invalidMultiProcId__C)
                  0085081c    00000004     TRS_SYSBIOS_pe66.oe66 (.const:ti_sdo_utils_MultiProc_procIdList__C)
                  00850820    00000004     TRS_SYSBIOS_pe66.oe66 (.const:ti_sdo_utils_NameServer_A_invArgument__C)
                  00850824    00000004     TRS_SYSBIOS_pe66.oe66 (.const:ti_sdo_utils_NameServer_A_invalidLen__C)
                  00850828    00000004     TRS_SYSBIOS_pe66.oe66 (.const:ti_sdo_utils_NameServer_E_entryExists__C)
                  0085082c    00000004     TRS_SYSBIOS_pe66.oe66 (.const:ti_sdo_utils_NameServer_E_maxReached__C)
                  00850830    00000004     TRS_SYSBIOS_pe66.oe66 (.const:ti_sdo_utils_NameServer_Instance_State_freeList__O)
                  00850834    00000004     TRS_SYSBIOS_pe66.oe66 (.const:ti_sdo_utils_NameServer_Instance_State_nameList__O)
                  00850838    00000004     TRS_SYSBIOS_pe66.oe66 (.const:ti_sdo_utils_NameServer_Module__diagsEnabled__C)
                  0085083c    00000004     TRS_SYSBIOS_pe66.oe66 (.const:ti_sdo_utils_NameServer_Module__diagsIncluded__C)
                  00850840    00000004     TRS_SYSBIOS_pe66.oe66 (.const:ti_sdo_utils_NameServer_Module__diagsMask__C)
                  00850844    00000004     TRS_SYSBIOS_pe66.oe66 (.const:ti_sdo_utils_NameServer_Object__count__C)
                  00850848    00000004     TRS_SYSBIOS_pe66.oe66 (.const:ti_sdo_utils_NameServer_Object__table__C)
                  0085084c    00000004     TRS_SYSBIOS_pe66.oe66 (.const:ti_sysbios_BIOS_Module__diagsEnabled__C)
                  00850850    00000004     TRS_SYSBIOS_pe66.oe66 (.const:ti_sysbios_BIOS_Module__diagsIncluded__C)
                  00850854    00000004     TRS_SYSBIOS_pe66.oe66 (.const:ti_sysbios_BIOS_Module__diagsMask__C)
                  00850858    00000004     TRS_SYSBIOS_pe66.oe66 (.const:ti_sysbios_BIOS_installedErrorHook__C)
                  0085085c    00000004     TRS_SYSBIOS_pe66.oe66 (.const:ti_sysbios_family_c62_TaskSupport_stackAlignment__C)
                  00850860    00000004     TRS_SYSBIOS_pe66.oe66 (.const:ti_sysbios_family_c64p_Exception_E_exceptionMax__C)
                  00850864    00000004     TRS_SYSBIOS_pe66.oe66 (.const:ti_sysbios_family_c64p_Exception_exceptionHook__C)
                  00850868    00000004     TRS_SYSBIOS_pe66.oe66 (.const:ti_sysbios_family_c64p_Exception_externalHook__C)
                  0085086c    00000004     TRS_SYSBIOS_pe66.oe66 (.const:ti_sysbios_family_c64p_Exception_internalHook__C)
                  00850870    00000004     TRS_SYSBIOS_pe66.oe66 (.const:ti_sysbios_family_c64p_Exception_nmiHook__C)
                  00850874    00000004     TRS_SYSBIOS_pe66.oe66 (.const:ti_sysbios_family_c64p_Hwi_E_alreadyDefined__C)
                  00850878    00000004     TRS_SYSBIOS_pe66.oe66 (.const:ti_sysbios_family_c64p_Hwi_E_handleNotFound__C)
                  0085087c    00000004     TRS_SYSBIOS_pe66.oe66 (.const:ti_sysbios_family_c64p_Hwi_LD_end__C)
                  00850880    00000004     TRS_SYSBIOS_pe66.oe66 (.const:ti_sysbios_family_c64p_Hwi_LM_begin__C)
                  00850884    00000004     TRS_SYSBIOS_pe66.oe66 (.const:ti_sysbios_family_c64p_Hwi_Module__diagsEnabled__C)
                  00850888    00000004     TRS_SYSBIOS_pe66.oe66 (.const:ti_sysbios_family_c64p_Hwi_Module__diagsIncluded__C)
                  0085088c    00000004     TRS_SYSBIOS_pe66.oe66 (.const:ti_sysbios_family_c64p_Hwi_Module__diagsMask__C)
                  00850890    00000004     TRS_SYSBIOS_pe66.oe66 (.const:ti_sysbios_family_c64p_Hwi_Module__loggerFxn1__C)
                  00850894    00000004     TRS_SYSBIOS_pe66.oe66 (.const:ti_sysbios_family_c64p_Hwi_Module__loggerFxn8__C)
                  00850898    00000004     TRS_SYSBIOS_pe66.oe66 (.const:ti_sysbios_family_c64p_Hwi_Module__loggerObj__C)
                  0085089c    00000004     TRS_SYSBIOS_pe66.oe66 (.const:ti_sysbios_family_c66_Cache_atomicBlockSize__C)
                  008508a0    00000004     TRS_SYSBIOS_pe66.oe66 (.const:ti_sysbios_family_c66_tci66xx_CpIntc_E_unpluggedSysInt__C)
                  008508a4    00000004     TRS_SYSBIOS_pe66.oe66 (.const:ti_sysbios_family_c66_tci66xx_CpIntc_eventId__C)
                  008508a8    00000004     TRS_SYSBIOS_pe66.oe66 (.const:ti_sysbios_family_c66_tci66xx_CpIntc_hostIntToEventId__C)
                  008508ac    00000004     TRS_SYSBIOS_pe66.oe66 (.const:ti_sysbios_family_c66_tci66xx_CpIntc_numEvents__C)
                  008508b0    00000004     TRS_SYSBIOS_pe66.oe66 (.const:ti_sysbios_family_c66_tci66xx_CpIntc_numStatusRegs__C)
                  008508b4    00000004     TRS_SYSBIOS_pe66.oe66 (.const:ti_sysbios_family_c66_tci66xx_CpIntc_numSysInts__C)
                  008508b8    00000004     TRS_SYSBIOS_pe66.oe66 (.const:ti_sysbios_family_c66_tci66xx_CpIntc_sysIntToHostInt__C)
                  008508bc    00000004     TRS_SYSBIOS_pe66.oe66 (.const:ti_sysbios_gates_GateMutexPri_A_badContext__C)
                  008508c0    00000004     TRS_SYSBIOS_pe66.oe66 (.const:ti_sysbios_gates_GateMutexPri_A_enterTaskDisabled__C)
                  008508c4    00000004     TRS_SYSBIOS_pe66.oe66 (.const:ti_sysbios_gates_GateMutexPri_Instance_State_pendQ__O)
                  008508c8    00000004     TRS_SYSBIOS_pe66.oe66 (.const:ti_sysbios_gates_GateMutexPri_Module__diagsEnabled__C)
                  008508cc    00000004     TRS_SYSBIOS_pe66.oe66 (.const:ti_sysbios_gates_GateMutexPri_Module__diagsIncluded__C)
                  008508d0    00000004     TRS_SYSBIOS_pe66.oe66 (.const:ti_sysbios_gates_GateMutexPri_Module__diagsMask__C)
                  008508d4    00000004     TRS_SYSBIOS_pe66.oe66 (.const:ti_sysbios_gates_GateMutex_A_badContext__C)
                  008508d8    00000004     TRS_SYSBIOS_pe66.oe66 (.const:ti_sysbios_gates_GateMutex_Instance_State_sem__O)
                  008508dc    00000004     TRS_SYSBIOS_pe66.oe66 (.const:ti_sysbios_gates_GateMutex_Module__diagsEnabled__C)
                  008508e0    00000004     TRS_SYSBIOS_pe66.oe66 (.const:ti_sysbios_gates_GateMutex_Module__diagsIncluded__C)
                  008508e4    00000004     TRS_SYSBIOS_pe66.oe66 (.const:ti_sysbios_gates_GateMutex_Module__diagsMask__C)
                  008508e8    00000004     TRS_SYSBIOS_pe66.oe66 (.const:ti_sysbios_gates_GateSwi_A_badContext__C)
                  008508ec    00000004     TRS_SYSBIOS_pe66.oe66 (.const:ti_sysbios_gates_GateSwi_Module__diagsEnabled__C)
                  008508f0    00000004     TRS_SYSBIOS_pe66.oe66 (.const:ti_sysbios_gates_GateSwi_Module__diagsIncluded__C)
                  008508f4    00000004     TRS_SYSBIOS_pe66.oe66 (.const:ti_sysbios_gates_GateSwi_Module__diagsMask__C)
                  008508f8    00000004     TRS_SYSBIOS_pe66.oe66 (.const:ti_sysbios_hal_Hwi_E_stackOverflow__C)
                  008508fc    00000004     TRS_SYSBIOS_pe66.oe66 (.const:ti_sysbios_heaps_HeapMem_A_align__C)
                  00850900    00000004     TRS_SYSBIOS_pe66.oe66 (.const:ti_sysbios_heaps_HeapMem_A_heapSize__C)
                  00850904    00000004     TRS_SYSBIOS_pe66.oe66 (.const:ti_sysbios_heaps_HeapMem_A_invalidFree__C)
                  00850908    00000004     TRS_SYSBIOS_pe66.oe66 (.const:ti_sysbios_heaps_HeapMem_A_zeroBlock__C)
                  0085090c    00000004     TRS_SYSBIOS_pe66.oe66 (.const:ti_sysbios_heaps_HeapMem_E_memory__C)
                  00850910    00000004     TRS_SYSBIOS_pe66.oe66 (.const:ti_sysbios_heaps_HeapMem_Module__diagsEnabled__C)
                  00850914    00000004     TRS_SYSBIOS_pe66.oe66 (.const:ti_sysbios_heaps_HeapMem_Module__diagsIncluded__C)
                  00850918    00000004     TRS_SYSBIOS_pe66.oe66 (.const:ti_sysbios_heaps_HeapMem_Module__diagsMask__C)
                  0085091c    00000004     TRS_SYSBIOS_pe66.oe66 (.const:ti_sysbios_heaps_HeapMem_Module__gateObj__C)
                  00850920    00000004     TRS_SYSBIOS_pe66.oe66 (.const:ti_sysbios_heaps_HeapMem_Object__count__C)
                  00850924    00000004     TRS_SYSBIOS_pe66.oe66 (.const:ti_sysbios_heaps_HeapMem_Object__table__C)
                  00850928    00000004     TRS_SYSBIOS_pe66.oe66 (.const:ti_sysbios_heaps_HeapMem_reqAlign__C)
                  0085092c    00000004     TRS_SYSBIOS_pe66.oe66 (.const:ti_sysbios_knl_Clock_tickPeriod__C)
                  00850930    00000004     TRS_SYSBIOS_pe66.oe66 (.const:ti_sysbios_knl_Event_A_badContext__C)
                  00850934    00000004     TRS_SYSBIOS_pe66.oe66 (.const:ti_sysbios_knl_Event_A_eventInUse__C)
                  00850938    00000004     TRS_SYSBIOS_pe66.oe66 (.const:ti_sysbios_knl_Event_A_nullEventId__C)
                  0085093c    00000004     TRS_SYSBIOS_pe66.oe66 (.const:ti_sysbios_knl_Event_A_nullEventMasks__C)
                  00850940    00000004     TRS_SYSBIOS_pe66.oe66 (.const:ti_sysbios_knl_Event_A_pendTaskDisabled__C)
                  00850944    00000004     TRS_SYSBIOS_pe66.oe66 (.const:ti_sysbios_knl_Event_Instance_State_pendQ__O)
                  00850948    00000004     TRS_SYSBIOS_pe66.oe66 (.const:ti_sysbios_knl_Event_LM_pend__C)
                  0085094c    00000004     TRS_SYSBIOS_pe66.oe66 (.const:ti_sysbios_knl_Event_LM_post__C)
                  00850950    00000004     TRS_SYSBIOS_pe66.oe66 (.const:ti_sysbios_knl_Event_Module__diagsEnabled__C)
                  00850954    00000004     TRS_SYSBIOS_pe66.oe66 (.const:ti_sysbios_knl_Event_Module__diagsIncluded__C)
                  00850958    00000004     TRS_SYSBIOS_pe66.oe66 (.const:ti_sysbios_knl_Event_Module__diagsMask__C)
                  0085095c    00000004     TRS_SYSBIOS_pe66.oe66 (.const:ti_sysbios_knl_Event_Module__loggerFxn4__C)
                  00850960    00000004     TRS_SYSBIOS_pe66.oe66 (.const:ti_sysbios_knl_Event_Module__loggerFxn8__C)
                  00850964    00000004     TRS_SYSBIOS_pe66.oe66 (.const:ti_sysbios_knl_Event_Module__loggerObj__C)
                  00850968    00000004     TRS_SYSBIOS_pe66.oe66 (.const:ti_sysbios_knl_Idle_coreList__A)
                  0085096c    00000004     TRS_SYSBIOS_pe66.oe66 (.const:ti_sysbios_knl_Queue_Object__count__C)
                  00850970    00000004     TRS_SYSBIOS_pe66.oe66 (.const:ti_sysbios_knl_Idle_funcList__A)
                  00850974    00000004     TRS_SYSBIOS_pe66.oe66 (.const:ti_sysbios_knl_Queue_Object__table__C)
                  00850978    00000004     TRS_SYSBIOS_pe66.oe66 (.const:ti_sysbios_knl_Semaphore_A_badContext__C)
                  0085097c    00000004     TRS_SYSBIOS_pe66.oe66 (.const:ti_sysbios_knl_Semaphore_A_noEvents__C)
                  00850980    00000004     TRS_SYSBIOS_pe66.oe66 (.const:ti_sysbios_knl_Semaphore_A_overflow__C)
                  00850984    00000004     TRS_SYSBIOS_pe66.oe66 (.const:ti_sysbios_knl_Semaphore_A_pendTaskDisabled__C)
                  00850988    00000004     TRS_SYSBIOS_pe66.oe66 (.const:ti_sysbios_knl_Semaphore_Instance_State_pendQ__O)
                  0085098c    00000004     TRS_SYSBIOS_pe66.oe66 (.const:ti_sysbios_knl_Semaphore_LM_pend__C)
                  00850990    00000004     TRS_SYSBIOS_pe66.oe66 (.const:ti_sysbios_knl_Semaphore_LM_post__C)
                  00850994    00000004     TRS_SYSBIOS_pe66.oe66 (.const:ti_sysbios_knl_Semaphore_Module__diagsEnabled__C)
                  00850998    00000004     TRS_SYSBIOS_pe66.oe66 (.const:ti_sysbios_knl_Semaphore_Module__diagsIncluded__C)
                  0085099c    00000004     TRS_SYSBIOS_pe66.oe66 (.const:ti_sysbios_knl_Semaphore_Module__diagsMask__C)
                  008509a0    00000004     TRS_SYSBIOS_pe66.oe66 (.const:ti_sysbios_knl_Semaphore_Module__loggerFxn2__C)
                  008509a4    00000004     TRS_SYSBIOS_pe66.oe66 (.const:ti_sysbios_knl_Semaphore_Module__loggerFxn4__C)
                  008509a8    00000004     TRS_SYSBIOS_pe66.oe66 (.const:ti_sysbios_knl_Semaphore_Module__loggerObj__C)
                  008509ac    00000004     TRS_SYSBIOS_pe66.oe66 (.const:ti_sysbios_knl_Swi_A_badPriority__C)
                  008509b0    00000004     TRS_SYSBIOS_pe66.oe66 (.const:ti_sysbios_knl_Swi_LD_end__C)
                  008509b4    00000004     TRS_SYSBIOS_pe66.oe66 (.const:ti_sysbios_knl_Swi_LM_begin__C)
                  008509b8    00000004     TRS_SYSBIOS_pe66.oe66 (.const:ti_sysbios_knl_Swi_LM_post__C)
                  008509bc    00000004     TRS_SYSBIOS_pe66.oe66 (.const:ti_sysbios_knl_Swi_Module__diagsEnabled__C)
                  008509c0    00000004     TRS_SYSBIOS_pe66.oe66 (.const:ti_sysbios_knl_Swi_Module__diagsIncluded__C)
                  008509c4    00000004     TRS_SYSBIOS_pe66.oe66 (.const:ti_sysbios_knl_Swi_Module__diagsMask__C)
                  008509c8    00000004     TRS_SYSBIOS_pe66.oe66 (.const:ti_sysbios_knl_Swi_Module__loggerFxn1__C)
                  008509cc    00000004     TRS_SYSBIOS_pe66.oe66 (.const:ti_sysbios_knl_Swi_Module__loggerFxn4__C)
                  008509d0    00000004     TRS_SYSBIOS_pe66.oe66 (.const:ti_sysbios_knl_Swi_Module__loggerObj__C)
                  008509d4    00000004     TRS_SYSBIOS_pe66.oe66 (.const:ti_sysbios_knl_Swi_Object__count__C)
                  008509d8    00000004     TRS_SYSBIOS_pe66.oe66 (.const:ti_sysbios_knl_Swi_Object__table__C)
                  008509dc    00000004     TRS_SYSBIOS_pe66.oe66 (.const:ti_sysbios_knl_Task_A_badPriority__C)
                  008509e0    00000004     TRS_SYSBIOS_pe66.oe66 (.const:ti_sysbios_knl_Task_A_badTaskState__C)
                  008509e4    00000004     TRS_SYSBIOS_pe66.oe66 (.const:ti_sysbios_knl_Task_A_badThreadType__C)
                  008509e8    00000004     TRS_SYSBIOS_pe66.oe66 (.const:ti_sysbios_knl_Task_A_noPendElem__C)
                  008509ec    00000004     TRS_SYSBIOS_pe66.oe66 (.const:ti_sysbios_knl_Task_E_spOutOfBounds__C)
                  008509f0    00000004     TRS_SYSBIOS_pe66.oe66 (.const:ti_sysbios_knl_Task_E_stackOverflow__C)
                  008509f4    00000004     TRS_SYSBIOS_pe66.oe66 (.const:ti_sysbios_knl_Task_LD_block__C)
                  008509f8    00000004     TRS_SYSBIOS_pe66.oe66 (.const:ti_sysbios_knl_Task_LD_exit__C)
                  008509fc    00000004     TRS_SYSBIOS_pe66.oe66 (.const:ti_sysbios_knl_Task_LD_ready__C)
                  00850a00    00000004     TRS_SYSBIOS_pe66.oe66 (.const:ti_sysbios_knl_Task_LM_setPri__C)
                  00850a04    00000004     TRS_SYSBIOS_pe66.oe66 (.const:ti_sysbios_knl_Task_LM_switch__C)
                  00850a08    00000004     TRS_SYSBIOS_pe66.oe66 (.const:ti_sysbios_knl_Task_LM_yield__C)
                  00850a0c    00000004     TRS_SYSBIOS_pe66.oe66 (.const:ti_sysbios_knl_Task_Module_State_inactiveQ__O)
                  00850a10    00000004     TRS_SYSBIOS_pe66.oe66 (.const:ti_sysbios_knl_Task_Module__diagsEnabled__C)
                  00850a14    00000004     TRS_SYSBIOS_pe66.oe66 (.const:ti_sysbios_knl_Task_Module__diagsIncluded__C)
                  00850a18    00000004     TRS_SYSBIOS_pe66.oe66 (.const:ti_sysbios_knl_Task_Module__diagsMask__C)
                  00850a1c    00000004     TRS_SYSBIOS_pe66.oe66 (.const:ti_sysbios_knl_Task_Module__loggerFxn2__C)
                  00850a20    00000004     TRS_SYSBIOS_pe66.oe66 (.const:ti_sysbios_knl_Task_Module__loggerFxn4__C)
                  00850a24    00000004     TRS_SYSBIOS_pe66.oe66 (.const:ti_sysbios_knl_Task_Module__loggerObj__C)
                  00850a28    00000004     TRS_SYSBIOS_pe66.oe66 (.const:ti_sysbios_knl_Task_Object__count__C)
                  00850a2c    00000004     TRS_SYSBIOS_pe66.oe66 (.const:ti_sysbios_knl_Task_Object__heap__C)
                  00850a30    00000004     TRS_SYSBIOS_pe66.oe66 (.const:ti_sysbios_knl_Task_Object__table__C)
                  00850a34    00000004     TRS_SYSBIOS_pe66.oe66 (.const:ti_sysbios_knl_Task_allBlockedFunc__C)
                  00850a38    00000004     TRS_SYSBIOS_pe66.oe66 (.const:ti_sysbios_knl_Task_defaultStackHeap__C)
                  00850a3c    00000004     TRS_SYSBIOS_pe66.oe66 (.const:ti_sysbios_knl_Task_defaultStackSize__C)
                  00850a40    00000004     TRS_SYSBIOS_pe66.oe66 (.const:ti_sysbios_knl_Task_numConstructedTasks__C)
                  00850a44    00000004     TRS_SYSBIOS_pe66.oe66 (.const:ti_sysbios_syncs_SyncSem_Module__diagsEnabled__C)
                  00850a48    00000004     TRS_SYSBIOS_pe66.oe66 (.const:ti_sysbios_syncs_SyncSem_Module__diagsIncluded__C)
                  00850a4c    00000004     TRS_SYSBIOS_pe66.oe66 (.const:ti_sysbios_syncs_SyncSem_Module__diagsMask__C)
                  00850a50    00000004     TRS_SYSBIOS_pe66.oe66 (.const:ti_sysbios_timers_timer64_Timer_A_notAvailable__C)
                  00850a54    00000004     TRS_SYSBIOS_pe66.oe66 (.const:ti_sysbios_timers_timer64_Timer_E_cannotSupport__C)
                  00850a58    00000004     TRS_SYSBIOS_pe66.oe66 (.const:ti_sysbios_timers_timer64_Timer_Module__diagsEnabled__C)
                  00850a5c    00000004     TRS_SYSBIOS_pe66.oe66 (.const:ti_sysbios_timers_timer64_Timer_Module__diagsIncluded__C)
                  00850a60    00000004     TRS_SYSBIOS_pe66.oe66 (.const:ti_sysbios_timers_timer64_Timer_Module__diagsMask__C)
                  00850a64    00000004     TRS_SYSBIOS_pe66.oe66 (.const:ti_sysbios_timers_timer64_Timer_anyMask__C)
                  00850a68    00000004     TRS_SYSBIOS_pe66.oe66 (.const:ti_sysbios_timers_timer64_Timer_freqDivisor__C)
                  00850a6c    00000004     TRS_SYSBIOS_pe66.oe66 (.const:ti_sysbios_timers_timer64_Timer_numLocalTimers__C)
                  00850a70    00000004     TRS_SYSBIOS_pe66.oe66 (.const:ti_sysbios_timers_timer64_Timer_numTimerDevices__C)
                  00850a74    00000004     TRS_SYSBIOS_pe66.oe66 (.const:ti_sysbios_xdcruntime_GateThreadSupport_Instance_State_gate__O)
                  00850a78    00000004     TRS_SYSBIOS_pe66.oe66 (.const:ti_uia_events_UIABenchmark_start__C)
                  00850a7c    00000004     TRS_SYSBIOS_pe66.oe66 (.const:ti_uia_events_UIABenchmark_stop__C)
                  00850a80    00000004     TRS_SYSBIOS_pe66.oe66 (.const:xdc_runtime_Assert_E_assertFailed__C)
                  00850a84    00000004     TRS_SYSBIOS_pe66.oe66 (.const:xdc_runtime_Core_A_initializedParams__C)
                  00850a88    00000004     TRS_SYSBIOS_pe66.oe66 (.const:xdc_runtime_Core_Module__diagsEnabled__C)
                  00850a8c    00000004     TRS_SYSBIOS_pe66.oe66 (.const:xdc_runtime_Core_Module__diagsIncluded__C)
                  00850a90    00000004     TRS_SYSBIOS_pe66.oe66 (.const:xdc_runtime_Core_Module__diagsMask__C)
                  00850a94    00000004     TRS_SYSBIOS_pe66.oe66 (.const:xdc_runtime_Error_E_memory__C)
                  00850a98    00000004     TRS_SYSBIOS_pe66.oe66 (.const:xdc_runtime_Error_Module__diagsEnabled__C)
                  00850a9c    00000004     TRS_SYSBIOS_pe66.oe66 (.const:xdc_runtime_Error_Module__diagsIncluded__C)
                  00850aa0    00000004     TRS_SYSBIOS_pe66.oe66 (.const:xdc_runtime_Error_Module__diagsMask__C)
                  00850aa4    00000004     TRS_SYSBIOS_pe66.oe66 (.const:xdc_runtime_Error_Module__loggerFxn8__C)
                  00850aa8    00000004     TRS_SYSBIOS_pe66.oe66 (.const:xdc_runtime_Error_Module__loggerObj__C)
                  00850aac    00000004     TRS_SYSBIOS_pe66.oe66 (.const:xdc_runtime_Error_policy__C)
                  00850ab0    00000004     TRS_SYSBIOS_pe66.oe66 (.const:xdc_runtime_Error_raiseHook__C)
                  00850ab4    00000004     TRS_SYSBIOS_pe66.oe66 (.const:xdc_runtime_IGateProvider_Interface__BASE__C)
                  00850ab8    00000004     TRS_SYSBIOS_pe66.oe66 (.const:xdc_runtime_IHeap_Interface__BASE__C)
                  00850abc    00000004     TRS_SYSBIOS_pe66.oe66 (.const:xdc_runtime_IModule_Interface__BASE__C)
                  00850ac0    00000004     TRS_SYSBIOS_pe66.oe66 (.const:xdc_runtime_Log_L_error__C)
                  00850ac4    00000004     TRS_SYSBIOS_pe66.oe66 (.const:xdc_runtime_Main_Module__diagsEnabled__C)
                  00850ac8    00000004     TRS_SYSBIOS_pe66.oe66 (.const:xdc_runtime_Main_Module__diagsIncluded__C)
                  00850acc    00000004     TRS_SYSBIOS_pe66.oe66 (.const:xdc_runtime_Main_Module__diagsMask__C)
                  00850ad0    00000004     TRS_SYSBIOS_pe66.oe66 (.const:xdc_runtime_Main_Module__loggerFxn1__C)
                  00850ad4    00000004     TRS_SYSBIOS_pe66.oe66 (.const:xdc_runtime_Main_Module__loggerObj__C)
                  00850ad8    00000004     TRS_SYSBIOS_pe66.oe66 (.const:xdc_runtime_Memory_defaultHeapInstance__C)
                  00850adc    00000004     TRS_SYSBIOS_pe66.oe66 (.const:xdc_runtime_Startup_execImpl__C)
                  00850ae0    00000004     TRS_SYSBIOS_pe66.oe66 (.const:xdc_runtime_Startup_lastFxns__A)
                  00850ae4    00000004     TRS_SYSBIOS_pe66.oe66 (.const:xdc_runtime_Startup_maxPasses__C)
                  00850ae8    00000004     TRS_SYSBIOS_pe66.oe66 (.const:xdc_runtime_Startup_sfxnRts__C)
                  00850aec    00000004     TRS_SYSBIOS_pe66.oe66 (.const:xdc_runtime_Startup_sfxnTab__C)
                  00850af0    00000004     TRS_SYSBIOS_pe66.oe66 (.const:xdc_runtime_Startup_startModsFxn__C)
                  00850af4    00000004     TRS_SYSBIOS_pe66.oe66 (.const:xdc_runtime_SysMin_bufSize__C)
                  00850af8    00000004     TRS_SYSBIOS_pe66.oe66 (.const:xdc_runtime_SysMin_outputFunc__C)
                  00850afc    00000004     TRS_SYSBIOS_pe66.oe66 (.const:xdc_runtime_System_Module__gateObj__C)
                  00850b00    00000004     TRS_SYSBIOS_pe66.oe66 (.const:xdc_runtime_System_extendFxn__C)
                  00850b04    00000004     TRS_SYSBIOS_pe66.oe66 (.const:xdc_runtime_System_maxAtexitHandlers__C)
                  00850b08    00000004     TRS_SYSBIOS_pe66.oe66 (.const:xdc_runtime_Text_charTab__C)
                  00850b0c    00000004     TRS_SYSBIOS_pe66.oe66 (.const:xdc_runtime_Text_nameEmpty__C)
                  00850b10    00000004     TRS_SYSBIOS_pe66.oe66 (.const:xdc_runtime_Text_nameStatic__C)
                  00850b14    00000004     TRS_SYSBIOS_pe66.oe66 (.const:xdc_runtime_Text_nameUnknown__C)
                  00850b18    00000004     TRS_SYSBIOS_pe66.oe66 (.const:xdc_runtime_Text_nodeTab__C)
                  00850b1c    00000004     TRS_SYSBIOS_pe66.oe66 (.const:xdc_runtime_Text_visitRopeFxn__C)
                  00850b20    00000004     TRS_SYSBIOS_pe66.oe66 (.const:xdc_runtime_knl_ISync_Interface__BASE__C)
                  00850b24    00000002     TRS_SYSBIOS_pe66.oe66 (.const:ti_sdo_ipc_gates_GatePeterson_Module__id__C)
                  00850b26    00000002     TRS_SYSBIOS_pe66.oe66 (.const:ti_sdo_ipc_heaps_HeapBufMP_Module__id__C)
                  00850b28    00000002     TRS_SYSBIOS_pe66.oe66 (.const:ti_sdo_ipc_heaps_HeapBufMP_trackAllocs__C)
                  00850b2a    00000002     TRS_SYSBIOS_pe66.oe66 (.const:ti_sdo_ipc_heaps_HeapMemMP_Module__id__C)
                  00850b2c    00000002     TRS_SYSBIOS_pe66.oe66 (.const:ti_sdo_ipc_notifyDrivers_NotifyDriverShm_Module__id__C)
                  00850b2e    00000002     TRS_SYSBIOS_pe66.oe66 (.const:ti_sdo_ipc_nsremote_NameServerRemoteNotify_Module__id__C)
                  00850b30    00000002     TRS_SYSBIOS_pe66.oe66 (.const:ti_sdo_ipc_transports_TransportShmCirc_Module__id__C)
                  00850b32    00000002     TRS_SYSBIOS_pe66.oe66 (.const:ti_sdo_ipc_transports_TransportShmCirc_alwaysWriteBackMsg__C)
                  00850b34    00000002     TRS_SYSBIOS_pe66.oe66 (.const:ti_sdo_ipc_transports_TransportShmCirc_notifyEventId__C)
                  00850b36    00000002     TRS_SYSBIOS_pe66.oe66 (.const:ti_sdo_utils_MultiProc_numProcessors__C)
                  00850b38    00000002     TRS_SYSBIOS_pe66.oe66 (.const:ti_sdo_utils_MultiProc_numProcsInCluster__C)
                  00850b3a    00000002     TRS_SYSBIOS_pe66.oe66 (.const:ti_sdo_utils_NameServer_Module__id__C)
                  00850b3c    00000002     TRS_SYSBIOS_pe66.oe66 (.const:ti_sdo_utils_NameServer_singleProcessor__C)
                  00850b3e    00000002     TRS_SYSBIOS_pe66.oe66 (.const:ti_sysbios_BIOS_Module__id__C)
                  00850b40    00000002     TRS_SYSBIOS_pe66.oe66 (.const:ti_sysbios_family_c64p_Exception_Module__id__C)
                  00850b42    00000002     TRS_SYSBIOS_pe66.oe66 (.const:ti_sysbios_family_c64p_Exception_useInternalBuffer__C)
                  00850b44    00000002     TRS_SYSBIOS_pe66.oe66 (.const:ti_sysbios_family_c64p_Hwi_Module__id__C)
                  00850b46    00000002     TRS_SYSBIOS_pe66.oe66 (.const:ti_sysbios_family_c64p_Hwi_Module__loggerDefined__C)
                  00850b48    00000002     TRS_SYSBIOS_pe66.oe66 (.const:ti_sysbios_family_c66_tci66xx_CpIntc_Module__id__C)
                  00850b4a    00000002     TRS_SYSBIOS_pe66.oe66 (.const:ti_sysbios_gates_GateMutexPri_Module__id__C)
                  00850b4c    00000002     TRS_SYSBIOS_pe66.oe66 (.const:ti_sysbios_gates_GateMutex_Module__id__C)
                  00850b4e    00000002     TRS_SYSBIOS_pe66.oe66 (.const:ti_sysbios_gates_GateSwi_Module__id__C)
                  00850b50    00000002     TRS_SYSBIOS_pe66.oe66 (.const:ti_sysbios_hal_Hwi_Module__id__C)
                  00850b52    00000002     TRS_SYSBIOS_pe66.oe66 (.const:ti_sysbios_heaps_HeapMem_Module__id__C)
                  00850b54    00000002     TRS_SYSBIOS_pe66.oe66 (.const:ti_sysbios_knl_Event_Module__id__C)
                  00850b56    00000002     TRS_SYSBIOS_pe66.oe66 (.const:ti_sysbios_knl_Event_Module__loggerDefined__C)
                  00850b58    00000002     TRS_SYSBIOS_pe66.oe66 (.const:ti_sysbios_knl_Semaphore_Module__id__C)
                  00850b5a    00000002     TRS_SYSBIOS_pe66.oe66 (.const:ti_sysbios_knl_Semaphore_Module__loggerDefined__C)
                  00850b5c    00000002     TRS_SYSBIOS_pe66.oe66 (.const:ti_sysbios_knl_Swi_Module__id__C)
                  00850b5e    00000002     TRS_SYSBIOS_pe66.oe66 (.const:ti_sysbios_knl_Swi_Module__loggerDefined__C)
                  00850b60    00000002     TRS_SYSBIOS_pe66.oe66 (.const:ti_sysbios_knl_Task_Module__id__C)
                  00850b62    00000002     TRS_SYSBIOS_pe66.oe66 (.const:ti_sysbios_knl_Task_Module__loggerDefined__C)
                  00850b64    00000002     TRS_SYSBIOS_pe66.oe66 (.const:ti_sysbios_knl_Task_initStackFlag__C)
                  00850b66    00000002     TRS_SYSBIOS_pe66.oe66 (.const:ti_sysbios_syncs_SyncSem_Module__id__C)
                  00850b68    00000002     TRS_SYSBIOS_pe66.oe66 (.const:ti_sysbios_timers_timer64_Timer_Module__id__C)
                  00850b6a    00000002     TRS_SYSBIOS_pe66.oe66 (.const:ti_sysbios_timers_timer64_Timer_startupNeeded__C)
                  00850b6c    00000002     TRS_SYSBIOS_pe66.oe66 (.const:xdc_runtime_Core_Module__id__C)
                  00850b6e    00000002     TRS_SYSBIOS_pe66.oe66 (.const:xdc_runtime_Error_Module__loggerDefined__C)
                  00850b70    00000002     TRS_SYSBIOS_pe66.oe66 (.const:xdc_runtime_Error_maxDepth__C)
                  00850b72    00000002     TRS_SYSBIOS_pe66.oe66 (.const:xdc_runtime_Main_Module__id__C)
                  00850b74    00000002     TRS_SYSBIOS_pe66.oe66 (.const:xdc_runtime_Main_Module__loggerDefined__C)
                  00850b76    00000002     TRS_SYSBIOS_pe66.oe66 (.const:xdc_runtime_Memory_Module__id__C)
                  00850b78    00000002     TRS_SYSBIOS_pe66.oe66 (.const:xdc_runtime_SysMin_flushAtExit__C)
                  00850b7a    00000002     TRS_SYSBIOS_pe66.oe66 (.const:xdc_runtime_Text_charCnt__C)
                  00850b7c    00000002     TRS_SYSBIOS_pe66.oe66 (.const:xdc_runtime_Text_isLoaded__C)
                  00850b7e    00000002     TRS_SYSBIOS_pe66.oe66 (.const:xdc_runtime_Text_registryModsLastId__C)
                  00850b80    00000002     TRS_SYSBIOS_pe66.oe66 (.const:xdc_runtime_Text_unnamedModsLastId__C)

.stack     0    00850b88    00008000     UNINITIALIZED
                  00850b88    00000008     boot.ae66 : boot.oe66 (.stack)
                  00850b90    00007ff8     --HOLE--

.dataL2    0    00858b90    00000280     UNINITIALIZED
                  00858b90    00000140     Platformlib.lib : pa_mgmt.obj (.dataL2)
                  00858cd0    00000128     DataIf.lib : DDCRx.obj (.dataL2)
                  00858df8    00000008     --HOLE--
                  00858e00    00000010     Platformlib.lib : cppi_qmss_mgmt.obj (.dataL2)

.csl_vect 
*          0    00859000    00000200     
                  00859000    00000200     ti.csl.intc.ae66 : _csl_intcIsrDispatch.oe66 (.csl_vect)

.vecs      0    00859400    00000200     
                  00859400    00000200     TRS_SYSBIOS_pe66.oe66 (.vecs)

.SrioSlaveBuff 
*          0    0c000000    003a9800     UNINITIALIZED
                  0c000000    003a9800     DataIf.lib : DDCRx.obj (.SrioSlaveBuff)

.critical_section 
*          0    80000000    0000096c     
                  80000000    000005b4     CriticalMem.obj (.critical_section:init)
                  800005b4    00000004     --HOLE--
                  800005b8    000003b4     CriticalMem.obj (.critical_section:uninit) [fill = 0]

.critical_section_reference 
*          0    80100000    00000020     
                  80100000    00000020     CriticalMem.obj (.critical_section_reference)

ti.sdo.ipc.SharedRegion_0 
*          0    82000000    00400000     NOLOAD SECTION
                  82000000    00400000     --HOLE--

ti.sdo.ipc.SharedRegion_1 
*          0    82400000    00400000     NOLOAD SECTION
                  82400000    00400000     --HOLE--

ti.sdo.ipc.SharedRegion_2 
*          0    82800000    00400000     NOLOAD SECTION
                  82800000    00400000     --HOLE--

ti.sdo.ipc.SharedRegion_3 
*          0    82c00000    00400000     NOLOAD SECTION
                  82c00000    00400000     --HOLE--

.delcomObj 
*          0    83000000    00107562     
                  83000000    00104800     HeapMem.obj (.delcomObj) [fill = 0]
                  83104800    00001e40     GenUtil.lib : FIFO.obj (.delcomObj:uninit) [fill = 0]
                  83106640    00000ec8     ModMgr.obj (.delcomObj) [fill = 0]
                  83107508    00000054     GenUtil.lib : HashTbl.obj (.delcomObj:uninit) [fill = 0]
                  8310755c    00000004                 : FIFO.obj (.delcomObj:init)
                  83107560    00000002                 : HashTbl.obj (.delcomObj:init)

.fardata.1 
*          0    83107568    00000018     
                  83107568    00000018     TRS_SYSBIOS_pe66.oe66 (.fardata:ti_sysbios_gates_GateMutexPri_Object__table__V)

systemheap 
*          0    83107580    00040000     UNINITIALIZED
                  83107580    00040000     TRS_SYSBIOS_pe66.oe66 (systemheap)

.far.1     0    83147580    00001fe0     UNINITIALIZED
                  83147580    00001fd8     CmdIfMgr.lib : CmdRouter.obj (.far)
                  83149558    00000008     rts6600_elf.lib : trgdrv.obj (.far)

.fardata.2 
*          0    83149560    00000020     
                  83149560    00000020     ti.drv.qmss.ae66 : qmss_drv.oe66 (.fardata:Qmss_highEoiVector)

.far.2     0    83149580    000029c0     UNINITIALIZED
                  83149580    000016b8     Platformlib.lib : pa_mgmt.obj (.far)
                  8314ac38    00000428     TRS_SYSBIOS_pe66.oe66 (.far)
                  8314b060    000003e0     Platformlib.lib : singlecore_osal.obj (.far)
                  8314b440    00000040     statmgr.obj (.far)
                  8314b480    00000222     ethernet_log.obj (.far)
                  8314b6a2    00000002     --HOLE--
                  8314b6a4    00000218     DataIf.lib : DDCRx.obj (.far)
                  8314b8bc    00000004     --HOLE--
                  8314b8c0    00000160     ModMgr.obj (.far)
                  8314ba20    00000140     rts6600_elf.lib : defs.obj (.far)
                  8314bb60    00000120     ti.drv.qmss.ae66 : qmss_drv.oe66 (.far)
                  8314bc80    000000c8     Platformlib_sub.lib : uart_write.obj (.far)
                  8314bd48    000000b0     Platformlib.lib : cppi_qmss_mgmt.obj (.far)
                  8314bdf8    000000a8     GenUtil.lib : SysTime.obj (.far)
                  8314bea0    000000a0                 : IIPC.obj (.far)

.fardata.3 
*          0    8314bf40    0000204a     
                  8314bf40    00000800     TRS_SYSBIOS_pe66.oe66 (.fardata:ti_sdo_ipc_GateMP_Module_State_0_remoteCustom1Gates__A)
                  8314c740    00000500     TRS_SYSBIOS_pe66.oe66 (.fardata:ti_sysbios_family_c66_tci66xx_CpIntc_Module_State_0_dispatchTab__A)
                  8314cc40    00000368     TRS_SYSBIOS_pe66.oe66 (.fardata)
                  8314cfa8    000001e0     rts6600_elf.lib : defs.obj (.fardata:_ftable)
                  8314d188    00000180     TRS_SYSBIOS_pe66.oe66 (.fardata:ti_sysbios_timers_timer64_Timer_Module_State_0_device__A)
                  8314d308    0000012c     TRS_SYSBIOS_pe66.oe66 (.fardata:ti_sdo_utils_NameServer_Object__table__V)
                  8314d434    00000004     rts6600_elf.lib : defs.obj (.fardata)
                  8314d438    00000120     Platformlib.lib : qmss_device.obj (.fardata:qmssGblCfgParams)
                  8314d558    000000f0     Platformlib_sub.lib : IntrDB.obj (.fardata:IntrTableData)
                  8314d648    000000a0     rts6600_elf.lib : lowlev.obj (.fardata:_stream)
                  8314d6e8    000000a0     TRS_SYSBIOS_pe66.oe66 (.fardata:ti_sdo_ipc_Ipc_Module_State_0_procEntry__A)
                  8314d788    00000098     TRS_SYSBIOS_pe66.oe66 (.fardata:ti_sysbios_family_c66_tci66xx_CpIntc_Module_State_0_hostIntToSysInt__A)
                  8314d820    00000090     TRS_SYSBIOS_pe66.oe66 (.fardata:ti_sdo_ipc_SharedRegion_Module_State_0_regions__A)
                  8314d8b0    00000080     TRS_SYSBIOS_pe66.oe66 (.fardata:ti_sdo_ipc_GateMP_Module_State_0_remoteSystemGates__A)
                  8314d930    00000080     TRS_SYSBIOS_pe66.oe66 (.fardata:ti_sysbios_knl_Swi_Module_State_0_readyQ__A)
                  8314d9b0    00000080     TRS_SYSBIOS_pe66.oe66 (.fardata:ti_sysbios_knl_Task_Module_State_0_readyQ__A)
                  8314da30    00000080     TRS_SYSBIOS_pe66.oe66 (.fardata:ti_sysbios_timers_timer64_Timer_Module_State_0_gctrl__A)
                  8314dab0    00000080     TRS_SYSBIOS_pe66.oe66 (.fardata:ti_sysbios_timers_timer64_Timer_Module_State_0_handles__A)
                  8314db30    00000080     TRS_SYSBIOS_pe66.oe66 (.fardata:ti_sysbios_timers_timer64_Timer_Module_State_0_intFreqs__A)
                  8314dbb0    00000078     rts6600_elf.lib : lowlev.obj (.fardata:_device)
                  8314dc28    00000078     Platformlib.lib : cppi_device.obj (.fardata:cppiGblCfgParams)
                  8314dca0    0000004c     TRS_SYSBIOS_pe66.oe66 (.fardata:ti_sysbios_knl_Task_Object__table__V)
                  8314dcec    00000004     rts6600_elf.lib : dtor_list.obj (.fardata)
                  8314dcf0    00000040     TRS_SYSBIOS_pe66.oe66 (.fardata:ti_sdo_ipc_MessageQ_Module_State_0_transports__A)
                  8314dd30    00000040     TRS_SYSBIOS_pe66.oe66 (.fardata:ti_sysbios_gates_GateMutex_Object__table__V)
                  8314dd70    00000038     Platformlib.lib : flash.obj (.fardata)
                  8314dda8    00000030     TRS_SYSBIOS_pe66.oe66 (.fardata:ti_sysbios_heaps_HeapMem_Object__table__V)
                  8314ddd8    00000020     TRS_SYSBIOS_pe66.oe66 (.fardata:ti_sdo_ipc_MessageQ_Module_State_0_heaps__A)
                  8314ddf8    00000020     TRS_SYSBIOS_pe66.oe66 (.fardata:ti_sdo_ipc_Notify_Module_State_0_notifyHandles__A)
                  8314de18    00000020     TRS_SYSBIOS_pe66.oe66 (.fardata:ti_sdo_ipc_family_c647x_Interrupt_Module_State_0_args__A)
                  8314de38    00000020     TRS_SYSBIOS_pe66.oe66 (.fardata:ti_sdo_ipc_transports_TransportShmCircSetup_Module_State_0_handles__A)
                  8314de58    00000020     TRS_SYSBIOS_pe66.oe66 (.fardata:xdc_runtime_System_Module_State_0_atexitHandlers__A)
                  8314de78    00000014     TRS_SYSBIOS_pe66.oe66 (.fardata:ti_sysbios_family_c66_tci66xx_CpIntc_Module_State_0_initSIER__A)
                  8314de8c    00000010     CriticalMem.obj (.fardata)
                  8314de9c    00000004     ti.drv.cppi.ae66 : cppi_drv.oe66 (.fardata)
                  8314dea0    00000010     ti.drv.qmss.ae66 : qmss_drv.oe66 (.fardata:Qmss_lowEoiVector)
                  8314deb0    00000010     GenUtil.lib : IIPC.obj (.fardata:msgQ_type_tbl)
                  8314dec0    00000010     TRS_SYSBIOS_pe66.oe66 (.fardata:ti_sysbios_family_c66_tci66xx_CpIntc_Module_State_0_controller__A)
                  8314ded0    00000010     TRS_SYSBIOS_pe66.oe66 (.fardata:ti_sysbios_gates_GateAll_Object__table__V)
                  8314dee0    0000000c     rts6600_elf.lib : exit.obj (.fardata)
                  8314deec    00000004     ti.drv.pa.ae66 : painit.oe66 (.fardata)
                  8314def0    0000000c     TRS_SYSBIOS_pe66.oe66 (.fardata:ti_sysbios_gates_GateSwi_Object__table__V)
                  8314defc    00000008     rts6600_elf.lib : _lock.obj (.fardata)
                  8314df04    00000004     --HOLE--
                  8314df08    00000006     Platformlib.lib : cppi_qmss_mgmt.obj (.fardata:IPUdestAddr)
                  8314df0e    00000002     --HOLE--
                  8314df10    00000006                     : cpsw_mgmt.obj (.fardata:Mac1)
                  8314df16    00000002     --HOLE--
                  8314df18    00000006                     : cpsw_mgmt.obj (.fardata:Mac2)
                  8314df1e    00000002     --HOLE--
                  8314df20    00000006                     : cpsw_mgmt.obj (.fardata:macAddress1)
                  8314df26    00000002     --HOLE--
                  8314df28    00000004     TRS_SYSBIOS_pe66.oe66 (.fardata:ti_sdo_ipc_GateMP_Module_State_0_remoteCustom2Gates__A)
                  8314df2c    00000004     --HOLE--
                  8314df30    00000004     TRS_SYSBIOS_pe66.oe66 (.fardata:ti_sdo_ipc_Notify_Module_State_0_notifyHandles_0__A)
                  8314df34    00000004     --HOLE--
                  8314df38    00000004     TRS_SYSBIOS_pe66.oe66 (.fardata:ti_sdo_ipc_Notify_Module_State_0_notifyHandles_1__A)
                  8314df3c    00000004     --HOLE--
                  8314df40    00000004     TRS_SYSBIOS_pe66.oe66 (.fardata:ti_sdo_ipc_Notify_Module_State_0_notifyHandles_2__A)
                  8314df44    00000004     --HOLE--
                  8314df48    00000004     TRS_SYSBIOS_pe66.oe66 (.fardata:ti_sdo_ipc_Notify_Module_State_0_notifyHandles_3__A)
                  8314df4c    00000004     --HOLE--
                  8314df50    00000004     TRS_SYSBIOS_pe66.oe66 (.fardata:ti_sdo_ipc_Notify_Module_State_0_notifyHandles_4__A)
                  8314df54    00000004     --HOLE--
                  8314df58    00000004     TRS_SYSBIOS_pe66.oe66 (.fardata:ti_sdo_ipc_Notify_Module_State_0_notifyHandles_5__A)
                  8314df5c    00000004     --HOLE--
                  8314df60    00000004     TRS_SYSBIOS_pe66.oe66 (.fardata:ti_sdo_ipc_Notify_Module_State_0_notifyHandles_6__A)
                  8314df64    00000004     --HOLE--
                  8314df68    00000004     TRS_SYSBIOS_pe66.oe66 (.fardata:ti_sdo_ipc_Notify_Module_State_0_notifyHandles_7__A)
                  8314df6c    00000004     --HOLE--
                  8314df70    00000004     TRS_SYSBIOS_pe66.oe66 (.fardata:ti_sysbios_gates_GateHwi_Object__table__V)
                  8314df74    00000004     --HOLE--
                  8314df78    00000004     TRS_SYSBIOS_pe66.oe66 (.fardata:ti_sysbios_knl_Task_Module_State_0_idleTask__A)
                  8314df7c    00000004     --HOLE--
                  8314df80    00000004     TRS_SYSBIOS_pe66.oe66 (.fardata:xdc_runtime_GateNull_Object__table__V)
                  8314df84    00000004     --HOLE--
                  8314df88    00000002     ti.drv.qmss.ae66 : qmss_drv.oe66 (.fardata:Qmss_cdmaEoiVector)

.far:taskStackSection 
*          0    8314df90    00000800     UNINITIALIZED
                  8314df90    00000800     TRS_SYSBIOS_pe66.oe66 (.far:taskStackSection)

.switch    0    8314e790    000002dc     
                  8314e790    00000150     CmdIfLib.lib : CmdPkt.obj (.switch:CmdPkt_GetCommand)
                  8314e8e0    00000070     ti.csl.ae66 : csl_chip.oe66 (.switch:CSL_chipReadReg)
                  8314e950    0000005c     CmdIfMgr.lib : CmdRouter.obj (.switch:CmdRouter_MapRxCmdToCore)
                  8314e9ac    00000040     ti.csl.ae66 : csl_timerGetBaseAddress.oe66 (.switch:CSL_tmrGetBaseAddress)
                  8314e9ec    0000002c     ti.drv.pa.ae66 : pa.oe66 (.switch:pa_conv_routing_info)
                  8314ea18    00000014     Platformlib.lib : Mcbsp.obj (.switch:Mcbsp_TxIntrHandler_new)
                  8314ea2c    00000010     CmdIfMgr.lib : CmdRouter.obj (.switch:CmdRouter_GetCoreInfo)
                  8314ea3c    00000010                  : CmdRouter.obj (.switch:CmdRouter_GetCoreInfoTx)
                  8314ea4c    00000010     Platformlib.lib : Srio_devconfig.obj (.switch:SrioDevice_init)
                  8314ea5c    00000010     ipc.ae66 : Ipc.obj (.switch:ti_sdo_ipc_GateMP_Instance_finalize__F)

.bss       0    8314ea70    000000f0     UNINITIALIZED
                  8314ea70    0000004c     ti.csl.intc.ae66 : _csl_intcResource.oe66 (.bss:csl_section:intc:uninit)
                  8314eabc    00000004     Platformlib.lib : Ethernet_config.obj (.bss)
                  8314eac0    00000040     DataIf.lib : DDCRx.obj (.bss)
                  8314eb00    00000018     Platformlib.lib : cppi_qmss_mgmt.obj (.bss)
                  8314eb18    00000010     ethernet_log.obj (.bss)
                  8314eb28    0000000c     GenUtil.lib : IIPC.obj (.bss)
                  8314eb34    0000000c     Platformlib.lib : Srio.obj (.bss)
                  8314eb40    00000008     DataIf.lib : DspToIpu.obj (.bss)
                  8314eb48    00000008     Platformlib.lib : pa_mgmt.obj (.bss)
                  8314eb50    00000005     statmgr.obj (.bss)
                  8314eb55    00000001     Platformlib.lib : Gpi.obj (.bss)
                  8314eb56    00000001                     : Gpo.obj (.bss)
                  8314eb57    00000001     --HOLE--
                  8314eb58    00000004                     : Gpio.obj (.bss)
                  8314eb5c    00000004     TRS_SYSBIOS_pe66.oe66 (.bss)

.neardata 
*          0    8314eb60    0000012d     
                  8314eb60    00000048     DataIf.lib : DDCRx.obj (.neardata)
                  8314eba8    0000001e     CmdIfMgr.lib : CmdIf.obj (.neardata)
                  8314ebc6    00000001     GenUtil.lib : IIPC.obj (.neardata)
                  8314ebc7    00000001     Platformlib_sub.lib : Timer.obj (.neardata)
                  8314ebc8    0000001c     Platformlib.lib : singlecore_osal.obj (.neardata)
                  8314ebe4    00000004     CriticalMem.obj (.neardata)
                  8314ebe8    00000018     Platformlib.lib : Srio.obj (.neardata)
                  8314ec00    00000018                     : cppi_qmss_mgmt.obj (.neardata)
                  8314ec18    00000015     CmdIfMgr.lib : CmdRouter.obj (.neardata)
                  8314ec2d    00000003     --HOLE-- [fill = 0]
                  8314ec30    00000010     Platformlib.lib : Ethernet_config.obj (.neardata)
                  8314ec40    00000010     statmgr.obj (.neardata)
                  8314ec50    00000008     EthBuff.obj (.neardata)
                  8314ec58    00000008     Platformlib.lib : Srio_devconfig.obj (.neardata)
                  8314ec60    00000008     Platformlib_sub.lib : srio_write.obj (.neardata)
                  8314ec68    00000008     debug_spurious_intr.obj (.neardata)
                  8314ec70    00000008     ethernet_log.obj (.neardata)
                  8314ec78    00000005     ModMgr.obj (.neardata)
                  8314ec7d    00000003     --HOLE-- [fill = 0]
                  8314ec80    00000004     Platformlib.lib : flash.obj (.neardata)
                  8314ec84    00000004                     : spi.obj (.neardata)
                  8314ec88    00000004     Timestamp.obj (.neardata)
                  8314ec8c    00000001     ti.drv.qmss.ae66 : qmss_drv.oe66 (.neardata)

.rodata    0    8314ec90    00000034     
                  8314ec90    00000020     Platformlib_sub.lib : srio_write.obj (.rodata)
                  8314ecb0    00000008     TRS_SYSBIOS_pe66.oe66 (.rodata)
                  8314ecb8    00000004     Platformlib.lib : classify1_bin.obj (.rodata)
                  8314ecbc    00000004                     : classify2_bin.obj (.rodata)
                  8314ecc0    00000004                     : pam_bin.obj (.rodata)

.cio       0    8314ecc8    00000120     UNINITIALIZED
                  8314ecc8    00000120     rts6600_elf.lib : trgmsg.obj (.cio)

.cinit     0    8314ede8    00000f84     
                  8314ede8    00000e44     (.cinit..fardata.3.load) [load image, compression = rle]
                  8314fc2c    0000003a     (.cinit..rodata.load) [load image, compression = rle]
                  8314fc66    00000002     --HOLE-- [fill = 0]
                  8314fc68    00000036     (.cinit..neardata.load) [load image, compression = rle]
                  8314fc9e    00000002     --HOLE-- [fill = 0]
                  8314fca0    00000026     (.cinit..fardata.2.load) [load image, compression = rle]
                  8314fcc6    00000002     --HOLE-- [fill = 0]
                  8314fcc8    00000025     (.cinit..critical_section_reference.load) [load image, compression = rle]
                  8314fced    00000003     --HOLE-- [fill = 0]
                  8314fcf0    00000016     (.cinit..fardata.1.load) [load image, compression = rle]
                  8314fd06    00000002     --HOLE-- [fill = 0]
                  8314fd08    0000000d     (.cinit..delcomObj.load) [load image, compression = rle]
                  8314fd15    00000003     --HOLE-- [fill = 0]
                  8314fd18    0000000b     (.cinit..critical_section.load) [load image, compression = rle]
                  8314fd23    00000001     --HOLE-- [fill = 0]
                  8314fd24    00000008     (__TI_handler_table)
                  8314fd2c    00000040     (__TI_cinit_table)

ethernetmemorybuffer 
*          0    85000000    0000c000     UNINITIALIZED
                  85000000    0000c000     TRS_SYSBIOS_pe66.oe66 (ethernetmemorybuffer)

.nocache   0    8500c000    0000a560     
                  8500c000    0000a000     ethernet_log.obj (.nocache:uninit) [fill = 0]
                  85016000    000003a0     Platformlib.lib : phy.obj (.nocache)
                  850163a0    00000108     ethernet_log.obj (.nocache:init)
                  850164a8    00000032     CmdIfMgr.lib : CmdIf.obj (.nocache)
                  850164da    00000006     --HOLE-- [fill = 0]
                  850164e0    00000032     DataIf.lib : DDCRx.obj (.nocache)
                  85016512    0000000e     --HOLE-- [fill = 0]
                  85016520    00000010     GenUtil.lib : SysTime.obj ($Tramp$S$$SysTime_Passed)
                  85016530    00000010                 : SysTime.obj ($Tramp$S$$SysTime_Future)
                  85016540    00000010                 : SysTime.obj ($Tramp$S$$SysTime_Now)
                  85016550    00000010     Platformlib_sub.lib : uart_write.obj ($Tramp$S$$uart_write)

.ddrdata   0    85016560    00008530     UNINITIALIZED
                  85016560    00006c28     DataIf.lib : DDCRx.obj (.ddrdata)
                  8501d188    00000008     --HOLE--
                  8501d190    00001900     CmdIfMgr.lib : CmdIf.obj (.ddrdata)

.hostregion 
*          0    8501ea90    00006800     UNINITIALIZED
                  8501ea90    00006800     Platformlib.lib : cppi_qmss_mgmt.obj (.hostregion)

.qmss      0    85025300    00002400     UNINITIALIZED
                  85025300    00002400     ti.drv.qmss.ae66 : qmss_drv.oe66 (.qmss)

.cppi      0    85027700    00000200     UNINITIALIZED
                  85027700    00000200     ti.drv.cppi.ae66 : cppi_drv.oe66 (.cppi)

.srioSharedMem 
*          0    85027900    00000100     UNINITIALIZED
                  85027900    00000100     ti.drv.srio.ae66 : srio_drv.oe66 (.srioSharedMem)


LINKER GENERATED COPY TABLES

__TI_cinit_table @ 8314fd2c records: 8, size/record: 8, table size: 64
	.fardata.3: load addr=8314ede8, load size=00000e44 bytes, run addr=8314bf40, run size=0000204a bytes, compression=rle
	.rodata: load addr=8314fc2c, load size=0000003a bytes, run addr=8314ec90, run size=00000034 bytes, compression=rle
	.neardata: load addr=8314fc68, load size=00000036 bytes, run addr=8314eb60, run size=0000012d bytes, compression=rle
	.fardata.2: load addr=8314fca0, load size=00000026 bytes, run addr=83149560, run size=00000020 bytes, compression=rle
	.critical_section_reference: load addr=8314fcc8, load size=00000025 bytes, run addr=80100000, run size=00000020 bytes, compression=rle
	.fardata.1: load addr=8314fcf0, load size=00000016 bytes, run addr=83107568, run size=00000018 bytes, compression=rle
	.delcomObj: load addr=8314fd08, load size=0000000d bytes, run addr=83000000, run size=00107562 bytes, compression=rle
	.critical_section: load addr=8314fd18, load size=0000000b bytes, run addr=80000000, run size=0000096c bytes, compression=rle


LINKER GENERATED HANDLER TABLE

__TI_handler_table @ 8314fd24 records: 2, size/record: 4, table size: 8
	index: 0, handler: __TI_decompress_rle24
	index: 1, handler: __TI_decompress_none


FAR CALL TRAMPOLINES

callee name               trampoline name
   callee addr  tramp addr   call addr  call info
--------------  -----------  ---------  ----------------
$.nocache:Platformlib.lib<phy.obj>$0x278  $Tramp$S$$Check_for_phy_status
   85016278     00844040     00825ba0   Platformlib.lib : Ethernet_config.obj (.text)
$.nocache:Platformlib.lib<phy.obj>$0x0  $Tramp$S$$phy_read_write
   85016000     00844050     0080ebc0   Platformlib.lib : cpsw_mgmt.obj (.text)
                             0080ebc8                   : cpsw_mgmt.obj (.text)
$.text:GenUtil.lib<SysTime.obj>$0x288  $Tramp$S$$SysTime_Passed
   008242a8     85016520     85016254   Platformlib.lib : phy.obj (.nocache)
                             85016264                   : phy.obj (.nocache)
                             850162b0                   : phy.obj (.nocache)
                             850162c8                   : phy.obj (.nocache)
                             85016324                   : phy.obj (.nocache)
                             85016338                   : phy.obj (.nocache)
$.text:GenUtil.lib<SysTime.obj>$0x14c  $Tramp$S$$SysTime_Future
   0082416c     85016530     8501624c   Platformlib.lib : phy.obj (.nocache)
                             850162a8                   : phy.obj (.nocache)
                             85016318                   : phy.obj (.nocache)
$.text:GenUtil.lib<SysTime.obj>$0x0  $Tramp$S$$SysTime_Now
   00824020     85016540     85016240   Platformlib.lib : phy.obj (.nocache)
                             8501629c                   : phy.obj (.nocache)
                             8501630c                   : phy.obj (.nocache)
$.text:Platformlib_sub.lib<uart_write.obj>$0x84  $Tramp$S$$uart_write
   008354c4     85016550     85016018   Platformlib.lib : phy.obj (.nocache)
                             850160a8                   : phy.obj (.nocache)
                             85016300                   : phy.obj (.nocache)
                             85016360                   : phy.obj (.nocache)

[6 trampolines]
[19 trampoline calls]


GLOBAL SYMBOLS: SORTED ALPHABETICALLY BY Name 

address    name
--------   ----
8314eb54   AGC_PA_TMA
00802430   AddMACAddress0
0080288c   AddMACAddress1
00814c58   Alloc
00814dec   Alloc_CoreSafe
00814ac0   Alloc_REG1
00814934   Alloc_REG2
008148d4   Alloc_v2
8314ec78   Boardnum
8314eb78   BurstSeqNo
00841fe0   C$$EXIT
0083f938   C$$IO$$
8314eb18   CLAIM_SPI_MAGIC
00841ce0   CSL_GPIO_open
00841d00   CSL_SRIO_Open
008360a0   CSL_chipReadReg
008368d8   CSL_intcGlobalDisable
008368b8   CSL_intcGlobalEnable
0083694c   CSL_intcGlobalExcepClear
00836924   CSL_intcGlobalExcepEnable
00836938   CSL_intcGlobalExtExcepEnable
00836910   CSL_intcGlobalNmiEnable
008368f8   CSL_intcGlobalRestore
00836870   CSL_intcInterruptClear
00836850   CSL_intcInterruptDisable
00836830   CSL_intcInterruptEnable
0083688c   CSL_intcInterruptRestore
00836880   CSL_intcInterruptSet
008368a4   CSL_intcQueryInterruptStatus
00834280   CSL_tmrGetBaseAddress
00834400   CSL_tmrHwSetup
00842060   CSL_tmrInit
0083ac40   CSL_tmrOpen
00842080   CSL_tscEnable
00842088   CSL_tscRead
85016278   Check_for_phy_status
00806788   CmdIf_AllocPacket
00806df4   CmdIf_FPGAInterrupt
008074cc   CmdIf_FreePacket
008067a4   CmdIf_GetHandler
008074c4   CmdIf_GetRcvQ
0080734c   CmdIf_Init
008069c8   CmdIf_SendPacket
0080730c   CmdIf_Start
00821db4   CmdPkt_GetCommand
00821d94   CmdPkt_GetDataCount
00822050   CmdPkt_GetHeader
00821c90   CmdPkt_GetPacketType
00822048   CmdPkt_GetParam
00821c6c   CmdPkt_GetReceiver
00821c40   CmdPkt_GetSender
00822040   CmdPkt_GetSeqNumber
00822018   CmdPkt_IsWritePkt
00821fc0   CmdPkt_Make
00821f98   CmdPkt_Parse
00821f90   CmdPkt_SetHeader
00821f74   CmdPkt_UpdatePacketType
00821f58   CmdPkt_UpdateReceiver
00821f40   CmdPkt_UpdateSender
00821ee8   CmdPkt_ValidatePacket
00800048   CmdRouter_CheckChannelConfig
00800588   CmdRouter_DeleteChannel
0080062c   CmdRouter_GetCoreInfo
008010a4   CmdRouter_GetCoreInfoTx
00801c70   CmdRouter_MakeFailureSts
00801b70   CmdRouter_MapCmdToCore
008016f8   CmdRouter_MapRxCmdToCore
00801454   CmdRouter_MapTxCmdToCore
00801010   CmdRouter_UpdateRxCmdRouterOnResponse
00804280   Convert_CoreLocal2GlobalAddr
0084d88c   Core_Num
0081b7a4   CountingSem_Init
0083bf00   Cppi_channelEnable
008154a0   Cppi_configureRxFlow
00841d20   Cppi_getFlowId
00841d40   Cppi_init
00831480   Cppi_initCfg
00823c60   Cppi_initDescriptor
0082ce20   Cppi_open
008213c0   Cppi_rxChannelOpen
0083d260   Cppi_setCpdmaLoopback
0081e1e0   Cppi_txChannelOpen
00805324   Cpsw_RxISR
0083fd20   CycleDelay
00806608   DDCRX_PrintList
00806008   DDCRx_GetTimeStamp
00806500   DDCRx_Init
8314eb70   DDCRx_IsInitialized
0083526c   DDCRx_JobAlloc
008351f4   DDCRx_JobFree
008351d0   DDCRx_QueueGetSize
00835180   DDCRx_QueueInit
008057e8   DDCRx_RemoveJobonStopCmd
0080576c   DDCRx_Start
00805720   DDCRx_ValidateConfig
0c000000   DDC_RxPacket
8314ec90   DEVICE_ID1_16BIT
8314ec94   DEVICE_ID1_8BIT
8314ec98   DEVICE_ID2_16BIT
8314ec9c   DEVICE_ID2_8BIT
8314eca0   DEVICE_ID3_16BIT
8314eca4   DEVICE_ID3_8BIT
8314eca8   DEVICE_ID4_16BIT
8314ecac   DEVICE_ID4_8BIT
8314b450   DSP_temp
0083d818   Debug_isr
00802d30   Download_PAFirmware
008255c0   DspToIpu_Init
008255b0   DspToIpu_Start
008137b0   DsptoFlash_writeImage
8501d190   EthBuffTx
00838120   Eth_Debug
00805070   Eth_ReceivePacketTask
008067ac   EtherNetIPU_callback
00825d34   Ethernet_GetHandle
00825bcc   Ethernet_Init
00825bb8   Ethernet_InitCallBack
00808054   Ethernet_Log_Task
0082e1a0   FIFO_Get
0082e22c   FIFO_GetSize
0082e1e0   FIFO_Init_v2
0082e0b4   FIFO_Print
0082e078   FIFO_Put_v2
8314b460   FPGA_Hm
00807ca4   Fpga_FwUpg
00814894   Free
008148c8   Free_CoreSafe
00814870   Free_REG1
0081484c   Free_REG2
00814828   Free_v2
8314ec76   Fw_upgrade_FPGA
80000000   GBTS
800005b0   GBTSSEM
8314b470   GPS_DATA
8314ebb9   GPS_FLAG
0080a260   GPS_initToFPGA
0080a1c4   GPS_stopToFPGA
0081ba20   GSMTime_Add
0081bd58   GSMTime_AddTime
0081bd48   GSMTime_Copy
0081bccc   GSMTime_DecTN
0081b884   GSMTime_FN
0081bcc0   GSMTime_FrameCountInit
0081b9d4   GSMTime_Inc
0081bc8c   GSMTime_IncTN
0081bc80   GSMTime_Init
0081bc68   GSMTime_IsEquTime
0081bc2c   GSMTime_IsLessOrEquThanTime
0081bbf8   GSMTime_IsLessThanTime
0081bbc0   GSMTime_IsMoreOrEquThanTime
0081bb90   GSMTime_IsMoreThanTime
0081bb48   GSMTime_MFN
0081bac4   GSMTime_Print
0081ba8c   GSMTime_RollForward
0081b92c   GSMTime_SFN
0081ba84   GSMTime_SetFN
0081ba78   GSMTime_SetTN
0081ba68   GSMTime_Sub
0081b9c4   GSMTime_SubTime
0081b958   GSMTime_T1
0081b968   GSMTime_T1R
0081b94c   GSMTime_T1p
0081b900   GSMTime_T2
0081b8ac   GSMTime_T3
0081b8d8   GSMTime_T3p
0081b888   GSMTime_TC
0081b880   GSMTime_TN
0083eb60   GateMP_Params_init
008361e0   GateMP_close
0083d2e0   GateMP_create
0082f340   GateMP_enter
0082f540   GateMP_leave
008273c0   GateMP_openByAddr
008260a0   GateMP_sharedMemReq
0081480c   GetHashInfoHandlerv2
008340e4   Gpi_DisableIntr
008340d0   Gpi_EnableIntr
00833fc4   Gpi_Init
00833fb4   Gpi_Print
00833f80   Gpi_Read
8314eb58   GpioHandle
0083ec80   Gpio_Init
00836498   Gpo_Clear
00836524   Gpo_Init
00836514   Gpo_IsPinEqual
00836460   Gpo_IsSet
00836510   Gpo_Print
008364c8   Gpo_Set
008364f4   Gpo_Toggle
0083bfa0   HOSTclose
00838220   HOSTlseek
00839020   HOSTopen
0083a280   HOSTread
00832260   HOSTrename
0083a340   HOSTunlink
0083a400   HOSTwrite
008321f8   HSEM_Init
00832164   HSEM_Lock
00832124   HSEM_ModuleInit
008320c0   HSEM_Unlock
0083d360   HeapBufMP_Params_init
00839100   HeapBufMP_create
00826a60   HeapBufMP_open
00832400   HeapBufMP_openByAddr
0081e6a0   HeapBufMP_sharedMemReq
0083ebc0   HeapMemMP_Params_init
0083a4c0   HeapMemMP_create
008325a0   HeapMemMP_openByAddr
00825640   HeapMemMP_sharedMemReq
8314ec68   IDBCounter
00811b70   IIPC_FreeMsg
00811b40   IIPC_Init
8314df08   IPUdestAddr
00805558   IncrementPktMiss
00804554   Init_Cppi
0080ea30   Init_Cpsw
0080e900   Init_MAC
0080e8f8   Init_MDIO
00802de8   Init_PASS
008042ac   Init_Qmss
0080e7b8   Init_SGMII
0080e6b4   Init_SGMII_SERDES
0080e588   Init_Switch
0082fed8   Init_timestamp_obj
00814760   Initialize_HashNewBucket_v2
0083fce0   IntrDB_GetIntrTableParam
00830ab8   Intr_DisableEvent
00830a68   Intr_EnableEvent
00830940   Intr_Init
0080ad20   Ipc_attach
8314eb5c   Ipc_sr0MemorySetup
0082ac20   Ipc_start
0083a580   ListMP_create
00818b60   ListMP_getHead
0082f740   ListMP_openByAddr
00820240   ListMP_putTail
0082bb20   ListMP_sharedMemReq
8314df10   Mac1
8314df18   Mac2
008066a4   Mcbsp_Callback
0082348c   Mcbsp_DisableRxIntr
00823478   Mcbsp_EnableRxIntr
00823470   Mcbsp_GetRxDataPtr
00823468   Mcbsp_GetTransferStatus
00823460   Mcbsp_GetTxDataPtr
008233b8   Mcbsp_Init
0082338c   Mcbsp_IsBusy
00823388   Mcbsp_Print
00823348   Mcbsp_Read
00823174   Mcbsp_TxIntrHandler_new
008232c4   Mcbsp_Write
83107508   MemListv2
00837620   MemMgr_InitCriticalMemory
008375e0   MemMgr_InitHeapMemory
8314ebc6   MesgQ_Initialized
00811808   MessageQ_Init
00827fc0   MessageQ_alloc
0083fca0   MessageQ_create
0083a640   MessageQ_create2
0081bde0   MessageQ_free
0082e240   MessageQ_get
008296c0   MessageQ_open
0080ec00   MessageQ_put
00836320   MessageQ_registerHeap
0081efd0   ModMgr_GetInstance
0081eb70   ModMgr_Init
0081eeb4   ModMgr_Start
0081178c   MsgQ_Create
008114d0   MsgQ_Open
00841d60   MultiProc_self
0081b6b8   Mutex_Init
0081b6a8   Mutex_Lock
0081b690   Mutex_Lock_Timeout
0081b680   Mutex_Unlock
00814e00   NameServer_add
0081c320   NameServer_get
00829f00   NameServer_getLocal
008352e0   Notify_attach
00833e00   Notify_intLineRegistered
008179c0   Notify_registerEventSingle
008167a0   Notify_sendEvent
00817fa0   Notify_unregisterEventSingle
8314ebac   Num_FpgaHmrequested
8314eba8   Num_FpgaIntReceived
0080bfac   Osal_CacheInvalidate
0080bf70   Osal_CacheWriteback
0080beec   Osal_DataBufferFree
0080be44   Osal_DataBufferMalloc
0080be40   Osal_MultiCoreEnter
0080be38   Osal_MultiCoreExit
0080be28   Osal_SingleCoreEnter
0080be14   Osal_SingleCoreExit
0080bdc4   Osal_cppiBeginMemAccess
0080bda0   Osal_cppiCsEnter
0080bd78   Osal_cppiCsExit
0080bd34   Osal_cppiEndMemAccess
0080bd0c   Osal_cppiFree
0080bce0   Osal_cppiMalloc
0080bc30   Osal_dataBufferInitMemory
0080bbac   Osal_paBeginMemAccess
0080bb68   Osal_paEndMemAccess
0080bb64   Osal_paMtCsEnter
0080bb60   Osal_paMtCsExit
0080bb0c   Osal_qmssBeginMemAccess
0080bae8   Osal_qmssCsEnter
0080bac4   Osal_qmssCsExit
0080ba80   Osal_qmssEndMemAccess
0080ba54   Osal_qmssFree
0080ba28   Osal_qmssMalloc
0080ba04   Osal_qmssMtCsEnter
0080b9e0   Osal_qmssMtCsExit
0080b9d8   Osal_srioBeginDescriptorAccess
0080b990   Osal_srioBeginMemAccess
0080b96c   Osal_srioCreateSem
0080b8e4   Osal_srioDataBufferFree
0080b834   Osal_srioDataBufferMalloc
0080b828   Osal_srioDeleteSem
0080b820   Osal_srioEndDescriptorAccess
0080b7e4   Osal_srioEndMemAccess
0080b7e0   Osal_srioEnterMultipleCoreCriticalSection
0080b7c0   Osal_srioEnterSingleCoreCriticalSection
0080b7b8   Osal_srioExitMultipleCoreCriticalSection
0080b7a0   Osal_srioExitSingleCoreCriticalSection
0080b778   Osal_srioFree
0080b764   Osal_srioLog
0080b734   Osal_srioMalloc
0080b728   Osal_srioPendSem
0080b718   Osal_srioPostSem
8314ec00   PACK_FROM_IPU
00813980   Pa_addMac
008263e0   Pa_create
00832740   Pa_downloadImage
0083ec20   Pa_formatStatsReply
008282a0   Pa_forwardResult
0083d3e0   Pa_getBufferReq
00841d80   Pa_requestStats
0082d060   Pa_resetControl
850164a8   Pak
850164e0   PakT
0083fd60   Qmss_ackInterrupt
8314df88   Qmss_cdmaEoiVector
00837700   Qmss_disableAccumulator
0083fda0   Qmss_getMemRegDescSize
0083d460   Qmss_getMemRegQueueHandle
008355a0   Qmss_getMemoryRegionCfg
00841da0   Qmss_getQueueHandle
00841dc0   Qmss_getQueueNumber
83149560   Qmss_highEoiVector
00826720   Qmss_init
0080fc40   Qmss_insertMemoryRegion
8314dea0   Qmss_lowEoiVector
0082fb40   Qmss_programAccumulator
0083c040   Qmss_queueClose
0083d4e0   Qmss_queueOpen
0083a700   Qmss_setEoiVector
0083a7c0   Qmss_setQueueThreshold
00841de0   Qmss_start
0083c0e0   Qmss_startCfg
8314ec41   RF_HM_RECORD
8314ebb1   RF_READ_WRITE
8314b458   RF_temp
00800000   Router_Init
0082fe94   START
0082fd40   STOP
00804ee8   SendEthPacket
00802d0c   Setup_PASS
00804914   Setup_Rx
008047a8   Setup_Tx
008328e0   SharedRegion_getCacheLineSize
00828580   SharedRegion_getEntry
00832a80   SharedRegion_getHeap
00828860   SharedRegion_getPtr
0082aea0   SharedRegion_getSRPtr
00832c20   SharedRegion_isCacheEnabled
0081b66c   Signal_Enable
0081b5a4   Signal_Init
0081b574   Signal_Pend
0081b560   Signal_Poll
0081b54c   Signal_Post
00808200   SrioDevice_init
008122e8   SrioDoorbellInterrupt
008122c0   SrioErrorInterrupt
008122a4   SrioLSUInterrupt
850163a8   SrioPakt
00812244   Srio_Init
00811ec0   Srio_InitDBCallBack
0081f234   Srio_TxDoorBell
0081efe0   Srio_TxPacket
0082a1a0   Srio_init
008276c0   Srio_start
0080a198   StatMgr_Fatal
0080a190   StatMgr_GetSignalPtr
0080a0c8   StatMgr_Init
00809acc   StatMgr_Start
00809ab4   StatusUpdate_Time
0080e380   Switch_update_addr
00824378   SysTime_AddUsecs
00824080   SysTime_Cmp
008241ec   SysTime_Delta
00824110   SysTime_DeltaUs
00824228   SysTime_Elapsed
0082416c   SysTime_Future
00824350   SysTime_Get
00824304   SysTime_Init
00824020   SysTime_Now
008242a8   SysTime_Passed
00824264   SysTime_Print
00824254   SysTime_Remaining
00824144   SysTime_RemainingUs
008240e0   SysTime_isTimeOver
0081ef8c   TRS_main
8314ec58   TSCLin
8314dca0   TSK_idle
0081b44c   Task_Init
0081b358   Task_Init1
0081b344   Task_SetPri
0081b330   Task_Start
0081b320   Task_Stop
8314ec88   TimerReg
00823878   Timer_Add
00823874   Timer_Delete
00823848   Timer_GetTicksMsec
00823814   Timer_GetTicksSec
008237a8   Timer_GetTicksUsec
00823654   Timer_Init
00823620   Timer_Print
00823560   Timer_Restart
008234e0   Timer_Start
008234a0   Timer_Stop
8314eba0   TotalProcessed
00811490   Transmit_BurstMesg
00811450   Transmit_LogMesg
00811410   Transmit_Mesg
0082e558   UartInit
0082e4c4   UartIsDataReady
0082e648   UartReadBaudRate
0082e4e8   UartReadData
0082e460   UartSetBaudRate
00835470   UartWriteData
00809a98   Update_DSP_Temp
00809a44   Update_FPGA_HM
008099a4   Update_GSP_data
008098d8   Update_RF_Status
008098c0   Update_RF_Temp
8314b448   VGA_Status
8314ea70   _CSL_intcCpuIntrTable
8314eab8   _CSL_intcEventHandlerRecord
00836820   _CSL_intcIvpSet
8314eab4   _CSL_intcNumEvents
00859000   _CSL_intcVectorTable
00800000   __ASM__
8314ecc8   __CIOBUF_
00800060   __ISA__
00800078   __PLAT__
00800098   __TARG__
8314fd2c   __TI_CINIT_Base
8314fd6c   __TI_CINIT_Limit
8314fd24   __TI_Handler_Table_Base
8314fd2c   __TI_Handler_Table_Limit
UNDEFED    __TI_INITARRAY_Base
UNDEFED    __TI_INITARRAY_Limit
00858b88   __TI_STACK_END
00008000   __TI_STACK_SIZE
8314ea70   __TI_STATIC_BASE
00000001   __TI_args_main
008420a0   __TI_decompress_none
008420c0   __TI_decompress_rle24
8314dee8   __TI_enable_exit_profile_output
ffffffff   __TI_pprof_out_hndl
ffffffff   __TI_prof_data_size
ffffffff   __TI_prof_data_start
008000c0   __TRDR__
ffffffff   __binit__
00819120   __c6xabi_divd
0083aac0   __c6xabi_divu
00832dc0   __c6xabi_divul
0082d2a0   __c6xabi_divull
0083d560   __c6xabi_fixdu
0083ece0   __c6xabi_frcmpyd_div
0083fde0   __c6xabi_isinf
0083d5e0   __c6xabi_llshl
0083ed40   __c6xabi_llshru
00841e00   __c6xabi_negll
00841e60   __c6xabi_pop_rts
00841e80   __c6xabi_push_rts
0083c180   __c6xabi_remu
0083eda0   __c6xabi_remull
0083fe60   __c6xabi_strasgi_64plus
ffffffff   __c_args__
00841e20   __cxa_atexit
0083aa00   __cxa_finalize
00841e40   __cxa_ia64_exit
0083aac0   __divu
00841e60   __pop_rts
00841e80   __push_rts
0083c180   __remu
0083fe60   __strasgi_64plus
00841ea0   __xdc__init
8314cfa4   __xdc__init__addr
0083fea0   _args_main
00000000   _argsize
008365a0   _auto_init_elf
0083c220   _c_int00
0083c2c0   _cleanup
8314dee0   _cleanup_ptr
00837820   _closefile
0084efa8   _ctypes_
0083ab80   _doflush
8314dee4   _dtors_ptr
8314d434   _ft_end
8314cfa8   _ftable
8314defc   _lock
00841ec0   _nop
008206a0   _printfi
00841f60   _register_lock
00841f80   _register_unlock
00850b88   _stack
0083ee00   _subcull
8314ba20   _tmpnams
8314df00   _unlock
00838320   _wrt_ok
00841fe0   abort
0084c330   acc48_le
00842000   atexit
008392c0   atoi
83147580   bFreeID
8314eb56   bGpioInitialized
8314eb8c   bStampflag
ffffffff   binit
0080b6f4   biosFree
0080b6c0   biosMalloc
00846c40   c1
8314ecb8   c1Size
0084a2b8   c2
8314ecbc   c2Size
008393a0   close
8314b420   coreKey
8314dc28   cppiGblCfgParams
8314de9c   cppiLObj
85027700   cppiObject
00830340   cppi_internal_heap_add
0083d6e0   cppi_internal_heap_cache_begin
0083c5e0   cppi_internal_heap_malloc
0083ef20   cppi_list_add
0083ef80   cppi_list_cache_invalidate
0083c680   cppi_list_cat
00842020   cppi_list_get_head
00842040   cppi_list_get_next
0083d760   cppi_list_remove
00804738   cppi_qmss_init
8314ebd0   cpswCppiFreeCounter
8314ebcc   cpswCppiMallocCounter
8314ec34   cpswLpbkMode
8314ebd8   cpswQmssFreeCounter
8314ebd4   cpswQmssMallocCounter
8314ec30   cpswSimTest
0080552c   ddcRx_config_srio
0083d7e0   debug_intr
008230f8   delay
00811be4   dioExampleTask
8314ebfc   doorbellisrserviced
8500c000   ethLogBuffTx
850163a0   ethLogBuffTxcount
00825a60   ethernet_PHY_SGMII_init
0083ad00   exit
8314ec28   first_halfrate
8314ead8   five
00813750   flash_init
8314ead4   four
0082e8a0   fputc
00824f20   fputs
0083ffe0   free
8314ebe0   free_counter
00837a60   fseek
00807b00   fw_upgrade_callback
8314de90   gBTS
8314de94   gBTSSem
8314eb10   gCpdmaHnd
8314bd98   gCpdmaRxChanHnd
8314bd70   gCpdmaTxChanHnd
80100000   gCriticalMemRef
8314ebe4   gCriticalMemRefPtr
8314eb60   gDDCDBellCounter
8501c588   gDDCNextBurstContextTable
8314eae4   gDDCRx
8314b060   gDataBufferMemMgr
8314ebc8   gDataBufferMemMgrMaxSize
83100000   gDelcomMemL1FECSeg
83000000   gDelcomMemSeg
8314dd70   gDeviceNor
8314eb00   gGlobalFreeQHnd
00858e00   gHiPriAccumList
8501ea90   gHostDesc
8314ec02   gIsPingListUsed
83149680   gMemL2Ram
83149a80   gMemL3Ram
83149580   gPAInst
8314eb4c   gPAInstHnd
8314eb48   gPaCfgCmdRespQHnd
8314aa80   gPaL2Handles
8314aaa8   gPaL3Handles
8314aaf8   gPaL4Handles
8314bd48   gPaTxQHnd
8314eb68   gPacketNumber
8314eb14   gRxFlowHnd
8314eb08   gRxFreeQHnd
8314eb0c   gRxQHnd
831475b8   gRxRouter
8314de98   gSRIO
85027900   gSRIODriverMCB
8314eb04   gTxFreeQHnd
831489d8   gTxRouter
00801d18   getPaStats
8314eb34   hAppManagedSrioDrv
8314eb38   hDrvManagedSrioDrv
8314eb3c   hSrioCSL
8314ecb0   heap1
8314ecb4   heap2
8314eb28   heapHandle_0
8314eb2c   heapHandle_1
8314eb30   heapHandle_2
85023a90   host_region
0083c7c0   lseek
00839480   ltoa
00848a08   m
8314ecc0   mSize
8314df20   macAddress1
008420e0   main
0083d860   malloc
8314ebdc   malloc_counter
8314eb8a   max
00801d00   mdebugHaltPdsp
8314ec3c   mdebugWait
850160e4   mdio_write
0083efe0   memccpy
0083c860   memcpy
00839560   memset
8314beb0   messageQ
8314eb88   min
008113e0   msgQ_name_get
8314deb0   msgQ_type_tbl
8314ec2a   nAJTxChannel
8314eb80   nAllocTune
8314ec2b   nCBTxChannel
8314ec1c   nConfigCount
8314eae8   nCurrDiff
8314eaf8   nDiff
8314ebbc   nFreeRxTune
8314ebc4   nHM_Data_2Min
8314ec18   nMaxRxChannel
8314ec29   nMaxTxChannel
8314eb98   nOldSeqNum
8314eaf0   nPrevDiff
8314ec40   nRxActive
8314ebc0   nRxTuneRead
8314eb84   nRxTuneWrite
8314ec08   nSequenceNo
8314eb40   nSetTSC
8314ec24   nSetUnsetTSCCount
8314ebf0   nSrio1DoorBellCount
8314ec20   nStopCount
8314ec10   nSwSeqNo
8314ec2c   nVBTSTxChannel
8314bea0   nextQueueName
008135e8   nor_erase
00813558   nor_get_details
008134a8   nor_init
0081341c   nor_read
008132c4   nor_write
8314eb90   num_times
8314b8ac   oCurrTime
00858cd0   oDDCTimeStamp
85016560   oDebugDDCRx
8314b8b4   oPrevTime
8314b6a4   oQueue
800005b8   oRxCalibration
8314b5a2   oRxPacket
800007b8   oSrio
8314b480   oTxPacket
8314eac8   one
8314ebb4   pCmdIfHandle
8314eabc   pEthernet
8314eb44   pPkt
8314de8c   pRxCalibration
8314eac0   pSrio
8314ec70   pTxPacket
8314eb24   pUpgradeCmd
8314eb20   pUpgradeCmdIfHandle
00858b90   paCmdBuf
8314deec   paLObj
00850538   paMemAligns
0084f5e8   pap_pdsp_const_reg_map
008259c0   passPowerUp
85016000   phy_read_write
008230c0   platform_delay
00835440   platform_delaycycles
8314ec80   platform_errno
0082e618   platform_uart_init
0082e4f4   platform_uart_read
0082e488   platform_uart_set_baudrate
008354b4   platform_uart_write
8314ec38   port0
00839640   printf
85027300   qmssGObj
8314d438   qmssGblCfgParams
8314bb60   qmssLObj
8314ec8c   qmssLObjIsValid
85025300   queueFree
0083d960   readmsg
8314bec0   remoteQueueId
0083e7e0   remove
8314ec5c   retry
00830540   setvbuf
8314eae0   seven
8314eadc   six
0081b1f4   spi_claim
0081b150   spi_cmd
0081b0b4   spi_cmd_read
0081b018   spi_cmd_write
0081afa8   spi_read_word
0081af98   spi_release
0081af44   spi_write_word
0081ada0   spi_xfer
0083f100   sprintf
8314ebe8   srioDbgDioIsrCnt
8314ec64   srioDioLsuBadTransfers
8314ec60   srioDioLsuGoodTransfers
8314ebf8   srioLsuIsrServiced
83106640   theModMgr
8314ead0   three
0084e544   ti_sdo_ipc_GateMP_A_invalidClose__C
0084f5e4   ti_sdo_ipc_GateMP_A_invalidDelete__C
0084f6ec   ti_sdo_ipc_GateMP_E_gateUnavailable__C
00850014   ti_sdo_ipc_GateMP_E_localGate__C
0080c940   ti_sdo_ipc_GateMP_Instance_finalize__F
00803060   ti_sdo_ipc_GateMP_Instance_init__F
0085028c   ti_sdo_ipc_GateMP_LM_create__C
008502ac   ti_sdo_ipc_GateMP_LM_delete__C
008502cc   ti_sdo_ipc_GateMP_LM_enter__C
008502ec   ti_sdo_ipc_GateMP_LM_leave__C
0085030c   ti_sdo_ipc_GateMP_LM_open__C
8314bf40   ti_sdo_ipc_GateMP_Module_State_0_remoteCustom1Gates__A
8314df28   ti_sdo_ipc_GateMP_Module_State_0_remoteCustom2Gates__A
8314d8b0   ti_sdo_ipc_GateMP_Module_State_0_remoteSystemGates__A
0085032c   ti_sdo_ipc_GateMP_Module__diagsEnabled__C
0085034c   ti_sdo_ipc_GateMP_Module__diagsIncluded__C
0085036c   ti_sdo_ipc_GateMP_Module__diagsMask__C
0084d88a   ti_sdo_ipc_GateMP_Module__id__C
0084f0aa   ti_sdo_ipc_GateMP_Module__loggerDefined__C
0085038c   ti_sdo_ipc_GateMP_Module__loggerFxn2__C
008503ac   ti_sdo_ipc_GateMP_Module__loggerFxn4__C
00850534   ti_sdo_ipc_GateMP_Module__loggerObj__C
8314cc40   ti_sdo_ipc_GateMP_Module__root__V
8314cc48   ti_sdo_ipc_GateMP_Module__state__V
0084fdf4   ti_sdo_ipc_GateMP_Object__DESC__C
0084f894   ti_sdo_ipc_GateMP_Object__PARAMS__C
0083ae80   ti_sdo_ipc_GateMP_Object__create__S
00840060   ti_sdo_ipc_GateMP_Object__delete__S
008400a0   ti_sdo_ipc_GateMP_Params__init__S
008400e0   ti_sdo_ipc_GateMP_RemoteCustom1Proxy_Object__create__S
00842140   ti_sdo_ipc_GateMP_RemoteCustom1Proxy_Object__delete__S
00842160   ti_sdo_ipc_GateMP_RemoteCustom1Proxy_Params__init__S
00842180   ti_sdo_ipc_GateMP_RemoteCustom1Proxy_Proxy__abstract__S
008421a0   ti_sdo_ipc_GateMP_RemoteCustom1Proxy_Proxy__delegate__S
008421c0   ti_sdo_ipc_GateMP_RemoteCustom1Proxy_getReservedMask__E
008421e0   ti_sdo_ipc_GateMP_RemoteCustom1Proxy_sharedMemReq__E
00840120   ti_sdo_ipc_GateMP_RemoteCustom2Proxy_Object__create__S
00842200   ti_sdo_ipc_GateMP_RemoteCustom2Proxy_Object__delete__S
00842220   ti_sdo_ipc_GateMP_RemoteCustom2Proxy_Params__init__S
00842240   ti_sdo_ipc_GateMP_RemoteCustom2Proxy_Proxy__abstract__S
00842260   ti_sdo_ipc_GateMP_RemoteCustom2Proxy_Proxy__delegate__S
00842280   ti_sdo_ipc_GateMP_RemoteCustom2Proxy_getReservedMask__E
008422a0   ti_sdo_ipc_GateMP_RemoteCustom2Proxy_sharedMemReq__E
00840160   ti_sdo_ipc_GateMP_RemoteSystemProxy_Object__create__S
008422c0   ti_sdo_ipc_GateMP_RemoteSystemProxy_Object__delete__S
008422e0   ti_sdo_ipc_GateMP_RemoteSystemProxy_Params__init__S
00842300   ti_sdo_ipc_GateMP_RemoteSystemProxy_Proxy__abstract__S
00842320   ti_sdo_ipc_GateMP_RemoteSystemProxy_Proxy__delegate__S
00842340   ti_sdo_ipc_GateMP_RemoteSystemProxy_getReservedMask__E
00842360   ti_sdo_ipc_GateMP_RemoteSystemProxy_sharedMemReq__E
00842380   ti_sdo_ipc_GateMP_attach__E
00830b20   ti_sdo_ipc_GateMP_attach__F
00835700   ti_sdo_ipc_GateMP_createLocal__F
00830d00   ti_sdo_ipc_GateMP_getFreeResource__I
008423a0   ti_sdo_ipc_GateMP_getRegion0ReservedSize__E
0083af40   ti_sdo_ipc_GateMP_getRegion0ReservedSize__F
008423c0   ti_sdo_ipc_GateMP_getSharedAddr__E
008423e0   ti_sdo_ipc_GateMP_getSharedAddr__F
00832f60   ti_sdo_ipc_GateMP_openRegion0Reserved__F
0081d2e0   ti_sdo_ipc_GateMP_setRegion0Reserved__F
00842400   ti_sdo_ipc_GateMP_start__E
00837b80   ti_sdo_ipc_GateMP_start__F
008505e8   ti_sdo_ipc_Ipc_A_addrNotCacheAligned__C
008505ec   ti_sdo_ipc_Ipc_A_addrNotInSharedRegion__C
008505f0   ti_sdo_ipc_Ipc_A_internal__C
008505f4   ti_sdo_ipc_Ipc_A_invArgument__C
008505f8   ti_sdo_ipc_Ipc_A_invParam__C
008505fc   ti_sdo_ipc_Ipc_A_nullArgument__C
00850600   ti_sdo_ipc_Ipc_A_nullPointer__C
00850604   ti_sdo_ipc_Ipc_E_internal__C
00850608   ti_sdo_ipc_Ipc_E_nameFailed__C
0085060c   ti_sdo_ipc_Ipc_E_versionMismatch__C
8314d6e8   ti_sdo_ipc_Ipc_Module_State_0_procEntry__A
00850610   ti_sdo_ipc_Ipc_Module__diagsEnabled__C
00850614   ti_sdo_ipc_Ipc_Module__diagsIncluded__C
00850618   ti_sdo_ipc_Ipc_Module__diagsMask__C
0084fdf2   ti_sdo_ipc_Ipc_Module__id__C
8314cc98   ti_sdo_ipc_Ipc_Module__state__V
008502aa   ti_sdo_ipc_Ipc_generateSlaveDataForHost__C
0085061c   ti_sdo_ipc_Ipc_numUserFxns__C
00820f60   ti_sdo_ipc_Ipc_procSyncFinish__I
0081c860   ti_sdo_ipc_Ipc_procSyncStart__I
00850620   ti_sdo_ipc_Ipc_procSync__C
00850624   ti_sdo_ipc_Ipc_userFxns__C
0082bd80   ti_sdo_ipc_ListMP_Instance_finalize__F
0080d220   ti_sdo_ipc_ListMP_Instance_init__F
00850628   ti_sdo_ipc_ListMP_Module__diagsEnabled__C
0085062c   ti_sdo_ipc_ListMP_Module__diagsIncluded__C
00850630   ti_sdo_ipc_ListMP_Module__diagsMask__C
008502ca   ti_sdo_ipc_ListMP_Module__id__C
8314cca4   ti_sdo_ipc_ListMP_Module__root__V
8314ccac   ti_sdo_ipc_ListMP_Module__state__V
0084fe14   ti_sdo_ipc_ListMP_Object__DESC__C
0084f9e8   ti_sdo_ipc_ListMP_Object__PARAMS__C
0083b000   ti_sdo_ipc_ListMP_Object__create__S
008401a0   ti_sdo_ipc_ListMP_Object__delete__S
008401e0   ti_sdo_ipc_ListMP_Params__init__S
00850634   ti_sdo_ipc_MessageQ_A_cannotFreeStaticMsg__C
00850638   ti_sdo_ipc_MessageQ_A_heapIdInvalid__C
0085063c   ti_sdo_ipc_MessageQ_A_invalidMsg__C
00850640   ti_sdo_ipc_MessageQ_A_invalidObj__C
00850644   ti_sdo_ipc_MessageQ_A_invalidParam__C
00850648   ti_sdo_ipc_MessageQ_A_invalidQueueId__C
0085064c   ti_sdo_ipc_MessageQ_A_procIdInvalid__C
00850650   ti_sdo_ipc_MessageQ_A_unregisteredTransport__C
00850654   ti_sdo_ipc_MessageQ_E_indexNotAvailable__C
00850658   ti_sdo_ipc_MessageQ_E_maxReached__C
0085065c   ti_sdo_ipc_MessageQ_E_nameFailed__C
00850660   ti_sdo_ipc_MessageQ_Instance_State_highList__O
00850664   ti_sdo_ipc_MessageQ_Instance_State_normalList__O
0082d960   ti_sdo_ipc_MessageQ_Instance_finalize__F
0081d7e0   ti_sdo_ipc_MessageQ_Instance_init__F
00850668   ti_sdo_ipc_MessageQ_LM_free__C
0085066c   ti_sdo_ipc_MessageQ_LM_get__C
00850670   ti_sdo_ipc_MessageQ_LM_putLocal__C
8314ddd8   ti_sdo_ipc_MessageQ_Module_State_0_heaps__A
8314dcf0   ti_sdo_ipc_MessageQ_Module_State_0_transports__A
00850674   ti_sdo_ipc_MessageQ_Module__diagsEnabled__C
00850678   ti_sdo_ipc_MessageQ_Module__diagsIncluded__C
0085067c   ti_sdo_ipc_MessageQ_Module__diagsMask__C
008502ea   ti_sdo_ipc_MessageQ_Module__id__C
0085030a   ti_sdo_ipc_MessageQ_Module__loggerDefined__C
00850680   ti_sdo_ipc_MessageQ_Module__loggerFxn4__C
00850684   ti_sdo_ipc_MessageQ_Module__loggerObj__C
8314ccb0   ti_sdo_ipc_MessageQ_Module__root__V
8314ccb8   ti_sdo_ipc_MessageQ_Module__state__V
00842420   ti_sdo_ipc_MessageQ_Module_startup__E
00837ca0   ti_sdo_ipc_MessageQ_Module_startup__F
0084fe34   ti_sdo_ipc_MessageQ_Object__DESC__C
0084fe54   ti_sdo_ipc_MessageQ_Object__PARAMS__C
00850688   ti_sdo_ipc_MessageQ_Object__count__C
0083b0c0   ti_sdo_ipc_MessageQ_Object__create__S
0083f160   ti_sdo_ipc_MessageQ_Object__get__S
0085068c   ti_sdo_ipc_MessageQ_Object__heap__C
00850690   ti_sdo_ipc_MessageQ_Object__table__C
00840220   ti_sdo_ipc_MessageQ_Params__init__S
00842440   ti_sdo_ipc_MessageQ_SetupTransportProxy_attach__E
00842460   ti_sdo_ipc_MessageQ_SetupTransportProxy_isRegistered__E
00842480   ti_sdo_ipc_MessageQ_SetupTransportProxy_sharedMemReq__E
00850694   ti_sdo_ipc_MessageQ_maxRuntimeEntries__C
00850698   ti_sdo_ipc_MessageQ_numReservedEntries__C
00840260   ti_sdo_ipc_MessageQ_registerTransport__E
00834700   ti_sdo_ipc_MessageQ_registerTransport__F
008424a0   ti_sdo_ipc_MessageQ_unregisterTransport__E
00834880   ti_sdo_ipc_MessageQ_unregisterTransport__F
0085069c   ti_sdo_ipc_Notify_A_alreadyRegistered__C
008506a0   ti_sdo_ipc_Notify_A_internal__C
008506a4   ti_sdo_ipc_Notify_A_invArgument__C
008506a8   ti_sdo_ipc_Notify_A_notRegistered__C
008506ac   ti_sdo_ipc_Notify_A_reservedEvent__C
00838420   ti_sdo_ipc_Notify_Instance_finalize__F
00822cc0   ti_sdo_ipc_Notify_Instance_init__F
008424c0   ti_sdo_ipc_Notify_Module_GateProxy_enter__E
008424e0   ti_sdo_ipc_Notify_Module_GateProxy_leave__E
8314df30   ti_sdo_ipc_Notify_Module_State_0_notifyHandles_0__A
8314df38   ti_sdo_ipc_Notify_Module_State_0_notifyHandles_1__A
8314df40   ti_sdo_ipc_Notify_Module_State_0_notifyHandles_2__A
8314df48   ti_sdo_ipc_Notify_Module_State_0_notifyHandles_3__A
8314df50   ti_sdo_ipc_Notify_Module_State_0_notifyHandles_4__A
8314df58   ti_sdo_ipc_Notify_Module_State_0_notifyHandles_5__A
8314df60   ti_sdo_ipc_Notify_Module_State_0_notifyHandles_6__A
8314df68   ti_sdo_ipc_Notify_Module_State_0_notifyHandles_7__A
8314ddf8   ti_sdo_ipc_Notify_Module_State_0_notifyHandles__A
008506b0   ti_sdo_ipc_Notify_Module__diagsEnabled__C
008506b4   ti_sdo_ipc_Notify_Module__diagsIncluded__C
008506b8   ti_sdo_ipc_Notify_Module__diagsMask__C
008506bc   ti_sdo_ipc_Notify_Module__gateObj__C
0085032a   ti_sdo_ipc_Notify_Module__id__C
8314ccd8   ti_sdo_ipc_Notify_Module__root__V
8314cce0   ti_sdo_ipc_Notify_Module__state__V
00842500   ti_sdo_ipc_Notify_Module_startup__E
00834a00   ti_sdo_ipc_Notify_Module_startup__F
0084fe74   ti_sdo_ipc_Notify_Object__DESC__C
008503e0   ti_sdo_ipc_Notify_Object__PARAMS__C
00839720   ti_sdo_ipc_Notify_Object__create__S
008506c0   ti_sdo_ipc_Notify_Object__heap__C
00842520   ti_sdo_ipc_Notify_SetupProxy_attach__E
00842540   ti_sdo_ipc_Notify_SetupProxy_numIntLines__E
00842560   ti_sdo_ipc_Notify_SetupProxy_sharedMemReq__E
00842580   ti_sdo_ipc_Notify_exec__E
00836aa0   ti_sdo_ipc_Notify_exec__F
008506c4   ti_sdo_ipc_Notify_numEvents__C
0085034a   ti_sdo_ipc_Notify_numLines__C
0085036a   ti_sdo_ipc_Notify_reservedEvents__C
008506c8   ti_sdo_ipc_Notify_sendEventPollCount__C
008506cc   ti_sdo_ipc_SharedRegion_A_addrOutOfRange__C
008506d0   ti_sdo_ipc_SharedRegion_A_idTooLarge__C
008506d4   ti_sdo_ipc_SharedRegion_A_noHeap__C
008506d8   ti_sdo_ipc_SharedRegion_A_region0Invalid__C
008506dc   ti_sdo_ipc_SharedRegion_A_regionInvalid__C
008506e0   ti_sdo_ipc_SharedRegion_A_reserveTooMuch__C
008506e4   ti_sdo_ipc_SharedRegion_INVALIDSRPTR__C
8314d820   ti_sdo_ipc_SharedRegion_Module_State_0_regions__A
008506e8   ti_sdo_ipc_SharedRegion_Module__diagsEnabled__C
008506ec   ti_sdo_ipc_SharedRegion_Module__diagsIncluded__C
008506f0   ti_sdo_ipc_SharedRegion_Module__diagsMask__C
0085038a   ti_sdo_ipc_SharedRegion_Module__id__C
8314cce8   ti_sdo_ipc_SharedRegion_Module__state__V
008425a0   ti_sdo_ipc_SharedRegion_attach__E
00838520   ti_sdo_ipc_SharedRegion_attach__F
008425c0   ti_sdo_ipc_SharedRegion_clearReservedMemory__E
00838620   ti_sdo_ipc_SharedRegion_clearReservedMemory__F
008503aa   ti_sdo_ipc_SharedRegion_numEntries__C
008506f4   ti_sdo_ipc_SharedRegion_numOffsetBits__C
008506f8   ti_sdo_ipc_SharedRegion_offsetMask__C
008425e0   ti_sdo_ipc_SharedRegion_reserveMemory__E
008243e0   ti_sdo_ipc_SharedRegion_reserveMemory__F
00842600   ti_sdo_ipc_SharedRegion_start__E
00816dc0   ti_sdo_ipc_SharedRegion_start__F
00850532   ti_sdo_ipc_SharedRegion_translate__C
008506fc   ti_sdo_ipc_family_c647x_Interrupt_INTERDSPINT__C
00850700   ti_sdo_ipc_family_c647x_Interrupt_IPCAR0__C
00850704   ti_sdo_ipc_family_c647x_Interrupt_IPCGR0__C
00850708   ti_sdo_ipc_family_c647x_Interrupt_KICK0__C
0085070c   ti_sdo_ipc_family_c647x_Interrupt_KICK1__C
8314de18   ti_sdo_ipc_family_c647x_Interrupt_Module_State_0_args__A
8314ccec   ti_sdo_ipc_family_c647x_Interrupt_Module__state__V
00842620   ti_sdo_ipc_family_c647x_Interrupt_Module_startup__E
00838720   ti_sdo_ipc_family_c647x_Interrupt_Module_startup__F
008505d6   ti_sdo_ipc_family_c647x_Interrupt_enableKick__C
008402a0   ti_sdo_ipc_family_c647x_Interrupt_intClear__E
00842640   ti_sdo_ipc_family_c647x_Interrupt_intDisable__E
00842660   ti_sdo_ipc_family_c647x_Interrupt_intEnable__E
00837dc0   ti_sdo_ipc_family_c647x_Interrupt_intRegister__E
008402e0   ti_sdo_ipc_family_c647x_Interrupt_intSend__E
00839800   ti_sdo_ipc_family_c647x_Interrupt_intShmStub__I
0083ca40   ti_sdo_ipc_family_c647x_Interrupt_intUnregister__E
00850548   ti_sdo_ipc_family_c647x_MultiProcSetup_procMap__A
00850710   ti_sdo_ipc_family_c647x_MultiProcSetup_procMap__C
008398e0   ti_sdo_ipc_family_c647x_NotifySetup_attach__E
00850714   ti_sdo_ipc_family_c647x_NotifySetup_dspIntVectId__C
00842680   ti_sdo_ipc_family_c647x_NotifySetup_numIntLines__E
0083f1c0   ti_sdo_ipc_family_c647x_NotifySetup_sharedMemReq__E
00850718   ti_sdo_ipc_gates_GateHWSem_A_invSemNum__C
00840320   ti_sdo_ipc_gates_GateHWSem_Handle__label__S
00835860   ti_sdo_ipc_gates_GateHWSem_Instance_init__F
0084fa14   ti_sdo_ipc_gates_GateHWSem_Module__FXNS__C
0085071c   ti_sdo_ipc_gates_GateHWSem_Module__diagsEnabled__C
00850720   ti_sdo_ipc_gates_GateHWSem_Module__diagsIncluded__C
00850724   ti_sdo_ipc_gates_GateHWSem_Module__diagsMask__C
008505de   ti_sdo_ipc_gates_GateHWSem_Module__id__C
8314ccf8   ti_sdo_ipc_gates_GateHWSem_Module__root__V
008426a0   ti_sdo_ipc_gates_GateHWSem_Module_startup__E
00838820   ti_sdo_ipc_gates_GateHWSem_Module_startup__F
0084fe94   ti_sdo_ipc_gates_GateHWSem_Object__DESC__C
0084fbd8   ti_sdo_ipc_gates_GateHWSem_Object__PARAMS__C
0083da60   ti_sdo_ipc_gates_GateHWSem_Object__create__S
00840360   ti_sdo_ipc_gates_GateHWSem_Object__delete__S
008403a0   ti_sdo_ipc_gates_GateHWSem_Params__init__S
00850728   ti_sdo_ipc_gates_GateHWSem_baseAddr__C
008399c0   ti_sdo_ipc_gates_GateHWSem_enter__E
008426c0   ti_sdo_ipc_gates_GateHWSem_getReservedMask__E
008403e0   ti_sdo_ipc_gates_GateHWSem_leave__E
0085072c   ti_sdo_ipc_gates_GateHWSem_numSems__C
008426e0   ti_sdo_ipc_gates_GateHWSem_query__E
00842700   ti_sdo_ipc_gates_GateHWSem_query__F
00850730   ti_sdo_ipc_gates_GateHWSem_reservedMaskArr__A
00850734   ti_sdo_ipc_gates_GateHWSem_reservedMaskArr__C
00842720   ti_sdo_ipc_gates_GateHWSem_sharedMemReq__E
00850738   ti_sdo_ipc_gates_GateMPSupportNull_A_invalidAction__C
00840420   ti_sdo_ipc_gates_GateMPSupportNull_Handle__label__S
00842740   ti_sdo_ipc_gates_GateMPSupportNull_Instance_init__F
0084fa40   ti_sdo_ipc_gates_GateMPSupportNull_Module__FXNS__C
0085073c   ti_sdo_ipc_gates_GateMPSupportNull_Module__diagsEnabled__C
00850740   ti_sdo_ipc_gates_GateMPSupportNull_Module__diagsIncluded__C
00850744   ti_sdo_ipc_gates_GateMPSupportNull_Module__diagsMask__C
008505e6   ti_sdo_ipc_gates_GateMPSupportNull_Module__id__C
8314cd00   ti_sdo_ipc_gates_GateMPSupportNull_Module__root__V
0084feb4   ti_sdo_ipc_gates_GateMPSupportNull_Object__DESC__C
0084fbfc   ti_sdo_ipc_gates_GateMPSupportNull_Object__PARAMS__C
0083dae0   ti_sdo_ipc_gates_GateMPSupportNull_Object__create__S
00840460   ti_sdo_ipc_gates_GateMPSupportNull_Object__delete__S
008404a0   ti_sdo_ipc_gates_GateMPSupportNull_Params__init__S
00850748   ti_sdo_ipc_gates_GateMPSupportNull_action__C
00838920   ti_sdo_ipc_gates_GateMPSupportNull_enter__E
00842760   ti_sdo_ipc_gates_GateMPSupportNull_getReservedMask__E
00838a20   ti_sdo_ipc_gates_GateMPSupportNull_leave__E
00842780   ti_sdo_ipc_gates_GateMPSupportNull_query__E
008427a0   ti_sdo_ipc_gates_GateMPSupportNull_query__F
008427c0   ti_sdo_ipc_gates_GateMPSupportNull_sharedMemReq__E
0085074c   ti_sdo_ipc_gates_GatePeterson_E_gateRemotelyOpened__C
008404e0   ti_sdo_ipc_gates_GatePeterson_Handle__label__S
0083f220   ti_sdo_ipc_gates_GatePeterson_Instance_finalize__F
0081f480   ti_sdo_ipc_gates_GatePeterson_Instance_init__F
0084fa6c   ti_sdo_ipc_gates_GatePeterson_Module__FXNS__C
00850750   ti_sdo_ipc_gates_GatePeterson_Module__diagsEnabled__C
00850754   ti_sdo_ipc_gates_GatePeterson_Module__diagsIncluded__C
00850758   ti_sdo_ipc_gates_GatePeterson_Module__diagsMask__C
00850b24   ti_sdo_ipc_gates_GatePeterson_Module__id__C
8314cd08   ti_sdo_ipc_gates_GatePeterson_Module__root__V
0084fed4   ti_sdo_ipc_gates_GatePeterson_Object__DESC__C
0084fc20   ti_sdo_ipc_gates_GatePeterson_Object__PARAMS__C
0083b180   ti_sdo_ipc_gates_GatePeterson_Object__create__S
00840520   ti_sdo_ipc_gates_GatePeterson_Object__delete__S
00840560   ti_sdo_ipc_gates_GatePeterson_Params__init__S
00834b80   ti_sdo_ipc_gates_GatePeterson_enter__E
008427e0   ti_sdo_ipc_gates_GatePeterson_getReservedMask__E
0083cae0   ti_sdo_ipc_gates_GatePeterson_leave__E
0085075c   ti_sdo_ipc_gates_GatePeterson_numInstances__C
00842800   ti_sdo_ipc_gates_GatePeterson_query__E
00842820   ti_sdo_ipc_gates_GatePeterson_query__F
008405a0   ti_sdo_ipc_gates_GatePeterson_sharedMemReq__E
00850760   ti_sdo_ipc_heaps_HeapBufMP_A_badAlignment__C
00850764   ti_sdo_ipc_heaps_HeapBufMP_A_invBlockFreed__C
00850768   ti_sdo_ipc_heaps_HeapBufMP_E_alignTooLarge__C
0085076c   ti_sdo_ipc_heaps_HeapBufMP_E_exactFail__C
00850770   ti_sdo_ipc_heaps_HeapBufMP_E_noBlocksLeft__C
00850774   ti_sdo_ipc_heaps_HeapBufMP_E_sizeTooLarge__C
008405e0   ti_sdo_ipc_heaps_HeapBufMP_Handle__label__S
0082a980   ti_sdo_ipc_heaps_HeapBufMP_Instance_finalize__F
00810420   ti_sdo_ipc_heaps_HeapBufMP_Instance_init__F
0084fac4   ti_sdo_ipc_heaps_HeapBufMP_Module__FXNS__C
00850778   ti_sdo_ipc_heaps_HeapBufMP_Module__diagsEnabled__C
0085077c   ti_sdo_ipc_heaps_HeapBufMP_Module__diagsIncluded__C
00850780   ti_sdo_ipc_heaps_HeapBufMP_Module__diagsMask__C
00850b26   ti_sdo_ipc_heaps_HeapBufMP_Module__id__C
8314cd10   ti_sdo_ipc_heaps_HeapBufMP_Module__root__V
8314cd18   ti_sdo_ipc_heaps_HeapBufMP_Module__state__V
0084fef4   ti_sdo_ipc_heaps_HeapBufMP_Object__DESC__C
0084f824   ti_sdo_ipc_heaps_HeapBufMP_Object__PARAMS__C
0083b240   ti_sdo_ipc_heaps_HeapBufMP_Object__create__S
00840620   ti_sdo_ipc_heaps_HeapBufMP_Object__delete__S
00840660   ti_sdo_ipc_heaps_HeapBufMP_Params__init__S
00830ee0   ti_sdo_ipc_heaps_HeapBufMP_alloc__E
008279c0   ti_sdo_ipc_heaps_HeapBufMP_free__E
00842840   ti_sdo_ipc_heaps_HeapBufMP_getStats__E
00839aa0   ti_sdo_ipc_heaps_HeapBufMP_getStats__F
00842860   ti_sdo_ipc_heaps_HeapBufMP_isBlocking__E
00842880   ti_sdo_ipc_heaps_HeapBufMP_isBlocking__F
00810c00   ti_sdo_ipc_heaps_HeapBufMP_postInit__I
00850b28   ti_sdo_ipc_heaps_HeapBufMP_trackAllocs__C
00850784   ti_sdo_ipc_heaps_HeapMemMP_A_align__C
00850788   ti_sdo_ipc_heaps_HeapMemMP_A_heapSize__C
0085078c   ti_sdo_ipc_heaps_HeapMemMP_A_invalidFree__C
00850790   ti_sdo_ipc_heaps_HeapMemMP_A_zeroBlock__C
00850794   ti_sdo_ipc_heaps_HeapMemMP_E_memory__C
008406a0   ti_sdo_ipc_heaps_HeapMemMP_Handle__label__S
0082bfe0   ti_sdo_ipc_heaps_HeapMemMP_Instance_finalize__F
00812ae0   ti_sdo_ipc_heaps_HeapMemMP_Instance_init__F
0084faec   ti_sdo_ipc_heaps_HeapMemMP_Module__FXNS__C
00850798   ti_sdo_ipc_heaps_HeapMemMP_Module__diagsEnabled__C
0085079c   ti_sdo_ipc_heaps_HeapMemMP_Module__diagsIncluded__C
008507a0   ti_sdo_ipc_heaps_HeapMemMP_Module__diagsMask__C
00850b2a   ti_sdo_ipc_heaps_HeapMemMP_Module__id__C
8314cd1c   ti_sdo_ipc_heaps_HeapMemMP_Module__root__V
8314cd24   ti_sdo_ipc_heaps_HeapMemMP_Module__state__V
0084ff14   ti_sdo_ipc_heaps_HeapMemMP_Object__DESC__C
0084f95c   ti_sdo_ipc_heaps_HeapMemMP_Object__PARAMS__C
0083b300   ti_sdo_ipc_heaps_HeapMemMP_Object__create__S
008406e0   ti_sdo_ipc_heaps_HeapMemMP_Object__delete__S
00840720   ti_sdo_ipc_heaps_HeapMemMP_Params__init__S
00808e60   ti_sdo_ipc_heaps_HeapMemMP_alloc__E
0080a300   ti_sdo_ipc_heaps_HeapMemMP_free__E
00821800   ti_sdo_ipc_heaps_HeapMemMP_getStats__E
008428a0   ti_sdo_ipc_heaps_HeapMemMP_isBlocking__E
008428c0   ti_sdo_ipc_heaps_HeapMemMP_isBlocking__F
00822480   ti_sdo_ipc_heaps_HeapMemMP_postInit__I
008507a4   ti_sdo_ipc_interfaces_IGateMPSupport_Interface__BASE__C
008507a8   ti_sdo_ipc_interfaces_IMessageQTransport_Interface__BASE__C
008507ac   ti_sdo_ipc_interfaces_INotifyDriver_Interface__BASE__C
00840760   ti_sdo_ipc_notifyDrivers_NotifyDriverShm_Handle__label__S
0083db60   ti_sdo_ipc_notifyDrivers_NotifyDriverShm_Instance_finalize__F
0081dce0   ti_sdo_ipc_notifyDrivers_NotifyDriverShm_Instance_init__F
008428e0   ti_sdo_ipc_notifyDrivers_NotifyDriverShm_InterruptProxy_intClear__E
00842900   ti_sdo_ipc_notifyDrivers_NotifyDriverShm_InterruptProxy_intDisable__E
00842920   ti_sdo_ipc_notifyDrivers_NotifyDriverShm_InterruptProxy_intEnable__E
008407a0   ti_sdo_ipc_notifyDrivers_NotifyDriverShm_InterruptProxy_intRegister__E
00842940   ti_sdo_ipc_notifyDrivers_NotifyDriverShm_InterruptProxy_intSend__E
00842960   ti_sdo_ipc_notifyDrivers_NotifyDriverShm_InterruptProxy_intUnregister__E
0084f85c   ti_sdo_ipc_notifyDrivers_NotifyDriverShm_Module__FXNS__C
008507b0   ti_sdo_ipc_notifyDrivers_NotifyDriverShm_Module__diagsEnabled__C
008507b4   ti_sdo_ipc_notifyDrivers_NotifyDriverShm_Module__diagsIncluded__C
008507b8   ti_sdo_ipc_notifyDrivers_NotifyDriverShm_Module__diagsMask__C
00850b2c   ti_sdo_ipc_notifyDrivers_NotifyDriverShm_Module__id__C
8314cd28   ti_sdo_ipc_notifyDrivers_NotifyDriverShm_Module__root__V
0084ff34   ti_sdo_ipc_notifyDrivers_NotifyDriverShm_Object__DESC__C
0084f8c8   ti_sdo_ipc_notifyDrivers_NotifyDriverShm_Object__PARAMS__C
0083b3c0   ti_sdo_ipc_notifyDrivers_NotifyDriverShm_Object__create__S
008407e0   ti_sdo_ipc_notifyDrivers_NotifyDriverShm_Object__delete__S
008507bc   ti_sdo_ipc_notifyDrivers_NotifyDriverShm_Object__heap__C
00840820   ti_sdo_ipc_notifyDrivers_NotifyDriverShm_Params__init__S
0082c240   ti_sdo_ipc_notifyDrivers_NotifyDriverShm_disableEvent__E
00842980   ti_sdo_ipc_notifyDrivers_NotifyDriverShm_disable__E
00833100   ti_sdo_ipc_notifyDrivers_NotifyDriverShm_enableEvent__E
008429a0   ti_sdo_ipc_notifyDrivers_NotifyDriverShm_enable__E
00828e20   ti_sdo_ipc_notifyDrivers_NotifyDriverShm_isr__I
008319c0   ti_sdo_ipc_notifyDrivers_NotifyDriverShm_registerEvent__E
00830740   ti_sdo_ipc_notifyDrivers_NotifyDriverShm_sendEvent__E
0083f280   ti_sdo_ipc_notifyDrivers_NotifyDriverShm_setNotifyHandle__E
008429c0   ti_sdo_ipc_notifyDrivers_NotifyDriverShm_sharedMemReq__E
0082c4a0   ti_sdo_ipc_notifyDrivers_NotifyDriverShm_sharedMemReq__F
00834d00   ti_sdo_ipc_notifyDrivers_NotifyDriverShm_unregisterEvent__E
008507c0   ti_sdo_ipc_nsremote_NameServerRemoteNotify_A_invalidValueLen__C
008507c4   ti_sdo_ipc_nsremote_NameServerRemoteNotify_A_messageSize__C
00840860   ti_sdo_ipc_nsremote_NameServerRemoteNotify_Handle__label__S
008507c8   ti_sdo_ipc_nsremote_NameServerRemoteNotify_Instance_State_semMultiBlock__O
008507cc   ti_sdo_ipc_nsremote_NameServerRemoteNotify_Instance_State_semRemoteWait__O
008507d0   ti_sdo_ipc_nsremote_NameServerRemoteNotify_Instance_State_swiRequest__O
008507d4   ti_sdo_ipc_nsremote_NameServerRemoteNotify_Instance_State_swiResponse__O
00836be0   ti_sdo_ipc_nsremote_NameServerRemoteNotify_Instance_finalize__F
0080f440   ti_sdo_ipc_nsremote_NameServerRemoteNotify_Instance_init__F
0084fb14   ti_sdo_ipc_nsremote_NameServerRemoteNotify_Module__FXNS__C
008507d8   ti_sdo_ipc_nsremote_NameServerRemoteNotify_Module__diagsEnabled__C
008507dc   ti_sdo_ipc_nsremote_NameServerRemoteNotify_Module__diagsIncluded__C
008507e0   ti_sdo_ipc_nsremote_NameServerRemoteNotify_Module__diagsMask__C
00850b2e   ti_sdo_ipc_nsremote_NameServerRemoteNotify_Module__id__C
8314cd30   ti_sdo_ipc_nsremote_NameServerRemoteNotify_Module__root__V
0084ff54   ti_sdo_ipc_nsremote_NameServerRemoteNotify_Object__DESC__C
0084ff74   ti_sdo_ipc_nsremote_NameServerRemoteNotify_Object__PARAMS__C
0083b480   ti_sdo_ipc_nsremote_NameServerRemoteNotify_Object__create__S
008408a0   ti_sdo_ipc_nsremote_NameServerRemoteNotify_Object__delete__S
008408e0   ti_sdo_ipc_nsremote_NameServerRemoteNotify_Object__first__S
00840920   ti_sdo_ipc_nsremote_NameServerRemoteNotify_Object__next__S
00840960   ti_sdo_ipc_nsremote_NameServerRemoteNotify_Params__init__S
008332a0   ti_sdo_ipc_nsremote_NameServerRemoteNotify_attach__E
0083f2e0   ti_sdo_ipc_nsremote_NameServerRemoteNotify_cbFxn__I
0083dbe0   ti_sdo_ipc_nsremote_NameServerRemoteNotify_detach__E
008409a0   ti_sdo_ipc_nsremote_NameServerRemoteNotify_get__E
0081f920   ti_sdo_ipc_nsremote_NameServerRemoteNotify_get__F
008507e4   ti_sdo_ipc_nsremote_NameServerRemoteNotify_notifyEventId__C
008409e0   ti_sdo_ipc_nsremote_NameServerRemoteNotify_sharedMemReq__E
008228a0   ti_sdo_ipc_nsremote_NameServerRemoteNotify_swiFxnRequest__I
008429e0   ti_sdo_ipc_nsremote_NameServerRemoteNotify_swiFxnResponse__I
008507e8   ti_sdo_ipc_nsremote_NameServerRemoteNotify_timeout__C
8314de38   ti_sdo_ipc_transports_TransportShmCircSetup_Module_State_0_handles__A
8314cd40   ti_sdo_ipc_transports_TransportShmCircSetup_Module__state__V
0083b540   ti_sdo_ipc_transports_TransportShmCircSetup_attach__E
00842a00   ti_sdo_ipc_transports_TransportShmCircSetup_isRegistered__E
008507ec   ti_sdo_ipc_transports_TransportShmCircSetup_priority__C
0083f340   ti_sdo_ipc_transports_TransportShmCircSetup_sharedMemReq__E
00840a20   ti_sdo_ipc_transports_TransportShmCirc_Handle__label__S
008507f0   ti_sdo_ipc_transports_TransportShmCirc_Instance_State_swiObj__O
0083dc60   ti_sdo_ipc_transports_TransportShmCirc_Instance_finalize__F
0081cda0   ti_sdo_ipc_transports_TransportShmCirc_Instance_init__F
0084fb3c   ti_sdo_ipc_transports_TransportShmCirc_Module__FXNS__C
008507f4   ti_sdo_ipc_transports_TransportShmCirc_Module__diagsEnabled__C
008507f8   ti_sdo_ipc_transports_TransportShmCirc_Module__diagsIncluded__C
008507fc   ti_sdo_ipc_transports_TransportShmCirc_Module__diagsMask__C
00850b30   ti_sdo_ipc_transports_TransportShmCirc_Module__id__C
8314cd38   ti_sdo_ipc_transports_TransportShmCirc_Module__root__V
0084ff94   ti_sdo_ipc_transports_TransportShmCirc_Object__DESC__C
0084ffb4   ti_sdo_ipc_transports_TransportShmCirc_Object__PARAMS__C
0083b600   ti_sdo_ipc_transports_TransportShmCirc_Object__create__S
00840a60   ti_sdo_ipc_transports_TransportShmCirc_Object__delete__S
00840aa0   ti_sdo_ipc_transports_TransportShmCirc_Params__init__S
00850b32   ti_sdo_ipc_transports_TransportShmCirc_alwaysWriteBackMsg__C
00842a20   ti_sdo_ipc_transports_TransportShmCirc_control__E
00842a40   ti_sdo_ipc_transports_TransportShmCirc_getStatus__E
00850800   ti_sdo_ipc_transports_TransportShmCirc_maxIndex__C
00850804   ti_sdo_ipc_transports_TransportShmCirc_modIndex__C
00850b34   ti_sdo_ipc_transports_TransportShmCirc_notifyEventId__C
00842a60   ti_sdo_ipc_transports_TransportShmCirc_notifyFxn__I
00850808   ti_sdo_ipc_transports_TransportShmCirc_numMsgs__C
00829980   ti_sdo_ipc_transports_TransportShmCirc_put__E
00842a80   ti_sdo_ipc_transports_TransportShmCirc_setErrFxn__E
00842aa0   ti_sdo_ipc_transports_TransportShmCirc_setErrFxn__F
00842ac0   ti_sdo_ipc_transports_TransportShmCirc_sharedMemReq__E
0082b3a0   ti_sdo_ipc_transports_TransportShmCirc_sharedMemReq__F
00819ca0   ti_sdo_ipc_transports_TransportShmCirc_swiFxn__I
0085080c   ti_sdo_utils_INameServerRemote_Interface__BASE__C
00842ae0   ti_sdo_utils_List_Instance_init__F
8314cd44   ti_sdo_utils_List_Module__root__V
0084ffd4   ti_sdo_utils_List_Object__DESC__C
008503f8   ti_sdo_utils_List_Object__PARAMS__C
00850810   ti_sdo_utils_List_Object__count__C
0083dce0   ti_sdo_utils_List_Object__create__S
00840ae0   ti_sdo_utils_List_Object__destruct__S
0083f3a0   ti_sdo_utils_List_Object__get__S
00850814   ti_sdo_utils_List_Object__table__C
00850818   ti_sdo_utils_MultiProc_A_invalidMultiProcId__C
8314cd4c   ti_sdo_utils_MultiProc_Module__state__V
00842b00   ti_sdo_utils_MultiProc_getClusterId__E
00842b20   ti_sdo_utils_MultiProc_getClusterId__F
00850b36   ti_sdo_utils_MultiProc_numProcessors__C
00850b38   ti_sdo_utils_MultiProc_numProcsInCluster__C
00850558   ti_sdo_utils_MultiProc_procIdList__A
0085081c   ti_sdo_utils_MultiProc_procIdList__C
8314cd60   ti_sdo_utils_NameServerRemoteNull_Module__root__V
00850820   ti_sdo_utils_NameServer_A_invArgument__C
00850824   ti_sdo_utils_NameServer_A_invalidLen__C
00850828   ti_sdo_utils_NameServer_E_entryExists__C
0085082c   ti_sdo_utils_NameServer_E_maxReached__C
00850830   ti_sdo_utils_NameServer_Instance_State_freeList__O
00850834   ti_sdo_utils_NameServer_Instance_State_nameList__O
8314ac38   ti_sdo_utils_NameServer_Module_State_0_nsRemoteHandle__A
00850838   ti_sdo_utils_NameServer_Module__diagsEnabled__C
0085083c   ti_sdo_utils_NameServer_Module__diagsIncluded__C
00850840   ti_sdo_utils_NameServer_Module__diagsMask__C
00850b3a   ti_sdo_utils_NameServer_Module__id__C
8314cd50   ti_sdo_utils_NameServer_Module__root__V
00840b20   ti_sdo_utils_NameServer_Module__startupDone__F
00842b40   ti_sdo_utils_NameServer_Module__startupDone__S
8314cd58   ti_sdo_utils_NameServer_Module__state__V
00842b60   ti_sdo_utils_NameServer_Module_startup__E
00834e80   ti_sdo_utils_NameServer_Module_startup__F
00850844   ti_sdo_utils_NameServer_Object__count__C
00840b60   ti_sdo_utils_NameServer_Object__first__S
0083f400   ti_sdo_utils_NameServer_Object__get__S
00840ba0   ti_sdo_utils_NameServer_Object__next__S
00850848   ti_sdo_utils_NameServer_Object__table__C
8314d308   ti_sdo_utils_NameServer_Object__table__V
00842b80   ti_sdo_utils_NameServer_SetupProxy_attach__E
00842ba0   ti_sdo_utils_NameServer_SetupProxy_sharedMemReq__E
008359c0   ti_sdo_utils_NameServer_isRegistered__E
00835b20   ti_sdo_utils_NameServer_registerRemoteDriver__E
00850b3c   ti_sdo_utils_NameServer_singleProcessor__C
00835c80   ti_sdo_utils_NameServer_unregisterRemoteDriver__E
0085084c   ti_sysbios_BIOS_Module__diagsEnabled__C
00850850   ti_sysbios_BIOS_Module__diagsIncluded__C
00850854   ti_sysbios_BIOS_Module__diagsMask__C
00850b3e   ti_sysbios_BIOS_Module__id__C
8314cd68   ti_sysbios_BIOS_Module__state__V
00842bc0   ti_sysbios_BIOS_RtsGateProxy_enter__E
00842be0   ti_sysbios_BIOS_RtsGateProxy_leave__E
0083b6c0   ti_sysbios_BIOS_errorRaiseHook__I
0083f460   ti_sysbios_BIOS_exitFunc__I
0083dd60   ti_sysbios_BIOS_exit__E
00842c00   ti_sysbios_BIOS_getThreadType__E
00850858   ti_sysbios_BIOS_installedErrorHook__C
00842c20   ti_sysbios_BIOS_nullFunc__I
0083f4c0   ti_sysbios_BIOS_registerRTSLock__I
00840be0   ti_sysbios_BIOS_rtsLock__I
00835de0   ti_sysbios_BIOS_rtsUnlock__I
00842c40   ti_sysbios_BIOS_setThreadType__E
00840c20   ti_sysbios_BIOS_startFunc__I
00842c60   ti_sysbios_BIOS_start__E
00842c80   ti_sysbios_family_c62_TaskSupport_Module__startupDone__S
0083ff60   ti_sysbios_family_c62_TaskSupport_buildTaskStack
00842ca0   ti_sysbios_family_c62_TaskSupport_checkStack__E
00842cc0   ti_sysbios_family_c62_TaskSupport_getStackAlignment__E
00841fa0   ti_sysbios_family_c62_TaskSupport_glue
0085085c   ti_sysbios_family_c62_TaskSupport_stackAlignment__C
0083dde0   ti_sysbios_family_c62_TaskSupport_start__E
0083d660   ti_sysbios_family_c62_TaskSupport_swap__E
00850860   ti_sysbios_family_c64p_Exception_E_exceptionMax__C
00850b40   ti_sysbios_family_c64p_Exception_Module__id__C
8314cd88   ti_sysbios_family_c64p_Exception_Module__state__V
00842ce0   ti_sysbios_family_c64p_Exception_Module_startup__E
0083cb80   ti_sysbios_family_c64p_Exception_Module_startup__F
00834580   ti_sysbios_family_c64p_Exception_dispatch__E
00850864   ti_sysbios_family_c64p_Exception_exceptionHook__C
00850868   ti_sysbios_family_c64p_Exception_externalHook__C
00812360   ti_sysbios_family_c64p_Exception_handler__I
0082dba0   ti_sysbios_family_c64p_Exception_internalHandler__I
0085086c   ti_sysbios_family_c64p_Exception_internalHook__C
00850870   ti_sysbios_family_c64p_Exception_nmiHook__C
00850b42   ti_sysbios_family_c64p_Exception_useInternalBuffer__C
00859400   ti_sysbios_family_c64p_Hwi0
00850874   ti_sysbios_family_c64p_Hwi_E_alreadyDefined__C
00850878   ti_sysbios_family_c64p_Hwi_E_handleNotFound__C
00839b80   ti_sysbios_family_c64p_Hwi_Instance_finalize__F
00839c60   ti_sysbios_family_c64p_Hwi_Instance_init__F
0085087c   ti_sysbios_family_c64p_Hwi_LD_end__C
00850880   ti_sysbios_family_c64p_Hwi_LM_begin__C
00850884   ti_sysbios_family_c64p_Hwi_Module__diagsEnabled__C
00850888   ti_sysbios_family_c64p_Hwi_Module__diagsIncluded__C
0085088c   ti_sysbios_family_c64p_Hwi_Module__diagsMask__C
00850b44   ti_sysbios_family_c64p_Hwi_Module__id__C
00850b46   ti_sysbios_family_c64p_Hwi_Module__loggerDefined__C
00850890   ti_sysbios_family_c64p_Hwi_Module__loggerFxn1__C
00850894   ti_sysbios_family_c64p_Hwi_Module__loggerFxn8__C
00850898   ti_sysbios_family_c64p_Hwi_Module__loggerObj__C
8314cdb8   ti_sysbios_family_c64p_Hwi_Module__root__V
00840c60   ti_sysbios_family_c64p_Hwi_Module__startupDone__F
00842d00   ti_sysbios_family_c64p_Hwi_Module__startupDone__S
8314cdc0   ti_sysbios_family_c64p_Hwi_Module__state__V
00842d20   ti_sysbios_family_c64p_Hwi_Module_startup__E
00836d20   ti_sysbios_family_c64p_Hwi_Module_startup__F
0084fff4   ti_sysbios_family_c64p_Hwi_Object__DESC__C
0084f98c   ti_sysbios_family_c64p_Hwi_Object__PARAMS__C
00839d40   ti_sysbios_family_c64p_Hwi_Object__create__S
00840ca0   ti_sysbios_family_c64p_Hwi_Object__delete__S
00840ce0   ti_sysbios_family_c64p_Hwi_Params__init__S
00842d40   ti_sysbios_family_c64p_Hwi_clearInterrupt__E
00840d20   ti_sysbios_family_c64p_Hwi_disableInterrupt__E
00830140   ti_sysbios_family_c64p_Hwi_dispatchAlways
0083de60   ti_sysbios_family_c64p_Hwi_dispatchC__I
0082c700   ti_sysbios_family_c64p_Hwi_dispatchCore__I
00840d60   ti_sysbios_family_c64p_Hwi_enableInterrupt__E
00842d60   ti_sysbios_family_c64p_Hwi_getHandle__E
0083dee0   ti_sysbios_family_c64p_Hwi_getStackInfo__E
00859400   ti_sysbios_family_c64p_Hwi_int0
00859420   ti_sysbios_family_c64p_Hwi_int1
00859540   ti_sysbios_family_c64p_Hwi_int10
00859560   ti_sysbios_family_c64p_Hwi_int11
00859580   ti_sysbios_family_c64p_Hwi_int12
008595a0   ti_sysbios_family_c64p_Hwi_int13
008595c0   ti_sysbios_family_c64p_Hwi_int14
008595e0   ti_sysbios_family_c64p_Hwi_int15
00859440   ti_sysbios_family_c64p_Hwi_int2
00859460   ti_sysbios_family_c64p_Hwi_int3
00859480   ti_sysbios_family_c64p_Hwi_int4
008594a0   ti_sysbios_family_c64p_Hwi_int5
008594c0   ti_sysbios_family_c64p_Hwi_int6
008594e0   ti_sysbios_family_c64p_Hwi_int7
00859500   ti_sysbios_family_c64p_Hwi_int8
00859520   ti_sysbios_family_c64p_Hwi_int9
0083c540   ti_sysbios_family_c64p_Hwi_plug__E
0082c960   ti_sysbios_family_c64p_Hwi_reconfig__E
00842d80   ti_sysbios_family_c64p_Hwi_startup__E
0083ee60   ti_sysbios_family_c64p_Hwi_switchAndDispatch__I
00842da0   ti_sysbios_family_c64p_Hwi_switchFromBootStack__E
00842dc0   ti_sysbios_family_c64p_Hwi_unPluggedInterrupt__I
00842de0   ti_sysbios_family_c64p_tci6488_TimerSupport_enable__E
00842e00   ti_sysbios_family_c66_Cache_Module_startup__E
00836e60   ti_sysbios_family_c66_Cache_Module_startup__F
0085089c   ti_sysbios_family_c66_Cache_atomicBlockSize__C
00833440   ti_sysbios_family_c66_Cache_block__I
00850574   ti_sysbios_family_c66_Cache_initSize__C
0083df60   ti_sysbios_family_c66_Cache_invL1pAll__E
00842e20   ti_sysbios_family_c66_Cache_inv__E
0084d890   ti_sysbios_family_c66_Cache_marvalues__C
00842e40   ti_sysbios_family_c66_Cache_wbInv__E
00842e60   ti_sysbios_family_c66_Cache_wb__E
008508a0   ti_sysbios_family_c66_tci66xx_CpIntc_E_unpluggedSysInt__C
8314dec0   ti_sysbios_family_c66_tci66xx_CpIntc_Module_State_0_controller__A
8314c740   ti_sysbios_family_c66_tci66xx_CpIntc_Module_State_0_dispatchTab__A
8314d788   ti_sysbios_family_c66_tci66xx_CpIntc_Module_State_0_hostIntToSysInt__A
8314de78   ti_sysbios_family_c66_tci66xx_CpIntc_Module_State_0_initSIER__A
00850b48   ti_sysbios_family_c66_tci66xx_CpIntc_Module__id__C
8314ce28   ti_sysbios_family_c66_tci66xx_CpIntc_Module__state__V
00842e80   ti_sysbios_family_c66_tci66xx_CpIntc_Module_startup__E
00829c40   ti_sysbios_family_c66_tci66xx_CpIntc_Module_startup__F
00842ea0   ti_sysbios_family_c66_tci66xx_CpIntc_disableHostInt__E
00842ec0   ti_sysbios_family_c66_tci66xx_CpIntc_disableHostInt__F
00842ee0   ti_sysbios_family_c66_tci66xx_CpIntc_disableSysInt__E
00842f00   ti_sysbios_family_c66_tci66xx_CpIntc_disableSysInt__F
00840da0   ti_sysbios_family_c66_tci66xx_CpIntc_dispatchPlug__E
00840de0   ti_sysbios_family_c66_tci66xx_CpIntc_dispatchPlug__F
00842f20   ti_sysbios_family_c66_tci66xx_CpIntc_dispatch__E
008335e0   ti_sysbios_family_c66_tci66xx_CpIntc_dispatch__F
00842f40   ti_sysbios_family_c66_tci66xx_CpIntc_enableHostInt__E
00842f60   ti_sysbios_family_c66_tci66xx_CpIntc_enableHostInt__F
00842f80   ti_sysbios_family_c66_tci66xx_CpIntc_enableSysInt__E
00842fa0   ti_sysbios_family_c66_tci66xx_CpIntc_enableSysInt__F
00850290   ti_sysbios_family_c66_tci66xx_CpIntc_eventId__A
008508a4   ti_sysbios_family_c66_tci66xx_CpIntc_eventId__C
00842fc0   ti_sysbios_family_c66_tci66xx_CpIntc_getEventId__E
0083dfe0   ti_sysbios_family_c66_tci66xx_CpIntc_getEventId__F
008502b0   ti_sysbios_family_c66_tci66xx_CpIntc_hostIntToEventId_0__A
008502d0   ti_sysbios_family_c66_tci66xx_CpIntc_hostIntToEventId_1__A
008502f0   ti_sysbios_family_c66_tci66xx_CpIntc_hostIntToEventId_2__A
00850310   ti_sysbios_family_c66_tci66xx_CpIntc_hostIntToEventId_3__A
00850330   ti_sysbios_family_c66_tci66xx_CpIntc_hostIntToEventId_4__A
00850350   ti_sysbios_family_c66_tci66xx_CpIntc_hostIntToEventId_5__A
00850370   ti_sysbios_family_c66_tci66xx_CpIntc_hostIntToEventId_6__A
00850390   ti_sysbios_family_c66_tci66xx_CpIntc_hostIntToEventId_7__A
00850018   ti_sysbios_family_c66_tci66xx_CpIntc_hostIntToEventId__A
008508a8   ti_sysbios_family_c66_tci66xx_CpIntc_hostIntToEventId__C
00842fe0   ti_sysbios_family_c66_tci66xx_CpIntc_mapSysIntToHostInt__E
0083cc20   ti_sysbios_family_c66_tci66xx_CpIntc_mapSysIntToHostInt__F
008508ac   ti_sysbios_family_c66_tci66xx_CpIntc_numEvents__C
008508b0   ti_sysbios_family_c66_tci66xx_CpIntc_numStatusRegs__C
008508b4   ti_sysbios_family_c66_tci66xx_CpIntc_numSysInts__C
0084ec28   ti_sysbios_family_c66_tci66xx_CpIntc_sysIntToHostInt__A
008508b8   ti_sysbios_family_c66_tci66xx_CpIntc_sysIntToHostInt__C
00843000   ti_sysbios_family_c66_tci66xx_CpIntc_unused__E
00840e20   ti_sysbios_family_c66_tci66xx_CpIntc_unused__F
0083eec0   ti_sysbios_family_xxx_Hwi_switchAndRunFunc
0083ffa0   ti_sysbios_family_xxx_Hwi_switchToIsrStack
00841fc0   ti_sysbios_family_xxx_Hwi_switchToTaskStack
00840e60   ti_sysbios_gates_GateAll_Handle__label__S
00843020   ti_sysbios_gates_GateAll_Instance_init__F
0084fc44   ti_sysbios_gates_GateAll_Module__FXNS__C
8314ce38   ti_sysbios_gates_GateAll_Module__root__V
00850038   ti_sysbios_gates_GateAll_Object__DESC__C
00850410   ti_sysbios_gates_GateAll_Object__PARAMS__C
0083e060   ti_sysbios_gates_GateAll_Object__create__S
00840ea0   ti_sysbios_gates_GateAll_Object__delete__S
8314ded0   ti_sysbios_gates_GateAll_Object__table__V
0083f520   ti_sysbios_gates_GateAll_enter__E
0083b780   ti_sysbios_gates_GateAll_leave__E
00843040   ti_sysbios_gates_GateAll_query__E
00843060   ti_sysbios_gates_GateAll_query__F
00840ee0   ti_sysbios_gates_GateHwi_Handle__label__S
00843080   ti_sysbios_gates_GateHwi_Instance_init__F
0084fc68   ti_sysbios_gates_GateHwi_Module__FXNS__C
8314ce40   ti_sysbios_gates_GateHwi_Module__root__V
00850058   ti_sysbios_gates_GateHwi_Object__DESC__C
00850428   ti_sysbios_gates_GateHwi_Object__PARAMS__C
0083e0e0   ti_sysbios_gates_GateHwi_Object__create__S
00840f20   ti_sysbios_gates_GateHwi_Object__delete__S
8314df70   ti_sysbios_gates_GateHwi_Object__table__V
008430a0   ti_sysbios_gates_GateHwi_enter__E
008430c0   ti_sysbios_gates_GateHwi_leave__E
008430e0   ti_sysbios_gates_GateHwi_query__E
00843100   ti_sysbios_gates_GateHwi_query__F
008508bc   ti_sysbios_gates_GateMutexPri_A_badContext__C
008508c0   ti_sysbios_gates_GateMutexPri_A_enterTaskDisabled__C
00840f60   ti_sysbios_gates_GateMutexPri_Handle__label__S
008508c4   ti_sysbios_gates_GateMutexPri_Instance_State_pendQ__O
00843120   ti_sysbios_gates_GateMutexPri_Instance_finalize__F
00840fa0   ti_sysbios_gates_GateMutexPri_Instance_init__F
0084fc8c   ti_sysbios_gates_GateMutexPri_Module__FXNS__C
008508c8   ti_sysbios_gates_GateMutexPri_Module__diagsEnabled__C
008508cc   ti_sysbios_gates_GateMutexPri_Module__diagsIncluded__C
008508d0   ti_sysbios_gates_GateMutexPri_Module__diagsMask__C
00850b4a   ti_sysbios_gates_GateMutexPri_Module__id__C
8314ce50   ti_sysbios_gates_GateMutexPri_Module__root__V
00850078   ti_sysbios_gates_GateMutexPri_Object__DESC__C
00850440   ti_sysbios_gates_GateMutexPri_Object__PARAMS__C
0083e160   ti_sysbios_gates_GateMutexPri_Object__create__S
00840fe0   ti_sysbios_gates_GateMutexPri_Object__delete__S
00841020   ti_sysbios_gates_GateMutexPri_Object__destruct__S
83107568   ti_sysbios_gates_GateMutexPri_Object__table__V
00823880   ti_sysbios_gates_GateMutexPri_enter__E
00838b20   ti_sysbios_gates_GateMutexPri_leave__E
00843140   ti_sysbios_gates_GateMutexPri_query__E
00843160   ti_sysbios_gates_GateMutexPri_query__F
008508d4   ti_sysbios_gates_GateMutex_A_badContext__C
00841060   ti_sysbios_gates_GateMutex_Handle__label__S
008508d8   ti_sysbios_gates_GateMutex_Instance_State_sem__O
00843180   ti_sysbios_gates_GateMutex_Instance_finalize__F
0083f580   ti_sysbios_gates_GateMutex_Instance_init__F
0084fcb0   ti_sysbios_gates_GateMutex_Module__FXNS__C
008508dc   ti_sysbios_gates_GateMutex_Module__diagsEnabled__C
008508e0   ti_sysbios_gates_GateMutex_Module__diagsIncluded__C
008508e4   ti_sysbios_gates_GateMutex_Module__diagsMask__C
00850b4c   ti_sysbios_gates_GateMutex_Module__id__C
8314ce48   ti_sysbios_gates_GateMutex_Module__root__V
00850098   ti_sysbios_gates_GateMutex_Object__DESC__C
00850458   ti_sysbios_gates_GateMutex_Object__PARAMS__C
0083e1e0   ti_sysbios_gates_GateMutex_Object__create__S
008410a0   ti_sysbios_gates_GateMutex_Object__delete__S
8314dd30   ti_sysbios_gates_GateMutex_Object__table__V
00833780   ti_sysbios_gates_GateMutex_enter__E
008410e0   ti_sysbios_gates_GateMutex_leave__E
008431a0   ti_sysbios_gates_GateMutex_query__E
008431c0   ti_sysbios_gates_GateMutex_query__F
008508e8   ti_sysbios_gates_GateSwi_A_badContext__C
00841120   ti_sysbios_gates_GateSwi_Handle__label__S
008431e0   ti_sysbios_gates_GateSwi_Instance_init__F
0084fcd4   ti_sysbios_gates_GateSwi_Module__FXNS__C
008508ec   ti_sysbios_gates_GateSwi_Module__diagsEnabled__C
008508f0   ti_sysbios_gates_GateSwi_Module__diagsIncluded__C
008508f4   ti_sysbios_gates_GateSwi_Module__diagsMask__C
00850b4e   ti_sysbios_gates_GateSwi_Module__id__C
8314ce58   ti_sysbios_gates_GateSwi_Module__root__V
008500b8   ti_sysbios_gates_GateSwi_Object__DESC__C
00850470   ti_sysbios_gates_GateSwi_Object__PARAMS__C
0083e260   ti_sysbios_gates_GateSwi_Object__create__S
00841160   ti_sysbios_gates_GateSwi_Object__delete__S
8314def0   ti_sysbios_gates_GateSwi_Object__table__V
00836fa0   ti_sysbios_gates_GateSwi_enter__E
0083e2e0   ti_sysbios_gates_GateSwi_leave__E
00843200   ti_sysbios_gates_GateSwi_query__E
00843220   ti_sysbios_gates_GateSwi_query__F
008411a0   ti_sysbios_hal_Cache_CacheProxy_inv__E
008411e0   ti_sysbios_hal_Cache_CacheProxy_wbInv__E
00841220   ti_sysbios_hal_Cache_CacheProxy_wb__E
008411a0   ti_sysbios_hal_Cache_inv__E
008411e0   ti_sysbios_hal_Cache_wbInv__E
00841220   ti_sysbios_hal_Cache_wb__E
008508f8   ti_sysbios_hal_Hwi_E_stackOverflow__C
00843240   ti_sysbios_hal_Hwi_HwiProxy_Module__startupDone__S
00841260   ti_sysbios_hal_Hwi_HwiProxy_Object__create__S
00843260   ti_sysbios_hal_Hwi_HwiProxy_Object__delete__S
00843280   ti_sysbios_hal_Hwi_HwiProxy_clearInterrupt__E
008432a0   ti_sysbios_hal_Hwi_HwiProxy_disableInterrupt__E
008432c0   ti_sysbios_hal_Hwi_HwiProxy_enableInterrupt__E
008432e0   ti_sysbios_hal_Hwi_HwiProxy_getStackInfo__E
00843300   ti_sysbios_hal_Hwi_HwiProxy_startup__E
00843320   ti_sysbios_hal_Hwi_HwiProxy_switchFromBootStack__E
008412a0   ti_sysbios_hal_Hwi_Instance_finalize__F
0083f5e0   ti_sysbios_hal_Hwi_Instance_init__F
00850b50   ti_sysbios_hal_Hwi_Module__id__C
8314ce60   ti_sysbios_hal_Hwi_Module__root__V
00843340   ti_sysbios_hal_Hwi_Module_startup__E
00843360   ti_sysbios_hal_Hwi_Module_startup__F
008500d8   ti_sysbios_hal_Hwi_Object__DESC__C
0084fa98   ti_sysbios_hal_Hwi_Object__PARAMS__C
00839e20   ti_sysbios_hal_Hwi_Object__create__S
008412e0   ti_sysbios_hal_Hwi_Params__init__S
0083e360   ti_sysbios_hal_Hwi_checkStack
00843280   ti_sysbios_hal_Hwi_clearInterrupt__E
008432a0   ti_sysbios_hal_Hwi_disableInterrupt__E
008432c0   ti_sysbios_hal_Hwi_enableInterrupt__E
008432e0   ti_sysbios_hal_Hwi_getStackInfo__E
0083e3e0   ti_sysbios_hal_Hwi_initStack
00843300   ti_sysbios_hal_Hwi_startup__E
00843320   ti_sysbios_hal_Hwi_switchFromBootStack__E
8314ce68   ti_sysbios_hal_Timer_Module__root__V
00841320   ti_sysbios_hal_Timer_Module__startupDone__F
00843380   ti_sysbios_hal_Timer_Module__startupDone__S
008433a0   ti_sysbios_hal_Timer_Module_startup__E
008433c0   ti_sysbios_hal_Timer_Module_startup__F
008433e0   ti_sysbios_hal_Timer_TimerProxy_Module__startupDone__S
00843400   ti_sysbios_hal_Timer_TimerProxy_startup__E
00843400   ti_sysbios_hal_Timer_startup__E
008508fc   ti_sysbios_heaps_HeapMem_A_align__C
00850900   ti_sysbios_heaps_HeapMem_A_heapSize__C
00850904   ti_sysbios_heaps_HeapMem_A_invalidFree__C
00850908   ti_sysbios_heaps_HeapMem_A_zeroBlock__C
0085090c   ti_sysbios_heaps_HeapMem_E_memory__C
00841360   ti_sysbios_heaps_HeapMem_Handle__label__S
83107580   ti_sysbios_heaps_HeapMem_Instance_State_0_buf__A
85000000   ti_sysbios_heaps_HeapMem_Instance_State_1_buf__A
00829100   ti_sysbios_heaps_HeapMem_Instance_init__F
00843420   ti_sysbios_heaps_HeapMem_Module_GateProxy_enter__E
00843440   ti_sysbios_heaps_HeapMem_Module_GateProxy_leave__E
00843460   ti_sysbios_heaps_HeapMem_Module_GateProxy_query__E
0084fb64   ti_sysbios_heaps_HeapMem_Module__FXNS__C
00850910   ti_sysbios_heaps_HeapMem_Module__diagsEnabled__C
00850914   ti_sysbios_heaps_HeapMem_Module__diagsIncluded__C
00850918   ti_sysbios_heaps_HeapMem_Module__diagsMask__C
0085091c   ti_sysbios_heaps_HeapMem_Module__gateObj__C
00850b52   ti_sysbios_heaps_HeapMem_Module__id__C
8314ce70   ti_sysbios_heaps_HeapMem_Module__root__V
008500f8   ti_sysbios_heaps_HeapMem_Object__DESC__C
0084fcf8   ti_sysbios_heaps_HeapMem_Object__PARAMS__C
00850920   ti_sysbios_heaps_HeapMem_Object__count__C
0083e460   ti_sysbios_heaps_HeapMem_Object__create__S
008413a0   ti_sysbios_heaps_HeapMem_Object__delete__S
0083f640   ti_sysbios_heaps_HeapMem_Object__get__S
00850924   ti_sysbios_heaps_HeapMem_Object__table__C
8314dda8   ti_sysbios_heaps_HeapMem_Object__table__V
00815b00   ti_sysbios_heaps_HeapMem_alloc__E
00818580   ti_sysbios_heaps_HeapMem_free__E
0083b840   ti_sysbios_heaps_HeapMem_getStats__E
0083ccc0   ti_sysbios_heaps_HeapMem_init__I
00843480   ti_sysbios_heaps_HeapMem_isBlocking__E
00850928   ti_sysbios_heaps_HeapMem_reqAlign__C
8314ce78   ti_sysbios_knl_Clock_Module__root__V
8314ce80   ti_sysbios_knl_Clock_Module__state__V
008434a0   ti_sysbios_knl_Clock_Module_startup__E
008434c0   ti_sysbios_knl_Clock_Module_startup__F
0085092c   ti_sysbios_knl_Clock_tickPeriod__C
00850930   ti_sysbios_knl_Event_A_badContext__C
00850934   ti_sysbios_knl_Event_A_eventInUse__C
00850938   ti_sysbios_knl_Event_A_nullEventId__C
0085093c   ti_sysbios_knl_Event_A_nullEventMasks__C
00850940   ti_sysbios_knl_Event_A_pendTaskDisabled__C
00850944   ti_sysbios_knl_Event_Instance_State_pendQ__O
008413e0   ti_sysbios_knl_Event_Instance_init__F
00850948   ti_sysbios_knl_Event_LM_pend__C
0085094c   ti_sysbios_knl_Event_LM_post__C
00850950   ti_sysbios_knl_Event_Module__diagsEnabled__C
00850954   ti_sysbios_knl_Event_Module__diagsIncluded__C
00850958   ti_sysbios_knl_Event_Module__diagsMask__C
00850b54   ti_sysbios_knl_Event_Module__id__C
00850b56   ti_sysbios_knl_Event_Module__loggerDefined__C
0085095c   ti_sysbios_knl_Event_Module__loggerFxn4__C
00850960   ti_sysbios_knl_Event_Module__loggerFxn8__C
00850964   ti_sysbios_knl_Event_Module__loggerObj__C
8314cea8   ti_sysbios_knl_Event_Module__root__V
00850118   ti_sysbios_knl_Event_Object__DESC__C
00850488   ti_sysbios_knl_Event_Object__PARAMS__C
0083e4e0   ti_sysbios_knl_Event_Object__create__S
00816160   ti_sysbios_knl_Event_pend__E
008293e0   ti_sysbios_knl_Event_post__E
00850968   ti_sysbios_knl_Idle_coreList__A
008505a0   ti_sysbios_knl_Idle_coreList__C
00850970   ti_sysbios_knl_Idle_funcList__A
008505a8   ti_sysbios_knl_Idle_funcList__C
008434e0   ti_sysbios_knl_Idle_loop__E
0083cd60   ti_sysbios_knl_Idle_run__E
00843500   ti_sysbios_knl_Queue_Instance_init__F
8314ceb0   ti_sysbios_knl_Queue_Module__root__V
00850138   ti_sysbios_knl_Queue_Object__DESC__C
008504a0   ti_sysbios_knl_Queue_Object__PARAMS__C
0085096c   ti_sysbios_knl_Queue_Object__count__C
0083e560   ti_sysbios_knl_Queue_Object__create__S
00841420   ti_sysbios_knl_Queue_Object__destruct__S
0083f6a0   ti_sysbios_knl_Queue_Object__get__S
00850974   ti_sysbios_knl_Queue_Object__table__C
00850978   ti_sysbios_knl_Semaphore_A_badContext__C
0085097c   ti_sysbios_knl_Semaphore_A_noEvents__C
00850980   ti_sysbios_knl_Semaphore_A_overflow__C
00850984   ti_sysbios_knl_Semaphore_A_pendTaskDisabled__C
00850988   ti_sysbios_knl_Semaphore_Instance_State_pendQ__O
00843520   ti_sysbios_knl_Semaphore_Instance_finalize__F
008370e0   ti_sysbios_knl_Semaphore_Instance_init__F
0085098c   ti_sysbios_knl_Semaphore_LM_pend__C
00850990   ti_sysbios_knl_Semaphore_LM_post__C
00850994   ti_sysbios_knl_Semaphore_Module__diagsEnabled__C
00850998   ti_sysbios_knl_Semaphore_Module__diagsIncluded__C
0085099c   ti_sysbios_knl_Semaphore_Module__diagsMask__C
00850b58   ti_sysbios_knl_Semaphore_Module__id__C
00850b5a   ti_sysbios_knl_Semaphore_Module__loggerDefined__C
008509a0   ti_sysbios_knl_Semaphore_Module__loggerFxn2__C
008509a4   ti_sysbios_knl_Semaphore_Module__loggerFxn4__C
008509a8   ti_sysbios_knl_Semaphore_Module__loggerObj__C
8314ceb8   ti_sysbios_knl_Semaphore_Module__root__V
00850158   ti_sysbios_knl_Semaphore_Object__DESC__C
0084fd1c   ti_sysbios_knl_Semaphore_Object__PARAMS__C
0083e5e0   ti_sysbios_knl_Semaphore_Object__create__S
00841460   ti_sysbios_knl_Semaphore_Object__delete__S
008414a0   ti_sysbios_knl_Semaphore_Object__destruct__S
008414e0   ti_sysbios_knl_Semaphore_Params__init__S
008173c0   ti_sysbios_knl_Semaphore_pend__E
0082dde0   ti_sysbios_knl_Semaphore_post__E
00843540   ti_sysbios_knl_Semaphore_reset__E
008509ac   ti_sysbios_knl_Swi_A_badPriority__C
00839f00   ti_sysbios_knl_Swi_Instance_finalize__F
00833920   ti_sysbios_knl_Swi_Instance_init__F
008509b0   ti_sysbios_knl_Swi_LD_end__C
008509b4   ti_sysbios_knl_Swi_LM_begin__C
008509b8   ti_sysbios_knl_Swi_LM_post__C
8314d930   ti_sysbios_knl_Swi_Module_State_0_readyQ__A
008509bc   ti_sysbios_knl_Swi_Module__diagsEnabled__C
008509c0   ti_sysbios_knl_Swi_Module__diagsIncluded__C
008509c4   ti_sysbios_knl_Swi_Module__diagsMask__C
00850b5c   ti_sysbios_knl_Swi_Module__id__C
00850b5e   ti_sysbios_knl_Swi_Module__loggerDefined__C
008509c8   ti_sysbios_knl_Swi_Module__loggerFxn1__C
008509cc   ti_sysbios_knl_Swi_Module__loggerFxn4__C
008509d0   ti_sysbios_knl_Swi_Module__loggerObj__C
8314cec0   ti_sysbios_knl_Swi_Module__root__V
8314cec8   ti_sysbios_knl_Swi_Module__state__V
00843560   ti_sysbios_knl_Swi_Module_startup__E
0083f700   ti_sysbios_knl_Swi_Module_startup__F
00850178   ti_sysbios_knl_Swi_Object__DESC__C
0084fb8c   ti_sysbios_knl_Swi_Object__PARAMS__C
008509d4   ti_sysbios_knl_Swi_Object__count__C
0083b900   ti_sysbios_knl_Swi_Object__create__S
00841520   ti_sysbios_knl_Swi_Object__destruct__S
0083f760   ti_sysbios_knl_Swi_Object__get__S
008509d8   ti_sysbios_knl_Swi_Object__table__C
00841560   ti_sysbios_knl_Swi_Params__init__S
00843580   ti_sysbios_knl_Swi_disable__E
00837220   ti_sysbios_knl_Swi_post__E
008270a0   ti_sysbios_knl_Swi_restoreHwi__E
00827cc0   ti_sysbios_knl_Swi_runLoop__I
0083b9c0   ti_sysbios_knl_Swi_schedule__I
0083e660   ti_sysbios_knl_Swi_startup__E
008509dc   ti_sysbios_knl_Task_A_badPriority__C
008509e0   ti_sysbios_knl_Task_A_badTaskState__C
008509e4   ti_sysbios_knl_Task_A_badThreadType__C
008509e8   ti_sysbios_knl_Task_A_noPendElem__C
008509ec   ti_sysbios_knl_Task_E_spOutOfBounds__C
008509f0   ti_sysbios_knl_Task_E_stackOverflow__C
8314ac58   ti_sysbios_knl_Task_Instance_State_0_hookEnv__A
8314df90   ti_sysbios_knl_Task_Instance_State_0_stack__A
0081a260   ti_sysbios_knl_Task_Instance_finalize__F
008247a0   ti_sysbios_knl_Task_Instance_init__F
008509f4   ti_sysbios_knl_Task_LD_block__C
008509f8   ti_sysbios_knl_Task_LD_exit__C
008509fc   ti_sysbios_knl_Task_LD_ready__C
00850a00   ti_sysbios_knl_Task_LM_setPri__C
00850a04   ti_sysbios_knl_Task_LM_switch__C
00850a08   ti_sysbios_knl_Task_LM_yield__C
8314df78   ti_sysbios_knl_Task_Module_State_0_idleTask__A
8314d9b0   ti_sysbios_knl_Task_Module_State_0_readyQ__A
00850a0c   ti_sysbios_knl_Task_Module_State_inactiveQ__O
00850a10   ti_sysbios_knl_Task_Module__diagsEnabled__C
00850a14   ti_sysbios_knl_Task_Module__diagsIncluded__C
00850a18   ti_sysbios_knl_Task_Module__diagsMask__C
00850b60   ti_sysbios_knl_Task_Module__id__C
00850b62   ti_sysbios_knl_Task_Module__loggerDefined__C
00850a1c   ti_sysbios_knl_Task_Module__loggerFxn2__C
00850a20   ti_sysbios_knl_Task_Module__loggerFxn4__C
00850a24   ti_sysbios_knl_Task_Module__loggerObj__C
8314cee4   ti_sysbios_knl_Task_Module__root__V
8314ceec   ti_sysbios_knl_Task_Module__state__V
008435a0   ti_sysbios_knl_Task_Module_startup__E
0081fdc0   ti_sysbios_knl_Task_Module_startup__F
00850198   ti_sysbios_knl_Task_Object__DESC__C
0084f7b0   ti_sysbios_knl_Task_Object__PARAMS__C
00850a28   ti_sysbios_knl_Task_Object__count__C
0083ba80   ti_sysbios_knl_Task_Object__create__S
0083f7c0   ti_sysbios_knl_Task_Object__get__S
00850a2c   ti_sysbios_knl_Task_Object__heap__C
00850a30   ti_sysbios_knl_Task_Object__table__C
8314dca0   ti_sysbios_knl_Task_Object__table__V
008415a0   ti_sysbios_knl_Task_Params__init__S
008435c0   ti_sysbios_knl_Task_SupportProxy_Module__startupDone__S
008435e0   ti_sysbios_knl_Task_SupportProxy_checkStack__E
00843600   ti_sysbios_knl_Task_SupportProxy_getStackAlignment__E
00843620   ti_sysbios_knl_Task_SupportProxy_start__E
00843640   ti_sysbios_knl_Task_SupportProxy_swap__E
00850a34   ti_sysbios_knl_Task_allBlockedFunc__C
0083bb40   ti_sysbios_knl_Task_allBlockedFunction__I
00837360   ti_sysbios_knl_Task_blockI__E
00831b80   ti_sysbios_knl_Task_checkStacks__E
00850a38   ti_sysbios_knl_Task_defaultStackHeap__C
00850a3c   ti_sysbios_knl_Task_defaultStackSize__C
00843660   ti_sysbios_knl_Task_disable__E
0083f820   ti_sysbios_knl_Task_enter__I
0082eac0   ti_sysbios_knl_Task_exit__E
00843680   ti_sysbios_knl_Task_getPri__E
008504b8   ti_sysbios_knl_Task_hooks__A
008505b0   ti_sysbios_knl_Task_hooks__C
00850b64   ti_sysbios_knl_Task_initStackFlag__C
00850a40   ti_sysbios_knl_Task_numConstructedTasks__C
008310c0   ti_sysbios_knl_Task_postInit__I
0083e6e0   ti_sysbios_knl_Task_restore__E
0082ece0   ti_sysbios_knl_Task_schedule__I
008436a0   ti_sysbios_knl_Task_self__E
00824b60   ti_sysbios_knl_Task_setPri__E
0082ef00   ti_sysbios_knl_Task_startCore__E
008436c0   ti_sysbios_knl_Task_startup__E
00833ac0   ti_sysbios_knl_Task_unblockI__E
00835f40   ti_sysbios_knl_Task_yield__E
008415e0   ti_sysbios_syncs_SyncSem_Handle__label__S
00841620   ti_sysbios_syncs_SyncSem_Instance_finalize__F
00835000   ti_sysbios_syncs_SyncSem_Instance_init__F
0084fd40   ti_sysbios_syncs_SyncSem_Module__FXNS__C
00850a44   ti_sysbios_syncs_SyncSem_Module__diagsEnabled__C
00850a48   ti_sysbios_syncs_SyncSem_Module__diagsIncluded__C
00850a4c   ti_sysbios_syncs_SyncSem_Module__diagsMask__C
00850b66   ti_sysbios_syncs_SyncSem_Module__id__C
8314cf30   ti_sysbios_syncs_SyncSem_Module__root__V
008501b8   ti_sysbios_syncs_SyncSem_Object__DESC__C
00850270   ti_sysbios_syncs_SyncSem_Object__PARAMS__C
0083bc00   ti_sysbios_syncs_SyncSem_Object__create__S
00841660   ti_sysbios_syncs_SyncSem_Object__delete__S
008436e0   ti_sysbios_syncs_SyncSem_query__E
00843700   ti_sysbios_syncs_SyncSem_query__F
00843720   ti_sysbios_syncs_SyncSem_signal__E
00843740   ti_sysbios_syncs_SyncSem_signal__F
00843760   ti_sysbios_syncs_SyncSem_wait__E
0083ce00   ti_sysbios_syncs_SyncSem_wait__F
00850a50   ti_sysbios_timers_timer64_Timer_A_notAvailable__C
00850a54   ti_sysbios_timers_timer64_Timer_E_cannotSupport__C
8314d188   ti_sysbios_timers_timer64_Timer_Module_State_0_device__A
8314da30   ti_sysbios_timers_timer64_Timer_Module_State_0_gctrl__A
8314dab0   ti_sysbios_timers_timer64_Timer_Module_State_0_handles__A
8314db30   ti_sysbios_timers_timer64_Timer_Module_State_0_intFreqs__A
00850a58   ti_sysbios_timers_timer64_Timer_Module__diagsEnabled__C
00850a5c   ti_sysbios_timers_timer64_Timer_Module__diagsIncluded__C
00850a60   ti_sysbios_timers_timer64_Timer_Module__diagsMask__C
00850b68   ti_sysbios_timers_timer64_Timer_Module__id__C
8314cf38   ti_sysbios_timers_timer64_Timer_Module__root__V
008416a0   ti_sysbios_timers_timer64_Timer_Module__startupDone__F
00843780   ti_sysbios_timers_timer64_Timer_Module__startupDone__S
8314cf40   ti_sysbios_timers_timer64_Timer_Module__state__V
008437a0   ti_sysbios_timers_timer64_Timer_Module_startup__E
0081a800   ti_sysbios_timers_timer64_Timer_Module_startup__F
008437c0   ti_sysbios_timers_timer64_Timer_TimerSupportProxy_enable__E
00850a64   ti_sysbios_timers_timer64_Timer_anyMask__C
0082b620   ti_sysbios_timers_timer64_Timer_deviceConfig__I
00850a68   ti_sysbios_timers_timer64_Timer_freqDivisor__C
008312a0   ti_sysbios_timers_timer64_Timer_getFreq__E
00838c20   ti_sysbios_timers_timer64_Timer_initDevice__I
00850a6c   ti_sysbios_timers_timer64_Timer_numLocalTimers__C
00850a70   ti_sysbios_timers_timer64_Timer_numTimerDevices__C
00831d40   ti_sysbios_timers_timer64_Timer_setPeriodMicroSecs__E
00833c60   ti_sysbios_timers_timer64_Timer_start__E
00850b6a   ti_sysbios_timers_timer64_Timer_startupNeeded__C
00839fe0   ti_sysbios_timers_timer64_Timer_startup__E
0083bcc0   ti_sysbios_timers_timer64_Timer_stop__E
00850a74   ti_sysbios_xdcruntime_GateThreadSupport_Instance_State_gate__O
008437e0   ti_sysbios_xdcruntime_GateThreadSupport_Instance_finalize__F
008416e0   ti_sysbios_xdcruntime_GateThreadSupport_Instance_init__F
8314cf54   ti_sysbios_xdcruntime_GateThreadSupport_Module__root__V
008501d8   ti_sysbios_xdcruntime_GateThreadSupport_Object__DESC__C
008504d0   ti_sysbios_xdcruntime_GateThreadSupport_Object__PARAMS__C
0083e760   ti_sysbios_xdcruntime_GateThreadSupport_Object__create__S
00841720   ti_sysbios_xdcruntime_GateThreadSupport_Object__delete__S
00843800   ti_sysbios_xdcruntime_GateThreadSupport_enter__E
00843820   ti_sysbios_xdcruntime_GateThreadSupport_enter__F
00843840   ti_sysbios_xdcruntime_GateThreadSupport_leave__E
00837ee0   ti_sysbios_xdcruntime_GateThreadSupport_leave__F
00843860   ti_sysbios_xdcruntime_GateThreadSupport_query__E
00843140   ti_sysbios_xdcruntime_GateThreadSupport_query__F
00850a78   ti_uia_events_UIABenchmark_start__C
00850a7c   ti_uia_events_UIABenchmark_stop__C
8314ebb0   timeflag
8314eacc   two
8314ebb8   txbuffcount
008354c4   uart_write
0083e7e0   unlink
0083f880   vsprintf
0083cea0   write
0083f8e0   writemsg
00850a80   xdc_runtime_Assert_E_assertFailed__C
0083cf40   xdc_runtime_Assert_raise__I
00850a84   xdc_runtime_Core_A_initializedParams__C
00850a88   xdc_runtime_Core_Module__diagsEnabled__C
00850a8c   xdc_runtime_Core_Module__diagsIncluded__C
00850a90   xdc_runtime_Core_Module__diagsMask__C
00850b6c   xdc_runtime_Core_Module__id__C
0083e860   xdc_runtime_Core_assignLabel__I
0083e8e0   xdc_runtime_Core_assignParams__I
0082f120   xdc_runtime_Core_createObject__I
00838d20   xdc_runtime_Core_deleteObject__I
00850a94   xdc_runtime_Error_E_memory__C
00850a98   xdc_runtime_Error_Module__diagsEnabled__C
00850a9c   xdc_runtime_Error_Module__diagsIncluded__C
00850aa0   xdc_runtime_Error_Module__diagsMask__C
00850b6e   xdc_runtime_Error_Module__loggerDefined__C
00850aa4   xdc_runtime_Error_Module__loggerFxn8__C
00850aa8   xdc_runtime_Error_Module__loggerObj__C
8314cf5c   xdc_runtime_Error_Module__state__V
008438a0   xdc_runtime_Error_check__E
00841760   xdc_runtime_Error_check__F
008438c0   xdc_runtime_Error_init__E
008417a0   xdc_runtime_Error_init__F
00850b70   xdc_runtime_Error_maxDepth__C
00850aac   xdc_runtime_Error_policy__C
008438e0   xdc_runtime_Error_print__E
0083a0c0   xdc_runtime_Error_print__F
00850ab0   xdc_runtime_Error_raiseHook__C
008417e0   xdc_runtime_Error_raiseX__E
0082b8a0   xdc_runtime_Error_raiseX__F
00841820   xdc_runtime_GateNull_Handle__label__S
0084fd64   xdc_runtime_GateNull_Module__FXNS__C
8314cf60   xdc_runtime_GateNull_Module__root__V
008501f8   xdc_runtime_GateNull_Object__DESC__C
008504e8   xdc_runtime_GateNull_Object__PARAMS__C
0083f940   xdc_runtime_GateNull_Object__create__S
00841860   xdc_runtime_GateNull_Object__delete__S
8314df80   xdc_runtime_GateNull_Object__table__V
00843900   xdc_runtime_GateNull_enter__E
00843920   xdc_runtime_GateNull_enter__F
00843940   xdc_runtime_GateNull_leave__E
00843960   xdc_runtime_GateNull_leave__F
00843980   xdc_runtime_GateNull_query__E
008439a0   xdc_runtime_GateNull_query__F
008439c0   xdc_runtime_Gate_enterSystem__E
008439e0   xdc_runtime_Gate_enterSystem__F
00843a00   xdc_runtime_Gate_leaveSystem__E
008418a0   xdc_runtime_Gate_leaveSystem__F
00850ab4   xdc_runtime_IGateProvider_Interface__BASE__C
00850ab8   xdc_runtime_IHeap_Interface__BASE__C
00850abc   xdc_runtime_IModule_Interface__BASE__C
00850ac0   xdc_runtime_Log_L_error__C
00850ac4   xdc_runtime_Main_Module__diagsEnabled__C
00850ac8   xdc_runtime_Main_Module__diagsIncluded__C
00850acc   xdc_runtime_Main_Module__diagsMask__C
00850b72   xdc_runtime_Main_Module__id__C
00850b74   xdc_runtime_Main_Module__loggerDefined__C
00850ad0   xdc_runtime_Main_Module__loggerFxn1__C
00850ad4   xdc_runtime_Main_Module__loggerObj__C
00843a20   xdc_runtime_Memory_HeapProxy_alloc__E
00843a40   xdc_runtime_Memory_HeapProxy_free__E
00850b76   xdc_runtime_Memory_Module__id__C
8314cf68   xdc_runtime_Memory_Module__state__V
00843a60   xdc_runtime_Memory_alloc__E
0083a1a0   xdc_runtime_Memory_alloc__F
00843a80   xdc_runtime_Memory_calloc__E
0083f9a0   xdc_runtime_Memory_calloc__F
00850ad8   xdc_runtime_Memory_defaultHeapInstance__C
00843aa0   xdc_runtime_Memory_free__E
00841960   xdc_runtime_Memory_free__F
00843ac0   xdc_runtime_Memory_getMaxDefaultTypeAlign__E
00843ae0   xdc_runtime_Memory_getMaxDefaultTypeAlign__F
008419a0   xdc_runtime_Memory_valloc__E
0083fa00   xdc_runtime_Memory_valloc__F
8314cf6c   xdc_runtime_Registry_Module__state__V
00843b00   xdc_runtime_Registry_findById__E
008419e0   xdc_runtime_Registry_findById__F
00843b20   xdc_runtime_Startup_Module__startupDone__S
8314cf74   xdc_runtime_Startup_Module__state__V
00000001   xdc_runtime_Startup__EXECFXN__C
00000001   xdc_runtime_Startup__RESETFXN__C
00850adc   xdc_runtime_Startup_execImpl__C
00843b40   xdc_runtime_Startup_exec__E
00838e20   xdc_runtime_Startup_exec__F
00841a20   xdc_runtime_Startup_exec__I
008505b8   xdc_runtime_Startup_firstFxns__A
008505c0   xdc_runtime_Startup_firstFxns__C
00850ae0   xdc_runtime_Startup_lastFxns__A
008505c8   xdc_runtime_Startup_lastFxns__C
00850ae4   xdc_runtime_Startup_maxPasses__C
00843b60   xdc_runtime_Startup_reset__I
0084fdd0   xdc_runtime_Startup_sfxnRts__A
00850ae8   xdc_runtime_Startup_sfxnRts__C
0084f6f0   xdc_runtime_Startup_sfxnTab__A
00850aec   xdc_runtime_Startup_sfxnTab__C
00850af0   xdc_runtime_Startup_startModsFxn__C
0082cbc0   xdc_runtime_Startup_startMods__I
8314ac60   xdc_runtime_SysMin_Module_State_0_outbuf__A
8314cf7c   xdc_runtime_SysMin_Module__state__V
00843b80   xdc_runtime_SysMin_Module_startup__E
0083fa60   xdc_runtime_SysMin_Module_startup__F
00843ba0   xdc_runtime_SysMin_abort__E
0083cfe0   xdc_runtime_SysMin_abort__F
00850af4   xdc_runtime_SysMin_bufSize__C
00843bc0   xdc_runtime_SysMin_exit__E
0083fac0   xdc_runtime_SysMin_exit__F
00850b78   xdc_runtime_SysMin_flushAtExit__C
00843be0   xdc_runtime_SysMin_flush__E
0083d080   xdc_runtime_SysMin_flush__F
00850af8   xdc_runtime_SysMin_outputFunc__C
0083fb20   xdc_runtime_SysMin_output__I
00843c00   xdc_runtime_SysMin_putch__E
0083d120   xdc_runtime_SysMin_putch__F
00843c20   xdc_runtime_SysMin_ready__E
00843c40   xdc_runtime_SysMin_ready__F
00843c60   xdc_runtime_System_Module_GateProxy_enter__E
00843c80   xdc_runtime_System_Module_GateProxy_leave__E
8314de58   xdc_runtime_System_Module_State_0_atexitHandlers__A
00850afc   xdc_runtime_System_Module__gateObj__C
8314cf88   xdc_runtime_System_Module__state__V
00843ca0   xdc_runtime_System_Module_startup__E
00843cc0   xdc_runtime_System_Module_startup__F
00843ce0   xdc_runtime_System_SupportProxy_abort__E
00843d00   xdc_runtime_System_SupportProxy_exit__E
00843d20   xdc_runtime_System_SupportProxy_flush__E
00843d40   xdc_runtime_System_SupportProxy_putch__E
00843d60   xdc_runtime_System_SupportProxy_ready__E
00843d80   xdc_runtime_System_abort__E
00841a60   xdc_runtime_System_abort__F
00841aa0   xdc_runtime_System_aprintf__E
0083fb80   xdc_runtime_System_aprintf_va__F
00843da0   xdc_runtime_System_atexit__E
0083e960   xdc_runtime_System_atexit__F
0083fb80   xdc_runtime_System_avprintf__F
0080dae0   xdc_runtime_System_doPrint__I
00843dc0   xdc_runtime_System_exit__E
00843de0   xdc_runtime_System_exit__F
00850b00   xdc_runtime_System_extendFxn__C
00843e00   xdc_runtime_System_flush__E
00843d20   xdc_runtime_System_flush__F
0083bd80   xdc_runtime_System_formatNum__I
00843e20   xdc_runtime_System_lastFxn__I
00850b04   xdc_runtime_System_maxAtexitHandlers__C
00825d40   xdc_runtime_System_printfExtend__I
00841ae0   xdc_runtime_System_printf__E
0083fbe0   xdc_runtime_System_printf_va__F
0083e9e0   xdc_runtime_System_putchar__I
0083ea60   xdc_runtime_System_rtsExit__I
00843e60   xdc_runtime_System_snprintf_va__F
0083fbe0   xdc_runtime_System_vprintf__F
00843e40   xdc_runtime_System_vsnprintf__E
00843e60   xdc_runtime_System_vsnprintf__F
8314cf94   xdc_runtime_Text_Module__state__V
00850b7a   xdc_runtime_Text_charCnt__C
00844060   xdc_runtime_Text_charTab__A
00850b08   xdc_runtime_Text_charTab__C
00843e80   xdc_runtime_Text_cordText__E
0083fc40   xdc_runtime_Text_cordText__F
00850b7c   xdc_runtime_Text_isLoaded__C
00850b0c   xdc_runtime_Text_nameEmpty__C
00850b10   xdc_runtime_Text_nameStatic__C
00850b14   xdc_runtime_Text_nameUnknown__C
0084e548   xdc_runtime_Text_nodeTab__A
00850b18   xdc_runtime_Text_nodeTab__C
0083eae0   xdc_runtime_Text_printVisFxn__I
00843ea0   xdc_runtime_Text_putLab__E
008374a0   xdc_runtime_Text_putLab__F
00838000   xdc_runtime_Text_putMod__F
00843ec0   xdc_runtime_Text_putSite__E
00831f00   xdc_runtime_Text_putSite__F
00850b7e   xdc_runtime_Text_registryModsLastId__C
00843ee0   xdc_runtime_Text_ropeText__E
00841b20   xdc_runtime_Text_ropeText__F
00850b80   xdc_runtime_Text_unnamedModsLastId__C
00838f20   xdc_runtime_Text_visitRope2__I
00850b1c   xdc_runtime_Text_visitRopeFxn__C
00841b60   xdc_runtime_Text_visitRope__I
0083d1c0   xdc_runtime_Text_xprintf__I
00841ba0   xdc_runtime_knl_GateThread_Handle__label__S
00841be0   xdc_runtime_knl_GateThread_Instance_finalize__F
00841c20   xdc_runtime_knl_GateThread_Instance_init__F
0084fd88   xdc_runtime_knl_GateThread_Module__FXNS__C
8314cf9c   xdc_runtime_knl_GateThread_Module__root__V
00843f00   xdc_runtime_knl_GateThread_Module__startupDone__S
00850218   xdc_runtime_knl_GateThread_Object__DESC__C
00850500   xdc_runtime_knl_GateThread_Object__PARAMS__C
0083be40   xdc_runtime_knl_GateThread_Object__create__S
00841c60   xdc_runtime_knl_GateThread_Object__delete__S
00841ca0   xdc_runtime_knl_GateThread_Proxy_Object__create__S
00843f20   xdc_runtime_knl_GateThread_Proxy_Object__delete__S
00843f40   xdc_runtime_knl_GateThread_Proxy_enter__E
00843f60   xdc_runtime_knl_GateThread_Proxy_leave__E
00843f80   xdc_runtime_knl_GateThread_Proxy_query__E
00843fa0   xdc_runtime_knl_GateThread_enter__E
00843fc0   xdc_runtime_knl_GateThread_enter__F
00843fe0   xdc_runtime_knl_GateThread_leave__E
00844000   xdc_runtime_knl_GateThread_leave__F
00844020   xdc_runtime_knl_GateThread_query__E
00843f80   xdc_runtime_knl_GateThread_query__F
00850b20   xdc_runtime_knl_ISync_Interface__BASE__C
8314eac4   zero


GLOBAL SYMBOLS: SORTED BY Symbol Address 

address    name
--------   ----
00000000   _argsize
00000001   __TI_args_main
00000001   xdc_runtime_Startup__EXECFXN__C
00000001   xdc_runtime_Startup__RESETFXN__C
00008000   __TI_STACK_SIZE
00800000   Router_Init
00800000   __ASM__
00800048   CmdRouter_CheckChannelConfig
00800060   __ISA__
00800078   __PLAT__
00800098   __TARG__
008000c0   __TRDR__
00800588   CmdRouter_DeleteChannel
0080062c   CmdRouter_GetCoreInfo
00801010   CmdRouter_UpdateRxCmdRouterOnResponse
008010a4   CmdRouter_GetCoreInfoTx
00801454   CmdRouter_MapTxCmdToCore
008016f8   CmdRouter_MapRxCmdToCore
00801b70   CmdRouter_MapCmdToCore
00801c70   CmdRouter_MakeFailureSts
00801d00   mdebugHaltPdsp
00801d18   getPaStats
00802430   AddMACAddress0
0080288c   AddMACAddress1
00802d0c   Setup_PASS
00802d30   Download_PAFirmware
00802de8   Init_PASS
00803060   ti_sdo_ipc_GateMP_Instance_init__F
00804280   Convert_CoreLocal2GlobalAddr
008042ac   Init_Qmss
00804554   Init_Cppi
00804738   cppi_qmss_init
008047a8   Setup_Tx
00804914   Setup_Rx
00804ee8   SendEthPacket
00805070   Eth_ReceivePacketTask
00805324   Cpsw_RxISR
0080552c   ddcRx_config_srio
00805558   IncrementPktMiss
00805720   DDCRx_ValidateConfig
0080576c   DDCRx_Start
008057e8   DDCRx_RemoveJobonStopCmd
00806008   DDCRx_GetTimeStamp
00806500   DDCRx_Init
00806608   DDCRX_PrintList
008066a4   Mcbsp_Callback
00806788   CmdIf_AllocPacket
008067a4   CmdIf_GetHandler
008067ac   EtherNetIPU_callback
008069c8   CmdIf_SendPacket
00806df4   CmdIf_FPGAInterrupt
0080730c   CmdIf_Start
0080734c   CmdIf_Init
008074c4   CmdIf_GetRcvQ
008074cc   CmdIf_FreePacket
00807b00   fw_upgrade_callback
00807ca4   Fpga_FwUpg
00808054   Ethernet_Log_Task
00808200   SrioDevice_init
00808e60   ti_sdo_ipc_heaps_HeapMemMP_alloc__E
008098c0   Update_RF_Temp
008098d8   Update_RF_Status
008099a4   Update_GSP_data
00809a44   Update_FPGA_HM
00809a98   Update_DSP_Temp
00809ab4   StatusUpdate_Time
00809acc   StatMgr_Start
0080a0c8   StatMgr_Init
0080a190   StatMgr_GetSignalPtr
0080a198   StatMgr_Fatal
0080a1c4   GPS_stopToFPGA
0080a260   GPS_initToFPGA
0080a300   ti_sdo_ipc_heaps_HeapMemMP_free__E
0080ad20   Ipc_attach
0080b6c0   biosMalloc
0080b6f4   biosFree
0080b718   Osal_srioPostSem
0080b728   Osal_srioPendSem
0080b734   Osal_srioMalloc
0080b764   Osal_srioLog
0080b778   Osal_srioFree
0080b7a0   Osal_srioExitSingleCoreCriticalSection
0080b7b8   Osal_srioExitMultipleCoreCriticalSection
0080b7c0   Osal_srioEnterSingleCoreCriticalSection
0080b7e0   Osal_srioEnterMultipleCoreCriticalSection
0080b7e4   Osal_srioEndMemAccess
0080b820   Osal_srioEndDescriptorAccess
0080b828   Osal_srioDeleteSem
0080b834   Osal_srioDataBufferMalloc
0080b8e4   Osal_srioDataBufferFree
0080b96c   Osal_srioCreateSem
0080b990   Osal_srioBeginMemAccess
0080b9d8   Osal_srioBeginDescriptorAccess
0080b9e0   Osal_qmssMtCsExit
0080ba04   Osal_qmssMtCsEnter
0080ba28   Osal_qmssMalloc
0080ba54   Osal_qmssFree
0080ba80   Osal_qmssEndMemAccess
0080bac4   Osal_qmssCsExit
0080bae8   Osal_qmssCsEnter
0080bb0c   Osal_qmssBeginMemAccess
0080bb60   Osal_paMtCsExit
0080bb64   Osal_paMtCsEnter
0080bb68   Osal_paEndMemAccess
0080bbac   Osal_paBeginMemAccess
0080bc30   Osal_dataBufferInitMemory
0080bce0   Osal_cppiMalloc
0080bd0c   Osal_cppiFree
0080bd34   Osal_cppiEndMemAccess
0080bd78   Osal_cppiCsExit
0080bda0   Osal_cppiCsEnter
0080bdc4   Osal_cppiBeginMemAccess
0080be14   Osal_SingleCoreExit
0080be28   Osal_SingleCoreEnter
0080be38   Osal_MultiCoreExit
0080be40   Osal_MultiCoreEnter
0080be44   Osal_DataBufferMalloc
0080beec   Osal_DataBufferFree
0080bf70   Osal_CacheWriteback
0080bfac   Osal_CacheInvalidate
0080c940   ti_sdo_ipc_GateMP_Instance_finalize__F
0080d220   ti_sdo_ipc_ListMP_Instance_init__F
0080dae0   xdc_runtime_System_doPrint__I
0080e380   Switch_update_addr
0080e588   Init_Switch
0080e6b4   Init_SGMII_SERDES
0080e7b8   Init_SGMII
0080e8f8   Init_MDIO
0080e900   Init_MAC
0080ea30   Init_Cpsw
0080ec00   MessageQ_put
0080f440   ti_sdo_ipc_nsremote_NameServerRemoteNotify_Instance_init__F
0080fc40   Qmss_insertMemoryRegion
00810420   ti_sdo_ipc_heaps_HeapBufMP_Instance_init__F
00810c00   ti_sdo_ipc_heaps_HeapBufMP_postInit__I
008113e0   msgQ_name_get
00811410   Transmit_Mesg
00811450   Transmit_LogMesg
00811490   Transmit_BurstMesg
008114d0   MsgQ_Open
0081178c   MsgQ_Create
00811808   MessageQ_Init
00811b40   IIPC_Init
00811b70   IIPC_FreeMsg
00811be4   dioExampleTask
00811ec0   Srio_InitDBCallBack
00812244   Srio_Init
008122a4   SrioLSUInterrupt
008122c0   SrioErrorInterrupt
008122e8   SrioDoorbellInterrupt
00812360   ti_sysbios_family_c64p_Exception_handler__I
00812ae0   ti_sdo_ipc_heaps_HeapMemMP_Instance_init__F
008132c4   nor_write
0081341c   nor_read
008134a8   nor_init
00813558   nor_get_details
008135e8   nor_erase
00813750   flash_init
008137b0   DsptoFlash_writeImage
00813980   Pa_addMac
00814760   Initialize_HashNewBucket_v2
0081480c   GetHashInfoHandlerv2
00814828   Free_v2
0081484c   Free_REG2
00814870   Free_REG1
00814894   Free
008148c8   Free_CoreSafe
008148d4   Alloc_v2
00814934   Alloc_REG2
00814ac0   Alloc_REG1
00814c58   Alloc
00814dec   Alloc_CoreSafe
00814e00   NameServer_add
008154a0   Cppi_configureRxFlow
00815b00   ti_sysbios_heaps_HeapMem_alloc__E
00816160   ti_sysbios_knl_Event_pend__E
008167a0   Notify_sendEvent
00816dc0   ti_sdo_ipc_SharedRegion_start__F
008173c0   ti_sysbios_knl_Semaphore_pend__E
008179c0   Notify_registerEventSingle
00817fa0   Notify_unregisterEventSingle
00818580   ti_sysbios_heaps_HeapMem_free__E
00818b60   ListMP_getHead
00819120   __c6xabi_divd
00819ca0   ti_sdo_ipc_transports_TransportShmCirc_swiFxn__I
0081a260   ti_sysbios_knl_Task_Instance_finalize__F
0081a800   ti_sysbios_timers_timer64_Timer_Module_startup__F
0081ada0   spi_xfer
0081af44   spi_write_word
0081af98   spi_release
0081afa8   spi_read_word
0081b018   spi_cmd_write
0081b0b4   spi_cmd_read
0081b150   spi_cmd
0081b1f4   spi_claim
0081b320   Task_Stop
0081b330   Task_Start
0081b344   Task_SetPri
0081b358   Task_Init1
0081b44c   Task_Init
0081b54c   Signal_Post
0081b560   Signal_Poll
0081b574   Signal_Pend
0081b5a4   Signal_Init
0081b66c   Signal_Enable
0081b680   Mutex_Unlock
0081b690   Mutex_Lock_Timeout
0081b6a8   Mutex_Lock
0081b6b8   Mutex_Init
0081b7a4   CountingSem_Init
0081b880   GSMTime_TN
0081b884   GSMTime_FN
0081b888   GSMTime_TC
0081b8ac   GSMTime_T3
0081b8d8   GSMTime_T3p
0081b900   GSMTime_T2
0081b92c   GSMTime_SFN
0081b94c   GSMTime_T1p
0081b958   GSMTime_T1
0081b968   GSMTime_T1R
0081b9c4   GSMTime_SubTime
0081b9d4   GSMTime_Inc
0081ba20   GSMTime_Add
0081ba68   GSMTime_Sub
0081ba78   GSMTime_SetTN
0081ba84   GSMTime_SetFN
0081ba8c   GSMTime_RollForward
0081bac4   GSMTime_Print
0081bb48   GSMTime_MFN
0081bb90   GSMTime_IsMoreThanTime
0081bbc0   GSMTime_IsMoreOrEquThanTime
0081bbf8   GSMTime_IsLessThanTime
0081bc2c   GSMTime_IsLessOrEquThanTime
0081bc68   GSMTime_IsEquTime
0081bc80   GSMTime_Init
0081bc8c   GSMTime_IncTN
0081bcc0   GSMTime_FrameCountInit
0081bccc   GSMTime_DecTN
0081bd48   GSMTime_Copy
0081bd58   GSMTime_AddTime
0081bde0   MessageQ_free
0081c320   NameServer_get
0081c860   ti_sdo_ipc_Ipc_procSyncStart__I
0081cda0   ti_sdo_ipc_transports_TransportShmCirc_Instance_init__F
0081d2e0   ti_sdo_ipc_GateMP_setRegion0Reserved__F
0081d7e0   ti_sdo_ipc_MessageQ_Instance_init__F
0081dce0   ti_sdo_ipc_notifyDrivers_NotifyDriverShm_Instance_init__F
0081e1e0   Cppi_txChannelOpen
0081e6a0   HeapBufMP_sharedMemReq
0081eb70   ModMgr_Init
0081eeb4   ModMgr_Start
0081ef8c   TRS_main
0081efd0   ModMgr_GetInstance
0081efe0   Srio_TxPacket
0081f234   Srio_TxDoorBell
0081f480   ti_sdo_ipc_gates_GatePeterson_Instance_init__F
0081f920   ti_sdo_ipc_nsremote_NameServerRemoteNotify_get__F
0081fdc0   ti_sysbios_knl_Task_Module_startup__F
00820240   ListMP_putTail
008206a0   _printfi
00820f60   ti_sdo_ipc_Ipc_procSyncFinish__I
008213c0   Cppi_rxChannelOpen
00821800   ti_sdo_ipc_heaps_HeapMemMP_getStats__E
00821c40   CmdPkt_GetSender
00821c6c   CmdPkt_GetReceiver
00821c90   CmdPkt_GetPacketType
00821d94   CmdPkt_GetDataCount
00821db4   CmdPkt_GetCommand
00821ee8   CmdPkt_ValidatePacket
00821f40   CmdPkt_UpdateSender
00821f58   CmdPkt_UpdateReceiver
00821f74   CmdPkt_UpdatePacketType
00821f90   CmdPkt_SetHeader
00821f98   CmdPkt_Parse
00821fc0   CmdPkt_Make
00822018   CmdPkt_IsWritePkt
00822040   CmdPkt_GetSeqNumber
00822048   CmdPkt_GetParam
00822050   CmdPkt_GetHeader
00822480   ti_sdo_ipc_heaps_HeapMemMP_postInit__I
008228a0   ti_sdo_ipc_nsremote_NameServerRemoteNotify_swiFxnRequest__I
00822cc0   ti_sdo_ipc_Notify_Instance_init__F
008230c0   platform_delay
008230f8   delay
00823174   Mcbsp_TxIntrHandler_new
008232c4   Mcbsp_Write
00823348   Mcbsp_Read
00823388   Mcbsp_Print
0082338c   Mcbsp_IsBusy
008233b8   Mcbsp_Init
00823460   Mcbsp_GetTxDataPtr
00823468   Mcbsp_GetTransferStatus
00823470   Mcbsp_GetRxDataPtr
00823478   Mcbsp_EnableRxIntr
0082348c   Mcbsp_DisableRxIntr
008234a0   Timer_Stop
008234e0   Timer_Start
00823560   Timer_Restart
00823620   Timer_Print
00823654   Timer_Init
008237a8   Timer_GetTicksUsec
00823814   Timer_GetTicksSec
00823848   Timer_GetTicksMsec
00823874   Timer_Delete
00823878   Timer_Add
00823880   ti_sysbios_gates_GateMutexPri_enter__E
00823c60   Cppi_initDescriptor
00824020   SysTime_Now
00824080   SysTime_Cmp
008240e0   SysTime_isTimeOver
00824110   SysTime_DeltaUs
00824144   SysTime_RemainingUs
0082416c   SysTime_Future
008241ec   SysTime_Delta
00824228   SysTime_Elapsed
00824254   SysTime_Remaining
00824264   SysTime_Print
008242a8   SysTime_Passed
00824304   SysTime_Init
00824350   SysTime_Get
00824378   SysTime_AddUsecs
008243e0   ti_sdo_ipc_SharedRegion_reserveMemory__F
008247a0   ti_sysbios_knl_Task_Instance_init__F
00824b60   ti_sysbios_knl_Task_setPri__E
00824f20   fputs
008255b0   DspToIpu_Start
008255c0   DspToIpu_Init
00825640   HeapMemMP_sharedMemReq
008259c0   passPowerUp
00825a60   ethernet_PHY_SGMII_init
00825bb8   Ethernet_InitCallBack
00825bcc   Ethernet_Init
00825d34   Ethernet_GetHandle
00825d40   xdc_runtime_System_printfExtend__I
008260a0   GateMP_sharedMemReq
008263e0   Pa_create
00826720   Qmss_init
00826a60   HeapBufMP_open
008270a0   ti_sysbios_knl_Swi_restoreHwi__E
008273c0   GateMP_openByAddr
008276c0   Srio_start
008279c0   ti_sdo_ipc_heaps_HeapBufMP_free__E
00827cc0   ti_sysbios_knl_Swi_runLoop__I
00827fc0   MessageQ_alloc
008282a0   Pa_forwardResult
00828580   SharedRegion_getEntry
00828860   SharedRegion_getPtr
00828e20   ti_sdo_ipc_notifyDrivers_NotifyDriverShm_isr__I
00829100   ti_sysbios_heaps_HeapMem_Instance_init__F
008293e0   ti_sysbios_knl_Event_post__E
008296c0   MessageQ_open
00829980   ti_sdo_ipc_transports_TransportShmCirc_put__E
00829c40   ti_sysbios_family_c66_tci66xx_CpIntc_Module_startup__F
00829f00   NameServer_getLocal
0082a1a0   Srio_init
0082a980   ti_sdo_ipc_heaps_HeapBufMP_Instance_finalize__F
0082ac20   Ipc_start
0082aea0   SharedRegion_getSRPtr
0082b3a0   ti_sdo_ipc_transports_TransportShmCirc_sharedMemReq__F
0082b620   ti_sysbios_timers_timer64_Timer_deviceConfig__I
0082b8a0   xdc_runtime_Error_raiseX__F
0082bb20   ListMP_sharedMemReq
0082bd80   ti_sdo_ipc_ListMP_Instance_finalize__F
0082bfe0   ti_sdo_ipc_heaps_HeapMemMP_Instance_finalize__F
0082c240   ti_sdo_ipc_notifyDrivers_NotifyDriverShm_disableEvent__E
0082c4a0   ti_sdo_ipc_notifyDrivers_NotifyDriverShm_sharedMemReq__F
0082c700   ti_sysbios_family_c64p_Hwi_dispatchCore__I
0082c960   ti_sysbios_family_c64p_Hwi_reconfig__E
0082cbc0   xdc_runtime_Startup_startMods__I
0082ce20   Cppi_open
0082d060   Pa_resetControl
0082d2a0   __c6xabi_divull
0082d960   ti_sdo_ipc_MessageQ_Instance_finalize__F
0082dba0   ti_sysbios_family_c64p_Exception_internalHandler__I
0082dde0   ti_sysbios_knl_Semaphore_post__E
0082e078   FIFO_Put_v2
0082e0b4   FIFO_Print
0082e1a0   FIFO_Get
0082e1e0   FIFO_Init_v2
0082e22c   FIFO_GetSize
0082e240   MessageQ_get
0082e460   UartSetBaudRate
0082e488   platform_uart_set_baudrate
0082e4c4   UartIsDataReady
0082e4e8   UartReadData
0082e4f4   platform_uart_read
0082e558   UartInit
0082e618   platform_uart_init
0082e648   UartReadBaudRate
0082e8a0   fputc
0082eac0   ti_sysbios_knl_Task_exit__E
0082ece0   ti_sysbios_knl_Task_schedule__I
0082ef00   ti_sysbios_knl_Task_startCore__E
0082f120   xdc_runtime_Core_createObject__I
0082f340   GateMP_enter
0082f540   GateMP_leave
0082f740   ListMP_openByAddr
0082fb40   Qmss_programAccumulator
0082fd40   STOP
0082fe94   START
0082fed8   Init_timestamp_obj
00830140   ti_sysbios_family_c64p_Hwi_dispatchAlways
00830340   cppi_internal_heap_add
00830540   setvbuf
00830740   ti_sdo_ipc_notifyDrivers_NotifyDriverShm_sendEvent__E
00830940   Intr_Init
00830a68   Intr_EnableEvent
00830ab8   Intr_DisableEvent
00830b20   ti_sdo_ipc_GateMP_attach__F
00830d00   ti_sdo_ipc_GateMP_getFreeResource__I
00830ee0   ti_sdo_ipc_heaps_HeapBufMP_alloc__E
008310c0   ti_sysbios_knl_Task_postInit__I
008312a0   ti_sysbios_timers_timer64_Timer_getFreq__E
00831480   Cppi_initCfg
008319c0   ti_sdo_ipc_notifyDrivers_NotifyDriverShm_registerEvent__E
00831b80   ti_sysbios_knl_Task_checkStacks__E
00831d40   ti_sysbios_timers_timer64_Timer_setPeriodMicroSecs__E
00831f00   xdc_runtime_Text_putSite__F
008320c0   HSEM_Unlock
00832124   HSEM_ModuleInit
00832164   HSEM_Lock
008321f8   HSEM_Init
00832260   HOSTrename
00832400   HeapBufMP_openByAddr
008325a0   HeapMemMP_openByAddr
00832740   Pa_downloadImage
008328e0   SharedRegion_getCacheLineSize
00832a80   SharedRegion_getHeap
00832c20   SharedRegion_isCacheEnabled
00832dc0   __c6xabi_divul
00832f60   ti_sdo_ipc_GateMP_openRegion0Reserved__F
00833100   ti_sdo_ipc_notifyDrivers_NotifyDriverShm_enableEvent__E
008332a0   ti_sdo_ipc_nsremote_NameServerRemoteNotify_attach__E
00833440   ti_sysbios_family_c66_Cache_block__I
008335e0   ti_sysbios_family_c66_tci66xx_CpIntc_dispatch__F
00833780   ti_sysbios_gates_GateMutex_enter__E
00833920   ti_sysbios_knl_Swi_Instance_init__F
00833ac0   ti_sysbios_knl_Task_unblockI__E
00833c60   ti_sysbios_timers_timer64_Timer_start__E
00833e00   Notify_intLineRegistered
00833f80   Gpi_Read
00833fb4   Gpi_Print
00833fc4   Gpi_Init
008340d0   Gpi_EnableIntr
008340e4   Gpi_DisableIntr
00834280   CSL_tmrGetBaseAddress
00834400   CSL_tmrHwSetup
00834580   ti_sysbios_family_c64p_Exception_dispatch__E
00834700   ti_sdo_ipc_MessageQ_registerTransport__F
00834880   ti_sdo_ipc_MessageQ_unregisterTransport__F
00834a00   ti_sdo_ipc_Notify_Module_startup__F
00834b80   ti_sdo_ipc_gates_GatePeterson_enter__E
00834d00   ti_sdo_ipc_notifyDrivers_NotifyDriverShm_unregisterEvent__E
00834e80   ti_sdo_utils_NameServer_Module_startup__F
00835000   ti_sysbios_syncs_SyncSem_Instance_init__F
00835180   DDCRx_QueueInit
008351d0   DDCRx_QueueGetSize
008351f4   DDCRx_JobFree
0083526c   DDCRx_JobAlloc
008352e0   Notify_attach
00835440   platform_delaycycles
00835470   UartWriteData
008354b4   platform_uart_write
008354c4   uart_write
008355a0   Qmss_getMemoryRegionCfg
00835700   ti_sdo_ipc_GateMP_createLocal__F
00835860   ti_sdo_ipc_gates_GateHWSem_Instance_init__F
008359c0   ti_sdo_utils_NameServer_isRegistered__E
00835b20   ti_sdo_utils_NameServer_registerRemoteDriver__E
00835c80   ti_sdo_utils_NameServer_unregisterRemoteDriver__E
00835de0   ti_sysbios_BIOS_rtsUnlock__I
00835f40   ti_sysbios_knl_Task_yield__E
008360a0   CSL_chipReadReg
008361e0   GateMP_close
00836320   MessageQ_registerHeap
00836460   Gpo_IsSet
00836498   Gpo_Clear
008364c8   Gpo_Set
008364f4   Gpo_Toggle
00836510   Gpo_Print
00836514   Gpo_IsPinEqual
00836524   Gpo_Init
008365a0   _auto_init_elf
00836820   _CSL_intcIvpSet
00836830   CSL_intcInterruptEnable
00836850   CSL_intcInterruptDisable
00836870   CSL_intcInterruptClear
00836880   CSL_intcInterruptSet
0083688c   CSL_intcInterruptRestore
008368a4   CSL_intcQueryInterruptStatus
008368b8   CSL_intcGlobalEnable
008368d8   CSL_intcGlobalDisable
008368f8   CSL_intcGlobalRestore
00836910   CSL_intcGlobalNmiEnable
00836924   CSL_intcGlobalExcepEnable
00836938   CSL_intcGlobalExtExcepEnable
0083694c   CSL_intcGlobalExcepClear
00836aa0   ti_sdo_ipc_Notify_exec__F
00836be0   ti_sdo_ipc_nsremote_NameServerRemoteNotify_Instance_finalize__F
00836d20   ti_sysbios_family_c64p_Hwi_Module_startup__F
00836e60   ti_sysbios_family_c66_Cache_Module_startup__F
00836fa0   ti_sysbios_gates_GateSwi_enter__E
008370e0   ti_sysbios_knl_Semaphore_Instance_init__F
00837220   ti_sysbios_knl_Swi_post__E
00837360   ti_sysbios_knl_Task_blockI__E
008374a0   xdc_runtime_Text_putLab__F
008375e0   MemMgr_InitHeapMemory
00837620   MemMgr_InitCriticalMemory
00837700   Qmss_disableAccumulator
00837820   _closefile
00837a60   fseek
00837b80   ti_sdo_ipc_GateMP_start__F
00837ca0   ti_sdo_ipc_MessageQ_Module_startup__F
00837dc0   ti_sdo_ipc_family_c647x_Interrupt_intRegister__E
00837ee0   ti_sysbios_xdcruntime_GateThreadSupport_leave__F
00838000   xdc_runtime_Text_putMod__F
00838120   Eth_Debug
00838220   HOSTlseek
00838320   _wrt_ok
00838420   ti_sdo_ipc_Notify_Instance_finalize__F
00838520   ti_sdo_ipc_SharedRegion_attach__F
00838620   ti_sdo_ipc_SharedRegion_clearReservedMemory__F
00838720   ti_sdo_ipc_family_c647x_Interrupt_Module_startup__F
00838820   ti_sdo_ipc_gates_GateHWSem_Module_startup__F
00838920   ti_sdo_ipc_gates_GateMPSupportNull_enter__E
00838a20   ti_sdo_ipc_gates_GateMPSupportNull_leave__E
00838b20   ti_sysbios_gates_GateMutexPri_leave__E
00838c20   ti_sysbios_timers_timer64_Timer_initDevice__I
00838d20   xdc_runtime_Core_deleteObject__I
00838e20   xdc_runtime_Startup_exec__F
00838f20   xdc_runtime_Text_visitRope2__I
00839020   HOSTopen
00839100   HeapBufMP_create
008392c0   atoi
008393a0   close
00839480   ltoa
00839560   memset
00839640   printf
00839720   ti_sdo_ipc_Notify_Object__create__S
00839800   ti_sdo_ipc_family_c647x_Interrupt_intShmStub__I
008398e0   ti_sdo_ipc_family_c647x_NotifySetup_attach__E
008399c0   ti_sdo_ipc_gates_GateHWSem_enter__E
00839aa0   ti_sdo_ipc_heaps_HeapBufMP_getStats__F
00839b80   ti_sysbios_family_c64p_Hwi_Instance_finalize__F
00839c60   ti_sysbios_family_c64p_Hwi_Instance_init__F
00839d40   ti_sysbios_family_c64p_Hwi_Object__create__S
00839e20   ti_sysbios_hal_Hwi_Object__create__S
00839f00   ti_sysbios_knl_Swi_Instance_finalize__F
00839fe0   ti_sysbios_timers_timer64_Timer_startup__E
0083a0c0   xdc_runtime_Error_print__F
0083a1a0   xdc_runtime_Memory_alloc__F
0083a280   HOSTread
0083a340   HOSTunlink
0083a400   HOSTwrite
0083a4c0   HeapMemMP_create
0083a580   ListMP_create
0083a640   MessageQ_create2
0083a700   Qmss_setEoiVector
0083a7c0   Qmss_setQueueThreshold
0083aa00   __cxa_finalize
0083aac0   __c6xabi_divu
0083aac0   __divu
0083ab80   _doflush
0083ac40   CSL_tmrOpen
0083ad00   exit
0083ae80   ti_sdo_ipc_GateMP_Object__create__S
0083af40   ti_sdo_ipc_GateMP_getRegion0ReservedSize__F
0083b000   ti_sdo_ipc_ListMP_Object__create__S
0083b0c0   ti_sdo_ipc_MessageQ_Object__create__S
0083b180   ti_sdo_ipc_gates_GatePeterson_Object__create__S
0083b240   ti_sdo_ipc_heaps_HeapBufMP_Object__create__S
0083b300   ti_sdo_ipc_heaps_HeapMemMP_Object__create__S
0083b3c0   ti_sdo_ipc_notifyDrivers_NotifyDriverShm_Object__create__S
0083b480   ti_sdo_ipc_nsremote_NameServerRemoteNotify_Object__create__S
0083b540   ti_sdo_ipc_transports_TransportShmCircSetup_attach__E
0083b600   ti_sdo_ipc_transports_TransportShmCirc_Object__create__S
0083b6c0   ti_sysbios_BIOS_errorRaiseHook__I
0083b780   ti_sysbios_gates_GateAll_leave__E
0083b840   ti_sysbios_heaps_HeapMem_getStats__E
0083b900   ti_sysbios_knl_Swi_Object__create__S
0083b9c0   ti_sysbios_knl_Swi_schedule__I
0083ba80   ti_sysbios_knl_Task_Object__create__S
0083bb40   ti_sysbios_knl_Task_allBlockedFunction__I
0083bc00   ti_sysbios_syncs_SyncSem_Object__create__S
0083bcc0   ti_sysbios_timers_timer64_Timer_stop__E
0083bd80   xdc_runtime_System_formatNum__I
0083be40   xdc_runtime_knl_GateThread_Object__create__S
0083bf00   Cppi_channelEnable
0083bfa0   HOSTclose
0083c040   Qmss_queueClose
0083c0e0   Qmss_startCfg
0083c180   __c6xabi_remu
0083c180   __remu
0083c220   _c_int00
0083c2c0   _cleanup
0083c540   ti_sysbios_family_c64p_Hwi_plug__E
0083c5e0   cppi_internal_heap_malloc
0083c680   cppi_list_cat
0083c7c0   lseek
0083c860   memcpy
0083ca40   ti_sdo_ipc_family_c647x_Interrupt_intUnregister__E
0083cae0   ti_sdo_ipc_gates_GatePeterson_leave__E
0083cb80   ti_sysbios_family_c64p_Exception_Module_startup__F
0083cc20   ti_sysbios_family_c66_tci66xx_CpIntc_mapSysIntToHostInt__F
0083ccc0   ti_sysbios_heaps_HeapMem_init__I
0083cd60   ti_sysbios_knl_Idle_run__E
0083ce00   ti_sysbios_syncs_SyncSem_wait__F
0083cea0   write
0083cf40   xdc_runtime_Assert_raise__I
0083cfe0   xdc_runtime_SysMin_abort__F
0083d080   xdc_runtime_SysMin_flush__F
0083d120   xdc_runtime_SysMin_putch__F
0083d1c0   xdc_runtime_Text_xprintf__I
0083d260   Cppi_setCpdmaLoopback
0083d2e0   GateMP_create
0083d360   HeapBufMP_Params_init
0083d3e0   Pa_getBufferReq
0083d460   Qmss_getMemRegQueueHandle
0083d4e0   Qmss_queueOpen
0083d560   __c6xabi_fixdu
0083d5e0   __c6xabi_llshl
0083d660   ti_sysbios_family_c62_TaskSupport_swap__E
0083d6e0   cppi_internal_heap_cache_begin
0083d760   cppi_list_remove
0083d7e0   debug_intr
0083d818   Debug_isr
0083d860   malloc
0083d960   readmsg
0083da60   ti_sdo_ipc_gates_GateHWSem_Object__create__S
0083dae0   ti_sdo_ipc_gates_GateMPSupportNull_Object__create__S
0083db60   ti_sdo_ipc_notifyDrivers_NotifyDriverShm_Instance_finalize__F
0083dbe0   ti_sdo_ipc_nsremote_NameServerRemoteNotify_detach__E
0083dc60   ti_sdo_ipc_transports_TransportShmCirc_Instance_finalize__F
0083dce0   ti_sdo_utils_List_Object__create__S
0083dd60   ti_sysbios_BIOS_exit__E
0083dde0   ti_sysbios_family_c62_TaskSupport_start__E
0083de60   ti_sysbios_family_c64p_Hwi_dispatchC__I
0083dee0   ti_sysbios_family_c64p_Hwi_getStackInfo__E
0083df60   ti_sysbios_family_c66_Cache_invL1pAll__E
0083dfe0   ti_sysbios_family_c66_tci66xx_CpIntc_getEventId__F
0083e060   ti_sysbios_gates_GateAll_Object__create__S
0083e0e0   ti_sysbios_gates_GateHwi_Object__create__S
0083e160   ti_sysbios_gates_GateMutexPri_Object__create__S
0083e1e0   ti_sysbios_gates_GateMutex_Object__create__S
0083e260   ti_sysbios_gates_GateSwi_Object__create__S
0083e2e0   ti_sysbios_gates_GateSwi_leave__E
0083e360   ti_sysbios_hal_Hwi_checkStack
0083e3e0   ti_sysbios_hal_Hwi_initStack
0083e460   ti_sysbios_heaps_HeapMem_Object__create__S
0083e4e0   ti_sysbios_knl_Event_Object__create__S
0083e560   ti_sysbios_knl_Queue_Object__create__S
0083e5e0   ti_sysbios_knl_Semaphore_Object__create__S
0083e660   ti_sysbios_knl_Swi_startup__E
0083e6e0   ti_sysbios_knl_Task_restore__E
0083e760   ti_sysbios_xdcruntime_GateThreadSupport_Object__create__S
0083e7e0   remove
0083e7e0   unlink
0083e860   xdc_runtime_Core_assignLabel__I
0083e8e0   xdc_runtime_Core_assignParams__I
0083e960   xdc_runtime_System_atexit__F
0083e9e0   xdc_runtime_System_putchar__I
0083ea60   xdc_runtime_System_rtsExit__I
0083eae0   xdc_runtime_Text_printVisFxn__I
0083eb60   GateMP_Params_init
0083ebc0   HeapMemMP_Params_init
0083ec20   Pa_formatStatsReply
0083ec80   Gpio_Init
0083ece0   __c6xabi_frcmpyd_div
0083ed40   __c6xabi_llshru
0083eda0   __c6xabi_remull
0083ee00   _subcull
0083ee60   ti_sysbios_family_c64p_Hwi_switchAndDispatch__I
0083eec0   ti_sysbios_family_xxx_Hwi_switchAndRunFunc
0083ef20   cppi_list_add
0083ef80   cppi_list_cache_invalidate
0083efe0   memccpy
0083f100   sprintf
0083f160   ti_sdo_ipc_MessageQ_Object__get__S
0083f1c0   ti_sdo_ipc_family_c647x_NotifySetup_sharedMemReq__E
0083f220   ti_sdo_ipc_gates_GatePeterson_Instance_finalize__F
0083f280   ti_sdo_ipc_notifyDrivers_NotifyDriverShm_setNotifyHandle__E
0083f2e0   ti_sdo_ipc_nsremote_NameServerRemoteNotify_cbFxn__I
0083f340   ti_sdo_ipc_transports_TransportShmCircSetup_sharedMemReq__E
0083f3a0   ti_sdo_utils_List_Object__get__S
0083f400   ti_sdo_utils_NameServer_Object__get__S
0083f460   ti_sysbios_BIOS_exitFunc__I
0083f4c0   ti_sysbios_BIOS_registerRTSLock__I
0083f520   ti_sysbios_gates_GateAll_enter__E
0083f580   ti_sysbios_gates_GateMutex_Instance_init__F
0083f5e0   ti_sysbios_hal_Hwi_Instance_init__F
0083f640   ti_sysbios_heaps_HeapMem_Object__get__S
0083f6a0   ti_sysbios_knl_Queue_Object__get__S
0083f700   ti_sysbios_knl_Swi_Module_startup__F
0083f760   ti_sysbios_knl_Swi_Object__get__S
0083f7c0   ti_sysbios_knl_Task_Object__get__S
0083f820   ti_sysbios_knl_Task_enter__I
0083f880   vsprintf
0083f8e0   writemsg
0083f938   C$$IO$$
0083f940   xdc_runtime_GateNull_Object__create__S
0083f9a0   xdc_runtime_Memory_calloc__F
0083fa00   xdc_runtime_Memory_valloc__F
0083fa60   xdc_runtime_SysMin_Module_startup__F
0083fac0   xdc_runtime_SysMin_exit__F
0083fb20   xdc_runtime_SysMin_output__I
0083fb80   xdc_runtime_System_aprintf_va__F
0083fb80   xdc_runtime_System_avprintf__F
0083fbe0   xdc_runtime_System_printf_va__F
0083fbe0   xdc_runtime_System_vprintf__F
0083fc40   xdc_runtime_Text_cordText__F
0083fca0   MessageQ_create
0083fce0   IntrDB_GetIntrTableParam
0083fd20   CycleDelay
0083fd60   Qmss_ackInterrupt
0083fda0   Qmss_getMemRegDescSize
0083fde0   __c6xabi_isinf
0083fe60   __c6xabi_strasgi_64plus
0083fe60   __strasgi_64plus
0083fea0   _args_main
0083ff60   ti_sysbios_family_c62_TaskSupport_buildTaskStack
0083ffa0   ti_sysbios_family_xxx_Hwi_switchToIsrStack
0083ffe0   free
00840060   ti_sdo_ipc_GateMP_Object__delete__S
008400a0   ti_sdo_ipc_GateMP_Params__init__S
008400e0   ti_sdo_ipc_GateMP_RemoteCustom1Proxy_Object__create__S
00840120   ti_sdo_ipc_GateMP_RemoteCustom2Proxy_Object__create__S
00840160   ti_sdo_ipc_GateMP_RemoteSystemProxy_Object__create__S
008401a0   ti_sdo_ipc_ListMP_Object__delete__S
008401e0   ti_sdo_ipc_ListMP_Params__init__S
00840220   ti_sdo_ipc_MessageQ_Params__init__S
00840260   ti_sdo_ipc_MessageQ_registerTransport__E
008402a0   ti_sdo_ipc_family_c647x_Interrupt_intClear__E
008402e0   ti_sdo_ipc_family_c647x_Interrupt_intSend__E
00840320   ti_sdo_ipc_gates_GateHWSem_Handle__label__S
00840360   ti_sdo_ipc_gates_GateHWSem_Object__delete__S
008403a0   ti_sdo_ipc_gates_GateHWSem_Params__init__S
008403e0   ti_sdo_ipc_gates_GateHWSem_leave__E
00840420   ti_sdo_ipc_gates_GateMPSupportNull_Handle__label__S
00840460   ti_sdo_ipc_gates_GateMPSupportNull_Object__delete__S
008404a0   ti_sdo_ipc_gates_GateMPSupportNull_Params__init__S
008404e0   ti_sdo_ipc_gates_GatePeterson_Handle__label__S
00840520   ti_sdo_ipc_gates_GatePeterson_Object__delete__S
00840560   ti_sdo_ipc_gates_GatePeterson_Params__init__S
008405a0   ti_sdo_ipc_gates_GatePeterson_sharedMemReq__E
008405e0   ti_sdo_ipc_heaps_HeapBufMP_Handle__label__S
00840620   ti_sdo_ipc_heaps_HeapBufMP_Object__delete__S
00840660   ti_sdo_ipc_heaps_HeapBufMP_Params__init__S
008406a0   ti_sdo_ipc_heaps_HeapMemMP_Handle__label__S
008406e0   ti_sdo_ipc_heaps_HeapMemMP_Object__delete__S
00840720   ti_sdo_ipc_heaps_HeapMemMP_Params__init__S
00840760   ti_sdo_ipc_notifyDrivers_NotifyDriverShm_Handle__label__S
008407a0   ti_sdo_ipc_notifyDrivers_NotifyDriverShm_InterruptProxy_intRegister__E
008407e0   ti_sdo_ipc_notifyDrivers_NotifyDriverShm_Object__delete__S
00840820   ti_sdo_ipc_notifyDrivers_NotifyDriverShm_Params__init__S
00840860   ti_sdo_ipc_nsremote_NameServerRemoteNotify_Handle__label__S
008408a0   ti_sdo_ipc_nsremote_NameServerRemoteNotify_Object__delete__S
008408e0   ti_sdo_ipc_nsremote_NameServerRemoteNotify_Object__first__S
00840920   ti_sdo_ipc_nsremote_NameServerRemoteNotify_Object__next__S
00840960   ti_sdo_ipc_nsremote_NameServerRemoteNotify_Params__init__S
008409a0   ti_sdo_ipc_nsremote_NameServerRemoteNotify_get__E
008409e0   ti_sdo_ipc_nsremote_NameServerRemoteNotify_sharedMemReq__E
00840a20   ti_sdo_ipc_transports_TransportShmCirc_Handle__label__S
00840a60   ti_sdo_ipc_transports_TransportShmCirc_Object__delete__S
00840aa0   ti_sdo_ipc_transports_TransportShmCirc_Params__init__S
00840ae0   ti_sdo_utils_List_Object__destruct__S
00840b20   ti_sdo_utils_NameServer_Module__startupDone__F
00840b60   ti_sdo_utils_NameServer_Object__first__S
00840ba0   ti_sdo_utils_NameServer_Object__next__S
00840be0   ti_sysbios_BIOS_rtsLock__I
00840c20   ti_sysbios_BIOS_startFunc__I
00840c60   ti_sysbios_family_c64p_Hwi_Module__startupDone__F
00840ca0   ti_sysbios_family_c64p_Hwi_Object__delete__S
00840ce0   ti_sysbios_family_c64p_Hwi_Params__init__S
00840d20   ti_sysbios_family_c64p_Hwi_disableInterrupt__E
00840d60   ti_sysbios_family_c64p_Hwi_enableInterrupt__E
00840da0   ti_sysbios_family_c66_tci66xx_CpIntc_dispatchPlug__E
00840de0   ti_sysbios_family_c66_tci66xx_CpIntc_dispatchPlug__F
00840e20   ti_sysbios_family_c66_tci66xx_CpIntc_unused__F
00840e60   ti_sysbios_gates_GateAll_Handle__label__S
00840ea0   ti_sysbios_gates_GateAll_Object__delete__S
00840ee0   ti_sysbios_gates_GateHwi_Handle__label__S
00840f20   ti_sysbios_gates_GateHwi_Object__delete__S
00840f60   ti_sysbios_gates_GateMutexPri_Handle__label__S
00840fa0   ti_sysbios_gates_GateMutexPri_Instance_init__F
00840fe0   ti_sysbios_gates_GateMutexPri_Object__delete__S
00841020   ti_sysbios_gates_GateMutexPri_Object__destruct__S
00841060   ti_sysbios_gates_GateMutex_Handle__label__S
008410a0   ti_sysbios_gates_GateMutex_Object__delete__S
008410e0   ti_sysbios_gates_GateMutex_leave__E
00841120   ti_sysbios_gates_GateSwi_Handle__label__S
00841160   ti_sysbios_gates_GateSwi_Object__delete__S
008411a0   ti_sysbios_hal_Cache_CacheProxy_inv__E
008411a0   ti_sysbios_hal_Cache_inv__E
008411e0   ti_sysbios_hal_Cache_CacheProxy_wbInv__E
008411e0   ti_sysbios_hal_Cache_wbInv__E
00841220   ti_sysbios_hal_Cache_CacheProxy_wb__E
00841220   ti_sysbios_hal_Cache_wb__E
00841260   ti_sysbios_hal_Hwi_HwiProxy_Object__create__S
008412a0   ti_sysbios_hal_Hwi_Instance_finalize__F
008412e0   ti_sysbios_hal_Hwi_Params__init__S
00841320   ti_sysbios_hal_Timer_Module__startupDone__F
00841360   ti_sysbios_heaps_HeapMem_Handle__label__S
008413a0   ti_sysbios_heaps_HeapMem_Object__delete__S
008413e0   ti_sysbios_knl_Event_Instance_init__F
00841420   ti_sysbios_knl_Queue_Object__destruct__S
00841460   ti_sysbios_knl_Semaphore_Object__delete__S
008414a0   ti_sysbios_knl_Semaphore_Object__destruct__S
008414e0   ti_sysbios_knl_Semaphore_Params__init__S
00841520   ti_sysbios_knl_Swi_Object__destruct__S
00841560   ti_sysbios_knl_Swi_Params__init__S
008415a0   ti_sysbios_knl_Task_Params__init__S
008415e0   ti_sysbios_syncs_SyncSem_Handle__label__S
00841620   ti_sysbios_syncs_SyncSem_Instance_finalize__F
00841660   ti_sysbios_syncs_SyncSem_Object__delete__S
008416a0   ti_sysbios_timers_timer64_Timer_Module__startupDone__F
008416e0   ti_sysbios_xdcruntime_GateThreadSupport_Instance_init__F
00841720   ti_sysbios_xdcruntime_GateThreadSupport_Object__delete__S
00841760   xdc_runtime_Error_check__F
008417a0   xdc_runtime_Error_init__F
008417e0   xdc_runtime_Error_raiseX__E
00841820   xdc_runtime_GateNull_Handle__label__S
00841860   xdc_runtime_GateNull_Object__delete__S
008418a0   xdc_runtime_Gate_leaveSystem__F
00841960   xdc_runtime_Memory_free__F
008419a0   xdc_runtime_Memory_valloc__E
008419e0   xdc_runtime_Registry_findById__F
00841a20   xdc_runtime_Startup_exec__I
00841a60   xdc_runtime_System_abort__F
00841aa0   xdc_runtime_System_aprintf__E
00841ae0   xdc_runtime_System_printf__E
00841b20   xdc_runtime_Text_ropeText__F
00841b60   xdc_runtime_Text_visitRope__I
00841ba0   xdc_runtime_knl_GateThread_Handle__label__S
00841be0   xdc_runtime_knl_GateThread_Instance_finalize__F
00841c20   xdc_runtime_knl_GateThread_Instance_init__F
00841c60   xdc_runtime_knl_GateThread_Object__delete__S
00841ca0   xdc_runtime_knl_GateThread_Proxy_Object__create__S
00841ce0   CSL_GPIO_open
00841d00   CSL_SRIO_Open
00841d20   Cppi_getFlowId
00841d40   Cppi_init
00841d60   MultiProc_self
00841d80   Pa_requestStats
00841da0   Qmss_getQueueHandle
00841dc0   Qmss_getQueueNumber
00841de0   Qmss_start
00841e00   __c6xabi_negll
00841e20   __cxa_atexit
00841e40   __cxa_ia64_exit
00841e60   __c6xabi_pop_rts
00841e60   __pop_rts
00841e80   __c6xabi_push_rts
00841e80   __push_rts
00841ea0   __xdc__init
00841ec0   _nop
00841f60   _register_lock
00841f80   _register_unlock
00841fa0   ti_sysbios_family_c62_TaskSupport_glue
00841fc0   ti_sysbios_family_xxx_Hwi_switchToTaskStack
00841fe0   C$$EXIT
00841fe0   abort
00842000   atexit
00842020   cppi_list_get_head
00842040   cppi_list_get_next
00842060   CSL_tmrInit
00842080   CSL_tscEnable
00842088   CSL_tscRead
008420a0   __TI_decompress_none
008420c0   __TI_decompress_rle24
008420e0   main
00842140   ti_sdo_ipc_GateMP_RemoteCustom1Proxy_Object__delete__S
00842160   ti_sdo_ipc_GateMP_RemoteCustom1Proxy_Params__init__S
00842180   ti_sdo_ipc_GateMP_RemoteCustom1Proxy_Proxy__abstract__S
008421a0   ti_sdo_ipc_GateMP_RemoteCustom1Proxy_Proxy__delegate__S
008421c0   ti_sdo_ipc_GateMP_RemoteCustom1Proxy_getReservedMask__E
008421e0   ti_sdo_ipc_GateMP_RemoteCustom1Proxy_sharedMemReq__E
00842200   ti_sdo_ipc_GateMP_RemoteCustom2Proxy_Object__delete__S
00842220   ti_sdo_ipc_GateMP_RemoteCustom2Proxy_Params__init__S
00842240   ti_sdo_ipc_GateMP_RemoteCustom2Proxy_Proxy__abstract__S
00842260   ti_sdo_ipc_GateMP_RemoteCustom2Proxy_Proxy__delegate__S
00842280   ti_sdo_ipc_GateMP_RemoteCustom2Proxy_getReservedMask__E
008422a0   ti_sdo_ipc_GateMP_RemoteCustom2Proxy_sharedMemReq__E
008422c0   ti_sdo_ipc_GateMP_RemoteSystemProxy_Object__delete__S
008422e0   ti_sdo_ipc_GateMP_RemoteSystemProxy_Params__init__S
00842300   ti_sdo_ipc_GateMP_RemoteSystemProxy_Proxy__abstract__S
00842320   ti_sdo_ipc_GateMP_RemoteSystemProxy_Proxy__delegate__S
00842340   ti_sdo_ipc_GateMP_RemoteSystemProxy_getReservedMask__E
00842360   ti_sdo_ipc_GateMP_RemoteSystemProxy_sharedMemReq__E
00842380   ti_sdo_ipc_GateMP_attach__E
008423a0   ti_sdo_ipc_GateMP_getRegion0ReservedSize__E
008423c0   ti_sdo_ipc_GateMP_getSharedAddr__E
008423e0   ti_sdo_ipc_GateMP_getSharedAddr__F
00842400   ti_sdo_ipc_GateMP_start__E
00842420   ti_sdo_ipc_MessageQ_Module_startup__E
00842440   ti_sdo_ipc_MessageQ_SetupTransportProxy_attach__E
00842460   ti_sdo_ipc_MessageQ_SetupTransportProxy_isRegistered__E
00842480   ti_sdo_ipc_MessageQ_SetupTransportProxy_sharedMemReq__E
008424a0   ti_sdo_ipc_MessageQ_unregisterTransport__E
008424c0   ti_sdo_ipc_Notify_Module_GateProxy_enter__E
008424e0   ti_sdo_ipc_Notify_Module_GateProxy_leave__E
00842500   ti_sdo_ipc_Notify_Module_startup__E
00842520   ti_sdo_ipc_Notify_SetupProxy_attach__E
00842540   ti_sdo_ipc_Notify_SetupProxy_numIntLines__E
00842560   ti_sdo_ipc_Notify_SetupProxy_sharedMemReq__E
00842580   ti_sdo_ipc_Notify_exec__E
008425a0   ti_sdo_ipc_SharedRegion_attach__E
008425c0   ti_sdo_ipc_SharedRegion_clearReservedMemory__E
008425e0   ti_sdo_ipc_SharedRegion_reserveMemory__E
00842600   ti_sdo_ipc_SharedRegion_start__E
00842620   ti_sdo_ipc_family_c647x_Interrupt_Module_startup__E
00842640   ti_sdo_ipc_family_c647x_Interrupt_intDisable__E
00842660   ti_sdo_ipc_family_c647x_Interrupt_intEnable__E
00842680   ti_sdo_ipc_family_c647x_NotifySetup_numIntLines__E
008426a0   ti_sdo_ipc_gates_GateHWSem_Module_startup__E
008426c0   ti_sdo_ipc_gates_GateHWSem_getReservedMask__E
008426e0   ti_sdo_ipc_gates_GateHWSem_query__E
00842700   ti_sdo_ipc_gates_GateHWSem_query__F
00842720   ti_sdo_ipc_gates_GateHWSem_sharedMemReq__E
00842740   ti_sdo_ipc_gates_GateMPSupportNull_Instance_init__F
00842760   ti_sdo_ipc_gates_GateMPSupportNull_getReservedMask__E
00842780   ti_sdo_ipc_gates_GateMPSupportNull_query__E
008427a0   ti_sdo_ipc_gates_GateMPSupportNull_query__F
008427c0   ti_sdo_ipc_gates_GateMPSupportNull_sharedMemReq__E
008427e0   ti_sdo_ipc_gates_GatePeterson_getReservedMask__E
00842800   ti_sdo_ipc_gates_GatePeterson_query__E
00842820   ti_sdo_ipc_gates_GatePeterson_query__F
00842840   ti_sdo_ipc_heaps_HeapBufMP_getStats__E
00842860   ti_sdo_ipc_heaps_HeapBufMP_isBlocking__E
00842880   ti_sdo_ipc_heaps_HeapBufMP_isBlocking__F
008428a0   ti_sdo_ipc_heaps_HeapMemMP_isBlocking__E
008428c0   ti_sdo_ipc_heaps_HeapMemMP_isBlocking__F
008428e0   ti_sdo_ipc_notifyDrivers_NotifyDriverShm_InterruptProxy_intClear__E
00842900   ti_sdo_ipc_notifyDrivers_NotifyDriverShm_InterruptProxy_intDisable__E
00842920   ti_sdo_ipc_notifyDrivers_NotifyDriverShm_InterruptProxy_intEnable__E
00842940   ti_sdo_ipc_notifyDrivers_NotifyDriverShm_InterruptProxy_intSend__E
00842960   ti_sdo_ipc_notifyDrivers_NotifyDriverShm_InterruptProxy_intUnregister__E
00842980   ti_sdo_ipc_notifyDrivers_NotifyDriverShm_disable__E
008429a0   ti_sdo_ipc_notifyDrivers_NotifyDriverShm_enable__E
008429c0   ti_sdo_ipc_notifyDrivers_NotifyDriverShm_sharedMemReq__E
008429e0   ti_sdo_ipc_nsremote_NameServerRemoteNotify_swiFxnResponse__I
00842a00   ti_sdo_ipc_transports_TransportShmCircSetup_isRegistered__E
00842a20   ti_sdo_ipc_transports_TransportShmCirc_control__E
00842a40   ti_sdo_ipc_transports_TransportShmCirc_getStatus__E
00842a60   ti_sdo_ipc_transports_TransportShmCirc_notifyFxn__I
00842a80   ti_sdo_ipc_transports_TransportShmCirc_setErrFxn__E
00842aa0   ti_sdo_ipc_transports_TransportShmCirc_setErrFxn__F
00842ac0   ti_sdo_ipc_transports_TransportShmCirc_sharedMemReq__E
00842ae0   ti_sdo_utils_List_Instance_init__F
00842b00   ti_sdo_utils_MultiProc_getClusterId__E
00842b20   ti_sdo_utils_MultiProc_getClusterId__F
00842b40   ti_sdo_utils_NameServer_Module__startupDone__S
00842b60   ti_sdo_utils_NameServer_Module_startup__E
00842b80   ti_sdo_utils_NameServer_SetupProxy_attach__E
00842ba0   ti_sdo_utils_NameServer_SetupProxy_sharedMemReq__E
00842bc0   ti_sysbios_BIOS_RtsGateProxy_enter__E
00842be0   ti_sysbios_BIOS_RtsGateProxy_leave__E
00842c00   ti_sysbios_BIOS_getThreadType__E
00842c20   ti_sysbios_BIOS_nullFunc__I
00842c40   ti_sysbios_BIOS_setThreadType__E
00842c60   ti_sysbios_BIOS_start__E
00842c80   ti_sysbios_family_c62_TaskSupport_Module__startupDone__S
00842ca0   ti_sysbios_family_c62_TaskSupport_checkStack__E
00842cc0   ti_sysbios_family_c62_TaskSupport_getStackAlignment__E
00842ce0   ti_sysbios_family_c64p_Exception_Module_startup__E
00842d00   ti_sysbios_family_c64p_Hwi_Module__startupDone__S
00842d20   ti_sysbios_family_c64p_Hwi_Module_startup__E
00842d40   ti_sysbios_family_c64p_Hwi_clearInterrupt__E
00842d60   ti_sysbios_family_c64p_Hwi_getHandle__E
00842d80   ti_sysbios_family_c64p_Hwi_startup__E
00842da0   ti_sysbios_family_c64p_Hwi_switchFromBootStack__E
00842dc0   ti_sysbios_family_c64p_Hwi_unPluggedInterrupt__I
00842de0   ti_sysbios_family_c64p_tci6488_TimerSupport_enable__E
00842e00   ti_sysbios_family_c66_Cache_Module_startup__E
00842e20   ti_sysbios_family_c66_Cache_inv__E
00842e40   ti_sysbios_family_c66_Cache_wbInv__E
00842e60   ti_sysbios_family_c66_Cache_wb__E
00842e80   ti_sysbios_family_c66_tci66xx_CpIntc_Module_startup__E
00842ea0   ti_sysbios_family_c66_tci66xx_CpIntc_disableHostInt__E
00842ec0   ti_sysbios_family_c66_tci66xx_CpIntc_disableHostInt__F
00842ee0   ti_sysbios_family_c66_tci66xx_CpIntc_disableSysInt__E
00842f00   ti_sysbios_family_c66_tci66xx_CpIntc_disableSysInt__F
00842f20   ti_sysbios_family_c66_tci66xx_CpIntc_dispatch__E
00842f40   ti_sysbios_family_c66_tci66xx_CpIntc_enableHostInt__E
00842f60   ti_sysbios_family_c66_tci66xx_CpIntc_enableHostInt__F
00842f80   ti_sysbios_family_c66_tci66xx_CpIntc_enableSysInt__E
00842fa0   ti_sysbios_family_c66_tci66xx_CpIntc_enableSysInt__F
00842fc0   ti_sysbios_family_c66_tci66xx_CpIntc_getEventId__E
00842fe0   ti_sysbios_family_c66_tci66xx_CpIntc_mapSysIntToHostInt__E
00843000   ti_sysbios_family_c66_tci66xx_CpIntc_unused__E
00843020   ti_sysbios_gates_GateAll_Instance_init__F
00843040   ti_sysbios_gates_GateAll_query__E
00843060   ti_sysbios_gates_GateAll_query__F
00843080   ti_sysbios_gates_GateHwi_Instance_init__F
008430a0   ti_sysbios_gates_GateHwi_enter__E
008430c0   ti_sysbios_gates_GateHwi_leave__E
008430e0   ti_sysbios_gates_GateHwi_query__E
00843100   ti_sysbios_gates_GateHwi_query__F
00843120   ti_sysbios_gates_GateMutexPri_Instance_finalize__F
00843140   ti_sysbios_gates_GateMutexPri_query__E
00843140   ti_sysbios_xdcruntime_GateThreadSupport_query__F
00843160   ti_sysbios_gates_GateMutexPri_query__F
00843180   ti_sysbios_gates_GateMutex_Instance_finalize__F
008431a0   ti_sysbios_gates_GateMutex_query__E
008431c0   ti_sysbios_gates_GateMutex_query__F
008431e0   ti_sysbios_gates_GateSwi_Instance_init__F
00843200   ti_sysbios_gates_GateSwi_query__E
00843220   ti_sysbios_gates_GateSwi_query__F
00843240   ti_sysbios_hal_Hwi_HwiProxy_Module__startupDone__S
00843260   ti_sysbios_hal_Hwi_HwiProxy_Object__delete__S
00843280   ti_sysbios_hal_Hwi_HwiProxy_clearInterrupt__E
00843280   ti_sysbios_hal_Hwi_clearInterrupt__E
008432a0   ti_sysbios_hal_Hwi_HwiProxy_disableInterrupt__E
008432a0   ti_sysbios_hal_Hwi_disableInterrupt__E
008432c0   ti_sysbios_hal_Hwi_HwiProxy_enableInterrupt__E
008432c0   ti_sysbios_hal_Hwi_enableInterrupt__E
008432e0   ti_sysbios_hal_Hwi_HwiProxy_getStackInfo__E
008432e0   ti_sysbios_hal_Hwi_getStackInfo__E
00843300   ti_sysbios_hal_Hwi_HwiProxy_startup__E
00843300   ti_sysbios_hal_Hwi_startup__E
00843320   ti_sysbios_hal_Hwi_HwiProxy_switchFromBootStack__E
00843320   ti_sysbios_hal_Hwi_switchFromBootStack__E
00843340   ti_sysbios_hal_Hwi_Module_startup__E
00843360   ti_sysbios_hal_Hwi_Module_startup__F
00843380   ti_sysbios_hal_Timer_Module__startupDone__S
008433a0   ti_sysbios_hal_Timer_Module_startup__E
008433c0   ti_sysbios_hal_Timer_Module_startup__F
008433e0   ti_sysbios_hal_Timer_TimerProxy_Module__startupDone__S
00843400   ti_sysbios_hal_Timer_TimerProxy_startup__E
00843400   ti_sysbios_hal_Timer_startup__E
00843420   ti_sysbios_heaps_HeapMem_Module_GateProxy_enter__E
00843440   ti_sysbios_heaps_HeapMem_Module_GateProxy_leave__E
00843460   ti_sysbios_heaps_HeapMem_Module_GateProxy_query__E
00843480   ti_sysbios_heaps_HeapMem_isBlocking__E
008434a0   ti_sysbios_knl_Clock_Module_startup__E
008434c0   ti_sysbios_knl_Clock_Module_startup__F
008434e0   ti_sysbios_knl_Idle_loop__E
00843500   ti_sysbios_knl_Queue_Instance_init__F
00843520   ti_sysbios_knl_Semaphore_Instance_finalize__F
00843540   ti_sysbios_knl_Semaphore_reset__E
00843560   ti_sysbios_knl_Swi_Module_startup__E
00843580   ti_sysbios_knl_Swi_disable__E
008435a0   ti_sysbios_knl_Task_Module_startup__E
008435c0   ti_sysbios_knl_Task_SupportProxy_Module__startupDone__S
008435e0   ti_sysbios_knl_Task_SupportProxy_checkStack__E
00843600   ti_sysbios_knl_Task_SupportProxy_getStackAlignment__E
00843620   ti_sysbios_knl_Task_SupportProxy_start__E
00843640   ti_sysbios_knl_Task_SupportProxy_swap__E
00843660   ti_sysbios_knl_Task_disable__E
00843680   ti_sysbios_knl_Task_getPri__E
008436a0   ti_sysbios_knl_Task_self__E
008436c0   ti_sysbios_knl_Task_startup__E
008436e0   ti_sysbios_syncs_SyncSem_query__E
00843700   ti_sysbios_syncs_SyncSem_query__F
00843720   ti_sysbios_syncs_SyncSem_signal__E
00843740   ti_sysbios_syncs_SyncSem_signal__F
00843760   ti_sysbios_syncs_SyncSem_wait__E
00843780   ti_sysbios_timers_timer64_Timer_Module__startupDone__S
008437a0   ti_sysbios_timers_timer64_Timer_Module_startup__E
008437c0   ti_sysbios_timers_timer64_Timer_TimerSupportProxy_enable__E
008437e0   ti_sysbios_xdcruntime_GateThreadSupport_Instance_finalize__F
00843800   ti_sysbios_xdcruntime_GateThreadSupport_enter__E
00843820   ti_sysbios_xdcruntime_GateThreadSupport_enter__F
00843840   ti_sysbios_xdcruntime_GateThreadSupport_leave__E
00843860   ti_sysbios_xdcruntime_GateThreadSupport_query__E
008438a0   xdc_runtime_Error_check__E
008438c0   xdc_runtime_Error_init__E
008438e0   xdc_runtime_Error_print__E
00843900   xdc_runtime_GateNull_enter__E
00843920   xdc_runtime_GateNull_enter__F
00843940   xdc_runtime_GateNull_leave__E
00843960   xdc_runtime_GateNull_leave__F
00843980   xdc_runtime_GateNull_query__E
008439a0   xdc_runtime_GateNull_query__F
008439c0   xdc_runtime_Gate_enterSystem__E
008439e0   xdc_runtime_Gate_enterSystem__F
00843a00   xdc_runtime_Gate_leaveSystem__E
00843a20   xdc_runtime_Memory_HeapProxy_alloc__E
00843a40   xdc_runtime_Memory_HeapProxy_free__E
00843a60   xdc_runtime_Memory_alloc__E
00843a80   xdc_runtime_Memory_calloc__E
00843aa0   xdc_runtime_Memory_free__E
00843ac0   xdc_runtime_Memory_getMaxDefaultTypeAlign__E
00843ae0   xdc_runtime_Memory_getMaxDefaultTypeAlign__F
00843b00   xdc_runtime_Registry_findById__E
00843b20   xdc_runtime_Startup_Module__startupDone__S
00843b40   xdc_runtime_Startup_exec__E
00843b60   xdc_runtime_Startup_reset__I
00843b80   xdc_runtime_SysMin_Module_startup__E
00843ba0   xdc_runtime_SysMin_abort__E
00843bc0   xdc_runtime_SysMin_exit__E
00843be0   xdc_runtime_SysMin_flush__E
00843c00   xdc_runtime_SysMin_putch__E
00843c20   xdc_runtime_SysMin_ready__E
00843c40   xdc_runtime_SysMin_ready__F
00843c60   xdc_runtime_System_Module_GateProxy_enter__E
00843c80   xdc_runtime_System_Module_GateProxy_leave__E
00843ca0   xdc_runtime_System_Module_startup__E
00843cc0   xdc_runtime_System_Module_startup__F
00843ce0   xdc_runtime_System_SupportProxy_abort__E
00843d00   xdc_runtime_System_SupportProxy_exit__E
00843d20   xdc_runtime_System_SupportProxy_flush__E
00843d20   xdc_runtime_System_flush__F
00843d40   xdc_runtime_System_SupportProxy_putch__E
00843d60   xdc_runtime_System_SupportProxy_ready__E
00843d80   xdc_runtime_System_abort__E
00843da0   xdc_runtime_System_atexit__E
00843dc0   xdc_runtime_System_exit__E
00843de0   xdc_runtime_System_exit__F
00843e00   xdc_runtime_System_flush__E
00843e20   xdc_runtime_System_lastFxn__I
00843e40   xdc_runtime_System_vsnprintf__E
00843e60   xdc_runtime_System_snprintf_va__F
00843e60   xdc_runtime_System_vsnprintf__F
00843e80   xdc_runtime_Text_cordText__E
00843ea0   xdc_runtime_Text_putLab__E
00843ec0   xdc_runtime_Text_putSite__E
00843ee0   xdc_runtime_Text_ropeText__E
00843f00   xdc_runtime_knl_GateThread_Module__startupDone__S
00843f20   xdc_runtime_knl_GateThread_Proxy_Object__delete__S
00843f40   xdc_runtime_knl_GateThread_Proxy_enter__E
00843f60   xdc_runtime_knl_GateThread_Proxy_leave__E
00843f80   xdc_runtime_knl_GateThread_Proxy_query__E
00843f80   xdc_runtime_knl_GateThread_query__F
00843fa0   xdc_runtime_knl_GateThread_enter__E
00843fc0   xdc_runtime_knl_GateThread_enter__F
00843fe0   xdc_runtime_knl_GateThread_leave__E
00844000   xdc_runtime_knl_GateThread_leave__F
00844020   xdc_runtime_knl_GateThread_query__E
00844060   xdc_runtime_Text_charTab__A
00846c40   c1
00848a08   m
0084a2b8   c2
0084c330   acc48_le
0084d88a   ti_sdo_ipc_GateMP_Module__id__C
0084d88c   Core_Num
0084d890   ti_sysbios_family_c66_Cache_marvalues__C
0084e544   ti_sdo_ipc_GateMP_A_invalidClose__C
0084e548   xdc_runtime_Text_nodeTab__A
0084ec28   ti_sysbios_family_c66_tci66xx_CpIntc_sysIntToHostInt__A
0084efa8   _ctypes_
0084f0aa   ti_sdo_ipc_GateMP_Module__loggerDefined__C
0084f5e4   ti_sdo_ipc_GateMP_A_invalidDelete__C
0084f5e8   pap_pdsp_const_reg_map
0084f6ec   ti_sdo_ipc_GateMP_E_gateUnavailable__C
0084f6f0   xdc_runtime_Startup_sfxnTab__A
0084f7b0   ti_sysbios_knl_Task_Object__PARAMS__C
0084f824   ti_sdo_ipc_heaps_HeapBufMP_Object__PARAMS__C
0084f85c   ti_sdo_ipc_notifyDrivers_NotifyDriverShm_Module__FXNS__C
0084f894   ti_sdo_ipc_GateMP_Object__PARAMS__C
0084f8c8   ti_sdo_ipc_notifyDrivers_NotifyDriverShm_Object__PARAMS__C
0084f95c   ti_sdo_ipc_heaps_HeapMemMP_Object__PARAMS__C
0084f98c   ti_sysbios_family_c64p_Hwi_Object__PARAMS__C
0084f9e8   ti_sdo_ipc_ListMP_Object__PARAMS__C
0084fa14   ti_sdo_ipc_gates_GateHWSem_Module__FXNS__C
0084fa40   ti_sdo_ipc_gates_GateMPSupportNull_Module__FXNS__C
0084fa6c   ti_sdo_ipc_gates_GatePeterson_Module__FXNS__C
0084fa98   ti_sysbios_hal_Hwi_Object__PARAMS__C
0084fac4   ti_sdo_ipc_heaps_HeapBufMP_Module__FXNS__C
0084faec   ti_sdo_ipc_heaps_HeapMemMP_Module__FXNS__C
0084fb14   ti_sdo_ipc_nsremote_NameServerRemoteNotify_Module__FXNS__C
0084fb3c   ti_sdo_ipc_transports_TransportShmCirc_Module__FXNS__C
0084fb64   ti_sysbios_heaps_HeapMem_Module__FXNS__C
0084fb8c   ti_sysbios_knl_Swi_Object__PARAMS__C
0084fbd8   ti_sdo_ipc_gates_GateHWSem_Object__PARAMS__C
0084fbfc   ti_sdo_ipc_gates_GateMPSupportNull_Object__PARAMS__C
0084fc20   ti_sdo_ipc_gates_GatePeterson_Object__PARAMS__C
0084fc44   ti_sysbios_gates_GateAll_Module__FXNS__C
0084fc68   ti_sysbios_gates_GateHwi_Module__FXNS__C
0084fc8c   ti_sysbios_gates_GateMutexPri_Module__FXNS__C
0084fcb0   ti_sysbios_gates_GateMutex_Module__FXNS__C
0084fcd4   ti_sysbios_gates_GateSwi_Module__FXNS__C
0084fcf8   ti_sysbios_heaps_HeapMem_Object__PARAMS__C
0084fd1c   ti_sysbios_knl_Semaphore_Object__PARAMS__C
0084fd40   ti_sysbios_syncs_SyncSem_Module__FXNS__C
0084fd64   xdc_runtime_GateNull_Module__FXNS__C
0084fd88   xdc_runtime_knl_GateThread_Module__FXNS__C
0084fdd0   xdc_runtime_Startup_sfxnRts__A
0084fdf2   ti_sdo_ipc_Ipc_Module__id__C
0084fdf4   ti_sdo_ipc_GateMP_Object__DESC__C
0084fe14   ti_sdo_ipc_ListMP_Object__DESC__C
0084fe34   ti_sdo_ipc_MessageQ_Object__DESC__C
0084fe54   ti_sdo_ipc_MessageQ_Object__PARAMS__C
0084fe74   ti_sdo_ipc_Notify_Object__DESC__C
0084fe94   ti_sdo_ipc_gates_GateHWSem_Object__DESC__C
0084feb4   ti_sdo_ipc_gates_GateMPSupportNull_Object__DESC__C
0084fed4   ti_sdo_ipc_gates_GatePeterson_Object__DESC__C
0084fef4   ti_sdo_ipc_heaps_HeapBufMP_Object__DESC__C
0084ff14   ti_sdo_ipc_heaps_HeapMemMP_Object__DESC__C
0084ff34   ti_sdo_ipc_notifyDrivers_NotifyDriverShm_Object__DESC__C
0084ff54   ti_sdo_ipc_nsremote_NameServerRemoteNotify_Object__DESC__C
0084ff74   ti_sdo_ipc_nsremote_NameServerRemoteNotify_Object__PARAMS__C
0084ff94   ti_sdo_ipc_transports_TransportShmCirc_Object__DESC__C
0084ffb4   ti_sdo_ipc_transports_TransportShmCirc_Object__PARAMS__C
0084ffd4   ti_sdo_utils_List_Object__DESC__C
0084fff4   ti_sysbios_family_c64p_Hwi_Object__DESC__C
00850014   ti_sdo_ipc_GateMP_E_localGate__C
00850018   ti_sysbios_family_c66_tci66xx_CpIntc_hostIntToEventId__A
00850038   ti_sysbios_gates_GateAll_Object__DESC__C
00850058   ti_sysbios_gates_GateHwi_Object__DESC__C
00850078   ti_sysbios_gates_GateMutexPri_Object__DESC__C
00850098   ti_sysbios_gates_GateMutex_Object__DESC__C
008500b8   ti_sysbios_gates_GateSwi_Object__DESC__C
008500d8   ti_sysbios_hal_Hwi_Object__DESC__C
008500f8   ti_sysbios_heaps_HeapMem_Object__DESC__C
00850118   ti_sysbios_knl_Event_Object__DESC__C
00850138   ti_sysbios_knl_Queue_Object__DESC__C
00850158   ti_sysbios_knl_Semaphore_Object__DESC__C
00850178   ti_sysbios_knl_Swi_Object__DESC__C
00850198   ti_sysbios_knl_Task_Object__DESC__C
008501b8   ti_sysbios_syncs_SyncSem_Object__DESC__C
008501d8   ti_sysbios_xdcruntime_GateThreadSupport_Object__DESC__C
008501f8   xdc_runtime_GateNull_Object__DESC__C
00850218   xdc_runtime_knl_GateThread_Object__DESC__C
00850270   ti_sysbios_syncs_SyncSem_Object__PARAMS__C
0085028c   ti_sdo_ipc_GateMP_LM_create__C
00850290   ti_sysbios_family_c66_tci66xx_CpIntc_eventId__A
008502aa   ti_sdo_ipc_Ipc_generateSlaveDataForHost__C
008502ac   ti_sdo_ipc_GateMP_LM_delete__C
008502b0   ti_sysbios_family_c66_tci66xx_CpIntc_hostIntToEventId_0__A
008502ca   ti_sdo_ipc_ListMP_Module__id__C
008502cc   ti_sdo_ipc_GateMP_LM_enter__C
008502d0   ti_sysbios_family_c66_tci66xx_CpIntc_hostIntToEventId_1__A
008502ea   ti_sdo_ipc_MessageQ_Module__id__C
008502ec   ti_sdo_ipc_GateMP_LM_leave__C
008502f0   ti_sysbios_family_c66_tci66xx_CpIntc_hostIntToEventId_2__A
0085030a   ti_sdo_ipc_MessageQ_Module__loggerDefined__C
0085030c   ti_sdo_ipc_GateMP_LM_open__C
00850310   ti_sysbios_family_c66_tci66xx_CpIntc_hostIntToEventId_3__A
0085032a   ti_sdo_ipc_Notify_Module__id__C
0085032c   ti_sdo_ipc_GateMP_Module__diagsEnabled__C
00850330   ti_sysbios_family_c66_tci66xx_CpIntc_hostIntToEventId_4__A
0085034a   ti_sdo_ipc_Notify_numLines__C
0085034c   ti_sdo_ipc_GateMP_Module__diagsIncluded__C
00850350   ti_sysbios_family_c66_tci66xx_CpIntc_hostIntToEventId_5__A
0085036a   ti_sdo_ipc_Notify_reservedEvents__C
0085036c   ti_sdo_ipc_GateMP_Module__diagsMask__C
00850370   ti_sysbios_family_c66_tci66xx_CpIntc_hostIntToEventId_6__A
0085038a   ti_sdo_ipc_SharedRegion_Module__id__C
0085038c   ti_sdo_ipc_GateMP_Module__loggerFxn2__C
00850390   ti_sysbios_family_c66_tci66xx_CpIntc_hostIntToEventId_7__A
008503aa   ti_sdo_ipc_SharedRegion_numEntries__C
008503ac   ti_sdo_ipc_GateMP_Module__loggerFxn4__C
008503e0   ti_sdo_ipc_Notify_Object__PARAMS__C
008503f8   ti_sdo_utils_List_Object__PARAMS__C
00850410   ti_sysbios_gates_GateAll_Object__PARAMS__C
00850428   ti_sysbios_gates_GateHwi_Object__PARAMS__C
00850440   ti_sysbios_gates_GateMutexPri_Object__PARAMS__C
00850458   ti_sysbios_gates_GateMutex_Object__PARAMS__C
00850470   ti_sysbios_gates_GateSwi_Object__PARAMS__C
00850488   ti_sysbios_knl_Event_Object__PARAMS__C
008504a0   ti_sysbios_knl_Queue_Object__PARAMS__C
008504b8   ti_sysbios_knl_Task_hooks__A
008504d0   ti_sysbios_xdcruntime_GateThreadSupport_Object__PARAMS__C
008504e8   xdc_runtime_GateNull_Object__PARAMS__C
00850500   xdc_runtime_knl_GateThread_Object__PARAMS__C
00850532   ti_sdo_ipc_SharedRegion_translate__C
00850534   ti_sdo_ipc_GateMP_Module__loggerObj__C
00850538   paMemAligns
00850548   ti_sdo_ipc_family_c647x_MultiProcSetup_procMap__A
00850558   ti_sdo_utils_MultiProc_procIdList__A
00850574   ti_sysbios_family_c66_Cache_initSize__C
008505a0   ti_sysbios_knl_Idle_coreList__C
008505a8   ti_sysbios_knl_Idle_funcList__C
008505b0   ti_sysbios_knl_Task_hooks__C
008505b8   xdc_runtime_Startup_firstFxns__A
008505c0   xdc_runtime_Startup_firstFxns__C
008505c8   xdc_runtime_Startup_lastFxns__C
008505d6   ti_sdo_ipc_family_c647x_Interrupt_enableKick__C
008505de   ti_sdo_ipc_gates_GateHWSem_Module__id__C
008505e6   ti_sdo_ipc_gates_GateMPSupportNull_Module__id__C
008505e8   ti_sdo_ipc_Ipc_A_addrNotCacheAligned__C
008505ec   ti_sdo_ipc_Ipc_A_addrNotInSharedRegion__C
008505f0   ti_sdo_ipc_Ipc_A_internal__C
008505f4   ti_sdo_ipc_Ipc_A_invArgument__C
008505f8   ti_sdo_ipc_Ipc_A_invParam__C
008505fc   ti_sdo_ipc_Ipc_A_nullArgument__C
00850600   ti_sdo_ipc_Ipc_A_nullPointer__C
00850604   ti_sdo_ipc_Ipc_E_internal__C
00850608   ti_sdo_ipc_Ipc_E_nameFailed__C
0085060c   ti_sdo_ipc_Ipc_E_versionMismatch__C
00850610   ti_sdo_ipc_Ipc_Module__diagsEnabled__C
00850614   ti_sdo_ipc_Ipc_Module__diagsIncluded__C
00850618   ti_sdo_ipc_Ipc_Module__diagsMask__C
0085061c   ti_sdo_ipc_Ipc_numUserFxns__C
00850620   ti_sdo_ipc_Ipc_procSync__C
00850624   ti_sdo_ipc_Ipc_userFxns__C
00850628   ti_sdo_ipc_ListMP_Module__diagsEnabled__C
0085062c   ti_sdo_ipc_ListMP_Module__diagsIncluded__C
00850630   ti_sdo_ipc_ListMP_Module__diagsMask__C
00850634   ti_sdo_ipc_MessageQ_A_cannotFreeStaticMsg__C
00850638   ti_sdo_ipc_MessageQ_A_heapIdInvalid__C
0085063c   ti_sdo_ipc_MessageQ_A_invalidMsg__C
00850640   ti_sdo_ipc_MessageQ_A_invalidObj__C
00850644   ti_sdo_ipc_MessageQ_A_invalidParam__C
00850648   ti_sdo_ipc_MessageQ_A_invalidQueueId__C
0085064c   ti_sdo_ipc_MessageQ_A_procIdInvalid__C
00850650   ti_sdo_ipc_MessageQ_A_unregisteredTransport__C
00850654   ti_sdo_ipc_MessageQ_E_indexNotAvailable__C
00850658   ti_sdo_ipc_MessageQ_E_maxReached__C
0085065c   ti_sdo_ipc_MessageQ_E_nameFailed__C
00850660   ti_sdo_ipc_MessageQ_Instance_State_highList__O
00850664   ti_sdo_ipc_MessageQ_Instance_State_normalList__O
00850668   ti_sdo_ipc_MessageQ_LM_free__C
0085066c   ti_sdo_ipc_MessageQ_LM_get__C
00850670   ti_sdo_ipc_MessageQ_LM_putLocal__C
00850674   ti_sdo_ipc_MessageQ_Module__diagsEnabled__C
00850678   ti_sdo_ipc_MessageQ_Module__diagsIncluded__C
0085067c   ti_sdo_ipc_MessageQ_Module__diagsMask__C
00850680   ti_sdo_ipc_MessageQ_Module__loggerFxn4__C
00850684   ti_sdo_ipc_MessageQ_Module__loggerObj__C
00850688   ti_sdo_ipc_MessageQ_Object__count__C
0085068c   ti_sdo_ipc_MessageQ_Object__heap__C
00850690   ti_sdo_ipc_MessageQ_Object__table__C
00850694   ti_sdo_ipc_MessageQ_maxRuntimeEntries__C
00850698   ti_sdo_ipc_MessageQ_numReservedEntries__C
0085069c   ti_sdo_ipc_Notify_A_alreadyRegistered__C
008506a0   ti_sdo_ipc_Notify_A_internal__C
008506a4   ti_sdo_ipc_Notify_A_invArgument__C
008506a8   ti_sdo_ipc_Notify_A_notRegistered__C
008506ac   ti_sdo_ipc_Notify_A_reservedEvent__C
008506b0   ti_sdo_ipc_Notify_Module__diagsEnabled__C
008506b4   ti_sdo_ipc_Notify_Module__diagsIncluded__C
008506b8   ti_sdo_ipc_Notify_Module__diagsMask__C
008506bc   ti_sdo_ipc_Notify_Module__gateObj__C
008506c0   ti_sdo_ipc_Notify_Object__heap__C
008506c4   ti_sdo_ipc_Notify_numEvents__C
008506c8   ti_sdo_ipc_Notify_sendEventPollCount__C
008506cc   ti_sdo_ipc_SharedRegion_A_addrOutOfRange__C
008506d0   ti_sdo_ipc_SharedRegion_A_idTooLarge__C
008506d4   ti_sdo_ipc_SharedRegion_A_noHeap__C
008506d8   ti_sdo_ipc_SharedRegion_A_region0Invalid__C
008506dc   ti_sdo_ipc_SharedRegion_A_regionInvalid__C
008506e0   ti_sdo_ipc_SharedRegion_A_reserveTooMuch__C
008506e4   ti_sdo_ipc_SharedRegion_INVALIDSRPTR__C
008506e8   ti_sdo_ipc_SharedRegion_Module__diagsEnabled__C
008506ec   ti_sdo_ipc_SharedRegion_Module__diagsIncluded__C
008506f0   ti_sdo_ipc_SharedRegion_Module__diagsMask__C
008506f4   ti_sdo_ipc_SharedRegion_numOffsetBits__C
008506f8   ti_sdo_ipc_SharedRegion_offsetMask__C
008506fc   ti_sdo_ipc_family_c647x_Interrupt_INTERDSPINT__C
00850700   ti_sdo_ipc_family_c647x_Interrupt_IPCAR0__C
00850704   ti_sdo_ipc_family_c647x_Interrupt_IPCGR0__C
00850708   ti_sdo_ipc_family_c647x_Interrupt_KICK0__C
0085070c   ti_sdo_ipc_family_c647x_Interrupt_KICK1__C
00850710   ti_sdo_ipc_family_c647x_MultiProcSetup_procMap__C
00850714   ti_sdo_ipc_family_c647x_NotifySetup_dspIntVectId__C
00850718   ti_sdo_ipc_gates_GateHWSem_A_invSemNum__C
0085071c   ti_sdo_ipc_gates_GateHWSem_Module__diagsEnabled__C
00850720   ti_sdo_ipc_gates_GateHWSem_Module__diagsIncluded__C
00850724   ti_sdo_ipc_gates_GateHWSem_Module__diagsMask__C
00850728   ti_sdo_ipc_gates_GateHWSem_baseAddr__C
0085072c   ti_sdo_ipc_gates_GateHWSem_numSems__C
00850730   ti_sdo_ipc_gates_GateHWSem_reservedMaskArr__A
00850734   ti_sdo_ipc_gates_GateHWSem_reservedMaskArr__C
00850738   ti_sdo_ipc_gates_GateMPSupportNull_A_invalidAction__C
0085073c   ti_sdo_ipc_gates_GateMPSupportNull_Module__diagsEnabled__C
00850740   ti_sdo_ipc_gates_GateMPSupportNull_Module__diagsIncluded__C
00850744   ti_sdo_ipc_gates_GateMPSupportNull_Module__diagsMask__C
00850748   ti_sdo_ipc_gates_GateMPSupportNull_action__C
0085074c   ti_sdo_ipc_gates_GatePeterson_E_gateRemotelyOpened__C
00850750   ti_sdo_ipc_gates_GatePeterson_Module__diagsEnabled__C
00850754   ti_sdo_ipc_gates_GatePeterson_Module__diagsIncluded__C
00850758   ti_sdo_ipc_gates_GatePeterson_Module__diagsMask__C
0085075c   ti_sdo_ipc_gates_GatePeterson_numInstances__C
00850760   ti_sdo_ipc_heaps_HeapBufMP_A_badAlignment__C
00850764   ti_sdo_ipc_heaps_HeapBufMP_A_invBlockFreed__C
00850768   ti_sdo_ipc_heaps_HeapBufMP_E_alignTooLarge__C
0085076c   ti_sdo_ipc_heaps_HeapBufMP_E_exactFail__C
00850770   ti_sdo_ipc_heaps_HeapBufMP_E_noBlocksLeft__C
00850774   ti_sdo_ipc_heaps_HeapBufMP_E_sizeTooLarge__C
00850778   ti_sdo_ipc_heaps_HeapBufMP_Module__diagsEnabled__C
0085077c   ti_sdo_ipc_heaps_HeapBufMP_Module__diagsIncluded__C
00850780   ti_sdo_ipc_heaps_HeapBufMP_Module__diagsMask__C
00850784   ti_sdo_ipc_heaps_HeapMemMP_A_align__C
00850788   ti_sdo_ipc_heaps_HeapMemMP_A_heapSize__C
0085078c   ti_sdo_ipc_heaps_HeapMemMP_A_invalidFree__C
00850790   ti_sdo_ipc_heaps_HeapMemMP_A_zeroBlock__C
00850794   ti_sdo_ipc_heaps_HeapMemMP_E_memory__C
00850798   ti_sdo_ipc_heaps_HeapMemMP_Module__diagsEnabled__C
0085079c   ti_sdo_ipc_heaps_HeapMemMP_Module__diagsIncluded__C
008507a0   ti_sdo_ipc_heaps_HeapMemMP_Module__diagsMask__C
008507a4   ti_sdo_ipc_interfaces_IGateMPSupport_Interface__BASE__C
008507a8   ti_sdo_ipc_interfaces_IMessageQTransport_Interface__BASE__C
008507ac   ti_sdo_ipc_interfaces_INotifyDriver_Interface__BASE__C
008507b0   ti_sdo_ipc_notifyDrivers_NotifyDriverShm_Module__diagsEnabled__C
008507b4   ti_sdo_ipc_notifyDrivers_NotifyDriverShm_Module__diagsIncluded__C
008507b8   ti_sdo_ipc_notifyDrivers_NotifyDriverShm_Module__diagsMask__C
008507bc   ti_sdo_ipc_notifyDrivers_NotifyDriverShm_Object__heap__C
008507c0   ti_sdo_ipc_nsremote_NameServerRemoteNotify_A_invalidValueLen__C
008507c4   ti_sdo_ipc_nsremote_NameServerRemoteNotify_A_messageSize__C
008507c8   ti_sdo_ipc_nsremote_NameServerRemoteNotify_Instance_State_semMultiBlock__O
008507cc   ti_sdo_ipc_nsremote_NameServerRemoteNotify_Instance_State_semRemoteWait__O
008507d0   ti_sdo_ipc_nsremote_NameServerRemoteNotify_Instance_State_swiRequest__O
008507d4   ti_sdo_ipc_nsremote_NameServerRemoteNotify_Instance_State_swiResponse__O
008507d8   ti_sdo_ipc_nsremote_NameServerRemoteNotify_Module__diagsEnabled__C
008507dc   ti_sdo_ipc_nsremote_NameServerRemoteNotify_Module__diagsIncluded__C
008507e0   ti_sdo_ipc_nsremote_NameServerRemoteNotify_Module__diagsMask__C
008507e4   ti_sdo_ipc_nsremote_NameServerRemoteNotify_notifyEventId__C
008507e8   ti_sdo_ipc_nsremote_NameServerRemoteNotify_timeout__C
008507ec   ti_sdo_ipc_transports_TransportShmCircSetup_priority__C
008507f0   ti_sdo_ipc_transports_TransportShmCirc_Instance_State_swiObj__O
008507f4   ti_sdo_ipc_transports_TransportShmCirc_Module__diagsEnabled__C
008507f8   ti_sdo_ipc_transports_TransportShmCirc_Module__diagsIncluded__C
008507fc   ti_sdo_ipc_transports_TransportShmCirc_Module__diagsMask__C
00850800   ti_sdo_ipc_transports_TransportShmCirc_maxIndex__C
00850804   ti_sdo_ipc_transports_TransportShmCirc_modIndex__C
00850808   ti_sdo_ipc_transports_TransportShmCirc_numMsgs__C
0085080c   ti_sdo_utils_INameServerRemote_Interface__BASE__C
00850810   ti_sdo_utils_List_Object__count__C
00850814   ti_sdo_utils_List_Object__table__C
00850818   ti_sdo_utils_MultiProc_A_invalidMultiProcId__C
0085081c   ti_sdo_utils_MultiProc_procIdList__C
00850820   ti_sdo_utils_NameServer_A_invArgument__C
00850824   ti_sdo_utils_NameServer_A_invalidLen__C
00850828   ti_sdo_utils_NameServer_E_entryExists__C
0085082c   ti_sdo_utils_NameServer_E_maxReached__C
00850830   ti_sdo_utils_NameServer_Instance_State_freeList__O
00850834   ti_sdo_utils_NameServer_Instance_State_nameList__O
00850838   ti_sdo_utils_NameServer_Module__diagsEnabled__C
0085083c   ti_sdo_utils_NameServer_Module__diagsIncluded__C
00850840   ti_sdo_utils_NameServer_Module__diagsMask__C
00850844   ti_sdo_utils_NameServer_Object__count__C
00850848   ti_sdo_utils_NameServer_Object__table__C
0085084c   ti_sysbios_BIOS_Module__diagsEnabled__C
00850850   ti_sysbios_BIOS_Module__diagsIncluded__C
00850854   ti_sysbios_BIOS_Module__diagsMask__C
00850858   ti_sysbios_BIOS_installedErrorHook__C
0085085c   ti_sysbios_family_c62_TaskSupport_stackAlignment__C
00850860   ti_sysbios_family_c64p_Exception_E_exceptionMax__C
00850864   ti_sysbios_family_c64p_Exception_exceptionHook__C
00850868   ti_sysbios_family_c64p_Exception_externalHook__C
0085086c   ti_sysbios_family_c64p_Exception_internalHook__C
00850870   ti_sysbios_family_c64p_Exception_nmiHook__C
00850874   ti_sysbios_family_c64p_Hwi_E_alreadyDefined__C
00850878   ti_sysbios_family_c64p_Hwi_E_handleNotFound__C
0085087c   ti_sysbios_family_c64p_Hwi_LD_end__C
00850880   ti_sysbios_family_c64p_Hwi_LM_begin__C
00850884   ti_sysbios_family_c64p_Hwi_Module__diagsEnabled__C
00850888   ti_sysbios_family_c64p_Hwi_Module__diagsIncluded__C
0085088c   ti_sysbios_family_c64p_Hwi_Module__diagsMask__C
00850890   ti_sysbios_family_c64p_Hwi_Module__loggerFxn1__C
00850894   ti_sysbios_family_c64p_Hwi_Module__loggerFxn8__C
00850898   ti_sysbios_family_c64p_Hwi_Module__loggerObj__C
0085089c   ti_sysbios_family_c66_Cache_atomicBlockSize__C
008508a0   ti_sysbios_family_c66_tci66xx_CpIntc_E_unpluggedSysInt__C
008508a4   ti_sysbios_family_c66_tci66xx_CpIntc_eventId__C
008508a8   ti_sysbios_family_c66_tci66xx_CpIntc_hostIntToEventId__C
008508ac   ti_sysbios_family_c66_tci66xx_CpIntc_numEvents__C
008508b0   ti_sysbios_family_c66_tci66xx_CpIntc_numStatusRegs__C
008508b4   ti_sysbios_family_c66_tci66xx_CpIntc_numSysInts__C
008508b8   ti_sysbios_family_c66_tci66xx_CpIntc_sysIntToHostInt__C
008508bc   ti_sysbios_gates_GateMutexPri_A_badContext__C
008508c0   ti_sysbios_gates_GateMutexPri_A_enterTaskDisabled__C
008508c4   ti_sysbios_gates_GateMutexPri_Instance_State_pendQ__O
008508c8   ti_sysbios_gates_GateMutexPri_Module__diagsEnabled__C
008508cc   ti_sysbios_gates_GateMutexPri_Module__diagsIncluded__C
008508d0   ti_sysbios_gates_GateMutexPri_Module__diagsMask__C
008508d4   ti_sysbios_gates_GateMutex_A_badContext__C
008508d8   ti_sysbios_gates_GateMutex_Instance_State_sem__O
008508dc   ti_sysbios_gates_GateMutex_Module__diagsEnabled__C
008508e0   ti_sysbios_gates_GateMutex_Module__diagsIncluded__C
008508e4   ti_sysbios_gates_GateMutex_Module__diagsMask__C
008508e8   ti_sysbios_gates_GateSwi_A_badContext__C
008508ec   ti_sysbios_gates_GateSwi_Module__diagsEnabled__C
008508f0   ti_sysbios_gates_GateSwi_Module__diagsIncluded__C
008508f4   ti_sysbios_gates_GateSwi_Module__diagsMask__C
008508f8   ti_sysbios_hal_Hwi_E_stackOverflow__C
008508fc   ti_sysbios_heaps_HeapMem_A_align__C
00850900   ti_sysbios_heaps_HeapMem_A_heapSize__C
00850904   ti_sysbios_heaps_HeapMem_A_invalidFree__C
00850908   ti_sysbios_heaps_HeapMem_A_zeroBlock__C
0085090c   ti_sysbios_heaps_HeapMem_E_memory__C
00850910   ti_sysbios_heaps_HeapMem_Module__diagsEnabled__C
00850914   ti_sysbios_heaps_HeapMem_Module__diagsIncluded__C
00850918   ti_sysbios_heaps_HeapMem_Module__diagsMask__C
0085091c   ti_sysbios_heaps_HeapMem_Module__gateObj__C
00850920   ti_sysbios_heaps_HeapMem_Object__count__C
00850924   ti_sysbios_heaps_HeapMem_Object__table__C
00850928   ti_sysbios_heaps_HeapMem_reqAlign__C
0085092c   ti_sysbios_knl_Clock_tickPeriod__C
00850930   ti_sysbios_knl_Event_A_badContext__C
00850934   ti_sysbios_knl_Event_A_eventInUse__C
00850938   ti_sysbios_knl_Event_A_nullEventId__C
0085093c   ti_sysbios_knl_Event_A_nullEventMasks__C
00850940   ti_sysbios_knl_Event_A_pendTaskDisabled__C
00850944   ti_sysbios_knl_Event_Instance_State_pendQ__O
00850948   ti_sysbios_knl_Event_LM_pend__C
0085094c   ti_sysbios_knl_Event_LM_post__C
00850950   ti_sysbios_knl_Event_Module__diagsEnabled__C
00850954   ti_sysbios_knl_Event_Module__diagsIncluded__C
00850958   ti_sysbios_knl_Event_Module__diagsMask__C
0085095c   ti_sysbios_knl_Event_Module__loggerFxn4__C
00850960   ti_sysbios_knl_Event_Module__loggerFxn8__C
00850964   ti_sysbios_knl_Event_Module__loggerObj__C
00850968   ti_sysbios_knl_Idle_coreList__A
0085096c   ti_sysbios_knl_Queue_Object__count__C
00850970   ti_sysbios_knl_Idle_funcList__A
00850974   ti_sysbios_knl_Queue_Object__table__C
00850978   ti_sysbios_knl_Semaphore_A_badContext__C
0085097c   ti_sysbios_knl_Semaphore_A_noEvents__C
00850980   ti_sysbios_knl_Semaphore_A_overflow__C
00850984   ti_sysbios_knl_Semaphore_A_pendTaskDisabled__C
00850988   ti_sysbios_knl_Semaphore_Instance_State_pendQ__O
0085098c   ti_sysbios_knl_Semaphore_LM_pend__C
00850990   ti_sysbios_knl_Semaphore_LM_post__C
00850994   ti_sysbios_knl_Semaphore_Module__diagsEnabled__C
00850998   ti_sysbios_knl_Semaphore_Module__diagsIncluded__C
0085099c   ti_sysbios_knl_Semaphore_Module__diagsMask__C
008509a0   ti_sysbios_knl_Semaphore_Module__loggerFxn2__C
008509a4   ti_sysbios_knl_Semaphore_Module__loggerFxn4__C
008509a8   ti_sysbios_knl_Semaphore_Module__loggerObj__C
008509ac   ti_sysbios_knl_Swi_A_badPriority__C
008509b0   ti_sysbios_knl_Swi_LD_end__C
008509b4   ti_sysbios_knl_Swi_LM_begin__C
008509b8   ti_sysbios_knl_Swi_LM_post__C
008509bc   ti_sysbios_knl_Swi_Module__diagsEnabled__C
008509c0   ti_sysbios_knl_Swi_Module__diagsIncluded__C
008509c4   ti_sysbios_knl_Swi_Module__diagsMask__C
008509c8   ti_sysbios_knl_Swi_Module__loggerFxn1__C
008509cc   ti_sysbios_knl_Swi_Module__loggerFxn4__C
008509d0   ti_sysbios_knl_Swi_Module__loggerObj__C
008509d4   ti_sysbios_knl_Swi_Object__count__C
008509d8   ti_sysbios_knl_Swi_Object__table__C
008509dc   ti_sysbios_knl_Task_A_badPriority__C
008509e0   ti_sysbios_knl_Task_A_badTaskState__C
008509e4   ti_sysbios_knl_Task_A_badThreadType__C
008509e8   ti_sysbios_knl_Task_A_noPendElem__C
008509ec   ti_sysbios_knl_Task_E_spOutOfBounds__C
008509f0   ti_sysbios_knl_Task_E_stackOverflow__C
008509f4   ti_sysbios_knl_Task_LD_block__C
008509f8   ti_sysbios_knl_Task_LD_exit__C
008509fc   ti_sysbios_knl_Task_LD_ready__C
00850a00   ti_sysbios_knl_Task_LM_setPri__C
00850a04   ti_sysbios_knl_Task_LM_switch__C
00850a08   ti_sysbios_knl_Task_LM_yield__C
00850a0c   ti_sysbios_knl_Task_Module_State_inactiveQ__O
00850a10   ti_sysbios_knl_Task_Module__diagsEnabled__C
00850a14   ti_sysbios_knl_Task_Module__diagsIncluded__C
00850a18   ti_sysbios_knl_Task_Module__diagsMask__C
00850a1c   ti_sysbios_knl_Task_Module__loggerFxn2__C
00850a20   ti_sysbios_knl_Task_Module__loggerFxn4__C
00850a24   ti_sysbios_knl_Task_Module__loggerObj__C
00850a28   ti_sysbios_knl_Task_Object__count__C
00850a2c   ti_sysbios_knl_Task_Object__heap__C
00850a30   ti_sysbios_knl_Task_Object__table__C
00850a34   ti_sysbios_knl_Task_allBlockedFunc__C
00850a38   ti_sysbios_knl_Task_defaultStackHeap__C
00850a3c   ti_sysbios_knl_Task_defaultStackSize__C
00850a40   ti_sysbios_knl_Task_numConstructedTasks__C
00850a44   ti_sysbios_syncs_SyncSem_Module__diagsEnabled__C
00850a48   ti_sysbios_syncs_SyncSem_Module__diagsIncluded__C
00850a4c   ti_sysbios_syncs_SyncSem_Module__diagsMask__C
00850a50   ti_sysbios_timers_timer64_Timer_A_notAvailable__C
00850a54   ti_sysbios_timers_timer64_Timer_E_cannotSupport__C
00850a58   ti_sysbios_timers_timer64_Timer_Module__diagsEnabled__C
00850a5c   ti_sysbios_timers_timer64_Timer_Module__diagsIncluded__C
00850a60   ti_sysbios_timers_timer64_Timer_Module__diagsMask__C
00850a64   ti_sysbios_timers_timer64_Timer_anyMask__C
00850a68   ti_sysbios_timers_timer64_Timer_freqDivisor__C
00850a6c   ti_sysbios_timers_timer64_Timer_numLocalTimers__C
00850a70   ti_sysbios_timers_timer64_Timer_numTimerDevices__C
00850a74   ti_sysbios_xdcruntime_GateThreadSupport_Instance_State_gate__O
00850a78   ti_uia_events_UIABenchmark_start__C
00850a7c   ti_uia_events_UIABenchmark_stop__C
00850a80   xdc_runtime_Assert_E_assertFailed__C
00850a84   xdc_runtime_Core_A_initializedParams__C
00850a88   xdc_runtime_Core_Module__diagsEnabled__C
00850a8c   xdc_runtime_Core_Module__diagsIncluded__C
00850a90   xdc_runtime_Core_Module__diagsMask__C
00850a94   xdc_runtime_Error_E_memory__C
00850a98   xdc_runtime_Error_Module__diagsEnabled__C
00850a9c   xdc_runtime_Error_Module__diagsIncluded__C
00850aa0   xdc_runtime_Error_Module__diagsMask__C
00850aa4   xdc_runtime_Error_Module__loggerFxn8__C
00850aa8   xdc_runtime_Error_Module__loggerObj__C
00850aac   xdc_runtime_Error_policy__C
00850ab0   xdc_runtime_Error_raiseHook__C
00850ab4   xdc_runtime_IGateProvider_Interface__BASE__C
00850ab8   xdc_runtime_IHeap_Interface__BASE__C
00850abc   xdc_runtime_IModule_Interface__BASE__C
00850ac0   xdc_runtime_Log_L_error__C
00850ac4   xdc_runtime_Main_Module__diagsEnabled__C
00850ac8   xdc_runtime_Main_Module__diagsIncluded__C
00850acc   xdc_runtime_Main_Module__diagsMask__C
00850ad0   xdc_runtime_Main_Module__loggerFxn1__C
00850ad4   xdc_runtime_Main_Module__loggerObj__C
00850ad8   xdc_runtime_Memory_defaultHeapInstance__C
00850adc   xdc_runtime_Startup_execImpl__C
00850ae0   xdc_runtime_Startup_lastFxns__A
00850ae4   xdc_runtime_Startup_maxPasses__C
00850ae8   xdc_runtime_Startup_sfxnRts__C
00850aec   xdc_runtime_Startup_sfxnTab__C
00850af0   xdc_runtime_Startup_startModsFxn__C
00850af4   xdc_runtime_SysMin_bufSize__C
00850af8   xdc_runtime_SysMin_outputFunc__C
00850afc   xdc_runtime_System_Module__gateObj__C
00850b00   xdc_runtime_System_extendFxn__C
00850b04   xdc_runtime_System_maxAtexitHandlers__C
00850b08   xdc_runtime_Text_charTab__C
00850b0c   xdc_runtime_Text_nameEmpty__C
00850b10   xdc_runtime_Text_nameStatic__C
00850b14   xdc_runtime_Text_nameUnknown__C
00850b18   xdc_runtime_Text_nodeTab__C
00850b1c   xdc_runtime_Text_visitRopeFxn__C
00850b20   xdc_runtime_knl_ISync_Interface__BASE__C
00850b24   ti_sdo_ipc_gates_GatePeterson_Module__id__C
00850b26   ti_sdo_ipc_heaps_HeapBufMP_Module__id__C
00850b28   ti_sdo_ipc_heaps_HeapBufMP_trackAllocs__C
00850b2a   ti_sdo_ipc_heaps_HeapMemMP_Module__id__C
00850b2c   ti_sdo_ipc_notifyDrivers_NotifyDriverShm_Module__id__C
00850b2e   ti_sdo_ipc_nsremote_NameServerRemoteNotify_Module__id__C
00850b30   ti_sdo_ipc_transports_TransportShmCirc_Module__id__C
00850b32   ti_sdo_ipc_transports_TransportShmCirc_alwaysWriteBackMsg__C
00850b34   ti_sdo_ipc_transports_TransportShmCirc_notifyEventId__C
00850b36   ti_sdo_utils_MultiProc_numProcessors__C
00850b38   ti_sdo_utils_MultiProc_numProcsInCluster__C
00850b3a   ti_sdo_utils_NameServer_Module__id__C
00850b3c   ti_sdo_utils_NameServer_singleProcessor__C
00850b3e   ti_sysbios_BIOS_Module__id__C
00850b40   ti_sysbios_family_c64p_Exception_Module__id__C
00850b42   ti_sysbios_family_c64p_Exception_useInternalBuffer__C
00850b44   ti_sysbios_family_c64p_Hwi_Module__id__C
00850b46   ti_sysbios_family_c64p_Hwi_Module__loggerDefined__C
00850b48   ti_sysbios_family_c66_tci66xx_CpIntc_Module__id__C
00850b4a   ti_sysbios_gates_GateMutexPri_Module__id__C
00850b4c   ti_sysbios_gates_GateMutex_Module__id__C
00850b4e   ti_sysbios_gates_GateSwi_Module__id__C
00850b50   ti_sysbios_hal_Hwi_Module__id__C
00850b52   ti_sysbios_heaps_HeapMem_Module__id__C
00850b54   ti_sysbios_knl_Event_Module__id__C
00850b56   ti_sysbios_knl_Event_Module__loggerDefined__C
00850b58   ti_sysbios_knl_Semaphore_Module__id__C
00850b5a   ti_sysbios_knl_Semaphore_Module__loggerDefined__C
00850b5c   ti_sysbios_knl_Swi_Module__id__C
00850b5e   ti_sysbios_knl_Swi_Module__loggerDefined__C
00850b60   ti_sysbios_knl_Task_Module__id__C
00850b62   ti_sysbios_knl_Task_Module__loggerDefined__C
00850b64   ti_sysbios_knl_Task_initStackFlag__C
00850b66   ti_sysbios_syncs_SyncSem_Module__id__C
00850b68   ti_sysbios_timers_timer64_Timer_Module__id__C
00850b6a   ti_sysbios_timers_timer64_Timer_startupNeeded__C
00850b6c   xdc_runtime_Core_Module__id__C
00850b6e   xdc_runtime_Error_Module__loggerDefined__C
00850b70   xdc_runtime_Error_maxDepth__C
00850b72   xdc_runtime_Main_Module__id__C
00850b74   xdc_runtime_Main_Module__loggerDefined__C
00850b76   xdc_runtime_Memory_Module__id__C
00850b78   xdc_runtime_SysMin_flushAtExit__C
00850b7a   xdc_runtime_Text_charCnt__C
00850b7c   xdc_runtime_Text_isLoaded__C
00850b7e   xdc_runtime_Text_registryModsLastId__C
00850b80   xdc_runtime_Text_unnamedModsLastId__C
00850b88   _stack
00858b88   __TI_STACK_END
00858b90   paCmdBuf
00858cd0   oDDCTimeStamp
00858e00   gHiPriAccumList
00859000   _CSL_intcVectorTable
00859400   ti_sysbios_family_c64p_Hwi0
00859400   ti_sysbios_family_c64p_Hwi_int0
00859420   ti_sysbios_family_c64p_Hwi_int1
00859440   ti_sysbios_family_c64p_Hwi_int2
00859460   ti_sysbios_family_c64p_Hwi_int3
00859480   ti_sysbios_family_c64p_Hwi_int4
008594a0   ti_sysbios_family_c64p_Hwi_int5
008594c0   ti_sysbios_family_c64p_Hwi_int6
008594e0   ti_sysbios_family_c64p_Hwi_int7
00859500   ti_sysbios_family_c64p_Hwi_int8
00859520   ti_sysbios_family_c64p_Hwi_int9
00859540   ti_sysbios_family_c64p_Hwi_int10
00859560   ti_sysbios_family_c64p_Hwi_int11
00859580   ti_sysbios_family_c64p_Hwi_int12
008595a0   ti_sysbios_family_c64p_Hwi_int13
008595c0   ti_sysbios_family_c64p_Hwi_int14
008595e0   ti_sysbios_family_c64p_Hwi_int15
0c000000   DDC_RxPacket
80000000   GBTS
800005b0   GBTSSEM
800005b8   oRxCalibration
800007b8   oSrio
80100000   gCriticalMemRef
83000000   gDelcomMemSeg
83100000   gDelcomMemL1FECSeg
83106640   theModMgr
83107508   MemListv2
83107568   ti_sysbios_gates_GateMutexPri_Object__table__V
83107580   ti_sysbios_heaps_HeapMem_Instance_State_0_buf__A
83147580   bFreeID
831475b8   gRxRouter
831489d8   gTxRouter
83149560   Qmss_highEoiVector
83149580   gPAInst
83149680   gMemL2Ram
83149a80   gMemL3Ram
8314aa80   gPaL2Handles
8314aaa8   gPaL3Handles
8314aaf8   gPaL4Handles
8314ac38   ti_sdo_utils_NameServer_Module_State_0_nsRemoteHandle__A
8314ac58   ti_sysbios_knl_Task_Instance_State_0_hookEnv__A
8314ac60   xdc_runtime_SysMin_Module_State_0_outbuf__A
8314b060   gDataBufferMemMgr
8314b420   coreKey
8314b448   VGA_Status
8314b450   DSP_temp
8314b458   RF_temp
8314b460   FPGA_Hm
8314b470   GPS_DATA
8314b480   oTxPacket
8314b5a2   oRxPacket
8314b6a4   oQueue
8314b8ac   oCurrTime
8314b8b4   oPrevTime
8314ba20   _tmpnams
8314bb60   qmssLObj
8314bd48   gPaTxQHnd
8314bd70   gCpdmaTxChanHnd
8314bd98   gCpdmaRxChanHnd
8314bea0   nextQueueName
8314beb0   messageQ
8314bec0   remoteQueueId
8314bf40   ti_sdo_ipc_GateMP_Module_State_0_remoteCustom1Gates__A
8314c740   ti_sysbios_family_c66_tci66xx_CpIntc_Module_State_0_dispatchTab__A
8314cc40   ti_sdo_ipc_GateMP_Module__root__V
8314cc48   ti_sdo_ipc_GateMP_Module__state__V
8314cc98   ti_sdo_ipc_Ipc_Module__state__V
8314cca4   ti_sdo_ipc_ListMP_Module__root__V
8314ccac   ti_sdo_ipc_ListMP_Module__state__V
8314ccb0   ti_sdo_ipc_MessageQ_Module__root__V
8314ccb8   ti_sdo_ipc_MessageQ_Module__state__V
8314ccd8   ti_sdo_ipc_Notify_Module__root__V
8314cce0   ti_sdo_ipc_Notify_Module__state__V
8314cce8   ti_sdo_ipc_SharedRegion_Module__state__V
8314ccec   ti_sdo_ipc_family_c647x_Interrupt_Module__state__V
8314ccf8   ti_sdo_ipc_gates_GateHWSem_Module__root__V
8314cd00   ti_sdo_ipc_gates_GateMPSupportNull_Module__root__V
8314cd08   ti_sdo_ipc_gates_GatePeterson_Module__root__V
8314cd10   ti_sdo_ipc_heaps_HeapBufMP_Module__root__V
8314cd18   ti_sdo_ipc_heaps_HeapBufMP_Module__state__V
8314cd1c   ti_sdo_ipc_heaps_HeapMemMP_Module__root__V
8314cd24   ti_sdo_ipc_heaps_HeapMemMP_Module__state__V
8314cd28   ti_sdo_ipc_notifyDrivers_NotifyDriverShm_Module__root__V
8314cd30   ti_sdo_ipc_nsremote_NameServerRemoteNotify_Module__root__V
8314cd38   ti_sdo_ipc_transports_TransportShmCirc_Module__root__V
8314cd40   ti_sdo_ipc_transports_TransportShmCircSetup_Module__state__V
8314cd44   ti_sdo_utils_List_Module__root__V
8314cd4c   ti_sdo_utils_MultiProc_Module__state__V
8314cd50   ti_sdo_utils_NameServer_Module__root__V
8314cd58   ti_sdo_utils_NameServer_Module__state__V
8314cd60   ti_sdo_utils_NameServerRemoteNull_Module__root__V
8314cd68   ti_sysbios_BIOS_Module__state__V
8314cd88   ti_sysbios_family_c64p_Exception_Module__state__V
8314cdb8   ti_sysbios_family_c64p_Hwi_Module__root__V
8314cdc0   ti_sysbios_family_c64p_Hwi_Module__state__V
8314ce28   ti_sysbios_family_c66_tci66xx_CpIntc_Module__state__V
8314ce38   ti_sysbios_gates_GateAll_Module__root__V
8314ce40   ti_sysbios_gates_GateHwi_Module__root__V
8314ce48   ti_sysbios_gates_GateMutex_Module__root__V
8314ce50   ti_sysbios_gates_GateMutexPri_Module__root__V
8314ce58   ti_sysbios_gates_GateSwi_Module__root__V
8314ce60   ti_sysbios_hal_Hwi_Module__root__V
8314ce68   ti_sysbios_hal_Timer_Module__root__V
8314ce70   ti_sysbios_heaps_HeapMem_Module__root__V
8314ce78   ti_sysbios_knl_Clock_Module__root__V
8314ce80   ti_sysbios_knl_Clock_Module__state__V
8314cea8   ti_sysbios_knl_Event_Module__root__V
8314ceb0   ti_sysbios_knl_Queue_Module__root__V
8314ceb8   ti_sysbios_knl_Semaphore_Module__root__V
8314cec0   ti_sysbios_knl_Swi_Module__root__V
8314cec8   ti_sysbios_knl_Swi_Module__state__V
8314cee4   ti_sysbios_knl_Task_Module__root__V
8314ceec   ti_sysbios_knl_Task_Module__state__V
8314cf30   ti_sysbios_syncs_SyncSem_Module__root__V
8314cf38   ti_sysbios_timers_timer64_Timer_Module__root__V
8314cf40   ti_sysbios_timers_timer64_Timer_Module__state__V
8314cf54   ti_sysbios_xdcruntime_GateThreadSupport_Module__root__V
8314cf5c   xdc_runtime_Error_Module__state__V
8314cf60   xdc_runtime_GateNull_Module__root__V
8314cf68   xdc_runtime_Memory_Module__state__V
8314cf6c   xdc_runtime_Registry_Module__state__V
8314cf74   xdc_runtime_Startup_Module__state__V
8314cf7c   xdc_runtime_SysMin_Module__state__V
8314cf88   xdc_runtime_System_Module__state__V
8314cf94   xdc_runtime_Text_Module__state__V
8314cf9c   xdc_runtime_knl_GateThread_Module__root__V
8314cfa4   __xdc__init__addr
8314cfa8   _ftable
8314d188   ti_sysbios_timers_timer64_Timer_Module_State_0_device__A
8314d308   ti_sdo_utils_NameServer_Object__table__V
8314d434   _ft_end
8314d438   qmssGblCfgParams
8314d6e8   ti_sdo_ipc_Ipc_Module_State_0_procEntry__A
8314d788   ti_sysbios_family_c66_tci66xx_CpIntc_Module_State_0_hostIntToSysInt__A
8314d820   ti_sdo_ipc_SharedRegion_Module_State_0_regions__A
8314d8b0   ti_sdo_ipc_GateMP_Module_State_0_remoteSystemGates__A
8314d930   ti_sysbios_knl_Swi_Module_State_0_readyQ__A
8314d9b0   ti_sysbios_knl_Task_Module_State_0_readyQ__A
8314da30   ti_sysbios_timers_timer64_Timer_Module_State_0_gctrl__A
8314dab0   ti_sysbios_timers_timer64_Timer_Module_State_0_handles__A
8314db30   ti_sysbios_timers_timer64_Timer_Module_State_0_intFreqs__A
8314dc28   cppiGblCfgParams
8314dca0   TSK_idle
8314dca0   ti_sysbios_knl_Task_Object__table__V
8314dcf0   ti_sdo_ipc_MessageQ_Module_State_0_transports__A
8314dd30   ti_sysbios_gates_GateMutex_Object__table__V
8314dd70   gDeviceNor
8314dda8   ti_sysbios_heaps_HeapMem_Object__table__V
8314ddd8   ti_sdo_ipc_MessageQ_Module_State_0_heaps__A
8314ddf8   ti_sdo_ipc_Notify_Module_State_0_notifyHandles__A
8314de18   ti_sdo_ipc_family_c647x_Interrupt_Module_State_0_args__A
8314de38   ti_sdo_ipc_transports_TransportShmCircSetup_Module_State_0_handles__A
8314de58   xdc_runtime_System_Module_State_0_atexitHandlers__A
8314de78   ti_sysbios_family_c66_tci66xx_CpIntc_Module_State_0_initSIER__A
8314de8c   pRxCalibration
8314de90   gBTS
8314de94   gBTSSem
8314de98   gSRIO
8314de9c   cppiLObj
8314dea0   Qmss_lowEoiVector
8314deb0   msgQ_type_tbl
8314dec0   ti_sysbios_family_c66_tci66xx_CpIntc_Module_State_0_controller__A
8314ded0   ti_sysbios_gates_GateAll_Object__table__V
8314dee0   _cleanup_ptr
8314dee4   _dtors_ptr
8314dee8   __TI_enable_exit_profile_output
8314deec   paLObj
8314def0   ti_sysbios_gates_GateSwi_Object__table__V
8314defc   _lock
8314df00   _unlock
8314df08   IPUdestAddr
8314df10   Mac1
8314df18   Mac2
8314df20   macAddress1
8314df28   ti_sdo_ipc_GateMP_Module_State_0_remoteCustom2Gates__A
8314df30   ti_sdo_ipc_Notify_Module_State_0_notifyHandles_0__A
8314df38   ti_sdo_ipc_Notify_Module_State_0_notifyHandles_1__A
8314df40   ti_sdo_ipc_Notify_Module_State_0_notifyHandles_2__A
8314df48   ti_sdo_ipc_Notify_Module_State_0_notifyHandles_3__A
8314df50   ti_sdo_ipc_Notify_Module_State_0_notifyHandles_4__A
8314df58   ti_sdo_ipc_Notify_Module_State_0_notifyHandles_5__A
8314df60   ti_sdo_ipc_Notify_Module_State_0_notifyHandles_6__A
8314df68   ti_sdo_ipc_Notify_Module_State_0_notifyHandles_7__A
8314df70   ti_sysbios_gates_GateHwi_Object__table__V
8314df78   ti_sysbios_knl_Task_Module_State_0_idleTask__A
8314df80   xdc_runtime_GateNull_Object__table__V
8314df88   Qmss_cdmaEoiVector
8314df90   ti_sysbios_knl_Task_Instance_State_0_stack__A
8314ea70   _CSL_intcCpuIntrTable
8314ea70   __TI_STATIC_BASE
8314eab4   _CSL_intcNumEvents
8314eab8   _CSL_intcEventHandlerRecord
8314eabc   pEthernet
8314eac0   pSrio
8314eac4   zero
8314eac8   one
8314eacc   two
8314ead0   three
8314ead4   four
8314ead8   five
8314eadc   six
8314eae0   seven
8314eae4   gDDCRx
8314eae8   nCurrDiff
8314eaf0   nPrevDiff
8314eaf8   nDiff
8314eb00   gGlobalFreeQHnd
8314eb04   gTxFreeQHnd
8314eb08   gRxFreeQHnd
8314eb0c   gRxQHnd
8314eb10   gCpdmaHnd
8314eb14   gRxFlowHnd
8314eb18   CLAIM_SPI_MAGIC
8314eb20   pUpgradeCmdIfHandle
8314eb24   pUpgradeCmd
8314eb28   heapHandle_0
8314eb2c   heapHandle_1
8314eb30   heapHandle_2
8314eb34   hAppManagedSrioDrv
8314eb38   hDrvManagedSrioDrv
8314eb3c   hSrioCSL
8314eb40   nSetTSC
8314eb44   pPkt
8314eb48   gPaCfgCmdRespQHnd
8314eb4c   gPAInstHnd
8314eb54   AGC_PA_TMA
8314eb56   bGpioInitialized
8314eb58   GpioHandle
8314eb5c   Ipc_sr0MemorySetup
8314eb60   gDDCDBellCounter
8314eb68   gPacketNumber
8314eb70   DDCRx_IsInitialized
8314eb78   BurstSeqNo
8314eb80   nAllocTune
8314eb84   nRxTuneWrite
8314eb88   min
8314eb8a   max
8314eb8c   bStampflag
8314eb90   num_times
8314eb98   nOldSeqNum
8314eba0   TotalProcessed
8314eba8   Num_FpgaIntReceived
8314ebac   Num_FpgaHmrequested
8314ebb0   timeflag
8314ebb1   RF_READ_WRITE
8314ebb4   pCmdIfHandle
8314ebb8   txbuffcount
8314ebb9   GPS_FLAG
8314ebbc   nFreeRxTune
8314ebc0   nRxTuneRead
8314ebc4   nHM_Data_2Min
8314ebc6   MesgQ_Initialized
8314ebc8   gDataBufferMemMgrMaxSize
8314ebcc   cpswCppiMallocCounter
8314ebd0   cpswCppiFreeCounter
8314ebd4   cpswQmssMallocCounter
8314ebd8   cpswQmssFreeCounter
8314ebdc   malloc_counter
8314ebe0   free_counter
8314ebe4   gCriticalMemRefPtr
8314ebe8   srioDbgDioIsrCnt
8314ebf0   nSrio1DoorBellCount
8314ebf8   srioLsuIsrServiced
8314ebfc   doorbellisrserviced
8314ec00   PACK_FROM_IPU
8314ec02   gIsPingListUsed
8314ec08   nSequenceNo
8314ec10   nSwSeqNo
8314ec18   nMaxRxChannel
8314ec1c   nConfigCount
8314ec20   nStopCount
8314ec24   nSetUnsetTSCCount
8314ec28   first_halfrate
8314ec29   nMaxTxChannel
8314ec2a   nAJTxChannel
8314ec2b   nCBTxChannel
8314ec2c   nVBTSTxChannel
8314ec30   cpswSimTest
8314ec34   cpswLpbkMode
8314ec38   port0
8314ec3c   mdebugWait
8314ec40   nRxActive
8314ec41   RF_HM_RECORD
8314ec58   TSCLin
8314ec5c   retry
8314ec60   srioDioLsuGoodTransfers
8314ec64   srioDioLsuBadTransfers
8314ec68   IDBCounter
8314ec70   pTxPacket
8314ec76   Fw_upgrade_FPGA
8314ec78   Boardnum
8314ec80   platform_errno
8314ec88   TimerReg
8314ec8c   qmssLObjIsValid
8314ec90   DEVICE_ID1_16BIT
8314ec94   DEVICE_ID1_8BIT
8314ec98   DEVICE_ID2_16BIT
8314ec9c   DEVICE_ID2_8BIT
8314eca0   DEVICE_ID3_16BIT
8314eca4   DEVICE_ID3_8BIT
8314eca8   DEVICE_ID4_16BIT
8314ecac   DEVICE_ID4_8BIT
8314ecb0   heap1
8314ecb4   heap2
8314ecb8   c1Size
8314ecbc   c2Size
8314ecc0   mSize
8314ecc8   __CIOBUF_
8314fd24   __TI_Handler_Table_Base
8314fd2c   __TI_CINIT_Base
8314fd2c   __TI_Handler_Table_Limit
8314fd6c   __TI_CINIT_Limit
85000000   ti_sysbios_heaps_HeapMem_Instance_State_1_buf__A
8500c000   ethLogBuffTx
85016000   phy_read_write
850160e4   mdio_write
85016278   Check_for_phy_status
850163a0   ethLogBuffTxcount
850163a8   SrioPakt
850164a8   Pak
850164e0   PakT
85016560   oDebugDDCRx
8501c588   gDDCNextBurstContextTable
8501d190   EthBuffTx
8501ea90   gHostDesc
85023a90   host_region
85025300   queueFree
85027300   qmssGObj
85027700   cppiObject
85027900   gSRIODriverMCB
ffffffff   __TI_pprof_out_hndl
ffffffff   __TI_prof_data_size
ffffffff   __TI_prof_data_start
ffffffff   __binit__
ffffffff   __c_args__
ffffffff   binit
UNDEFED    __TI_INITARRAY_Base
UNDEFED    __TI_INITARRAY_Limit

[1996 symbols]
